	.text
	.syntax unified
	.eabi_attribute	67, "2.09"	@ Tag_conformance
	.cpu	cortex-m23
	.eabi_attribute	6, 16	@ Tag_CPU_arch
	.eabi_attribute	7, 77	@ Tag_CPU_arch_profile
	.eabi_attribute	8, 0	@ Tag_ARM_ISA_use
	.eabi_attribute	9, 3	@ Tag_THUMB_ISA_use
	.eabi_attribute	34, 0	@ Tag_CPU_unaligned_access
	.eabi_attribute	17, 1	@ Tag_ABI_PCS_GOT_use
	.eabi_attribute	20, 2	@ Tag_ABI_FP_denormal
	.eabi_attribute	21, 0	@ Tag_ABI_FP_exceptions
	.eabi_attribute	23, 1	@ Tag_ABI_FP_number_model
	.eabi_attribute	24, 1	@ Tag_ABI_align_needed
	.eabi_attribute	25, 1	@ Tag_ABI_align_preserved
	.eabi_attribute	38, 1	@ Tag_ABI_FP_16bit_format
	.eabi_attribute	18, 2	@ Tag_ABI_PCS_wchar_t
	.eabi_attribute	26, 1	@ Tag_ABI_enum_size
	.eabi_attribute	14, 0	@ Tag_ABI_PCS_R9_use
	.file	"eeprom_sim.c"
	.file	1 "C:\\Users\\tester\\Desktop\\M251 dual eeprom\\SampleCode\\StdDriver\\INA3221_CABLE\\KEIL" "../EEPROM/eeprom_sim.c"
	.file	2 "C:\\Users\\tester" "AppData\\Local\\Keil_v5\\ARM\\ARMCLANG\\bin\\..\\include\\stdint.h"
	.file	3 "C:\\Users\\tester\\Desktop\\M251 dual eeprom\\SampleCode\\StdDriver\\INA3221_CABLE\\KEIL" "../../../../Library/Device/Nuvoton/M251/Include\\fmc_reg.h"
	.file	4 "C:\\Users\\tester\\Desktop\\M251 dual eeprom\\SampleCode\\StdDriver\\INA3221_CABLE\\KEIL" "../../../../Library/Device/Nuvoton/M251/Include\\sys_reg.h"
	.section	.text.FMC_Enable,"ax",%progbits
	.hidden	FMC_Enable                      @ -- Begin function FMC_Enable
	.globl	FMC_Enable
	.p2align	2
	.type	FMC_Enable,%function
	.code	16                              @ @FMC_Enable
	.thumb_func
FMC_Enable:
.Lfunc_begin0:
	.loc	1 45 0                          @ ../EEPROM/eeprom_sim.c:45:0
	.fnstart
	.cfi_sections .debug_frame
	.cfi_startproc
@ %bb.0:
	.save	{r7, lr}
	push	{r7, lr}
	.cfi_def_cfa_offset 8
	.cfi_offset lr, -4
	.cfi_offset r7, -8
.Ltmp0:
	.loc	1 46 5 prologue_end             @ ../EEPROM/eeprom_sim.c:46:5
	bl	SYS_UnlockReg
	.loc	1 47 5                          @ ../EEPROM/eeprom_sim.c:47:5
	bl	FMC_Open
	ldr	r1, __arm_cp.0_0
	.loc	1 48 5                          @ ../EEPROM/eeprom_sim.c:48:5
	ldr	r0, [r1]
	movs	r2, #8
	orrs	r0, r2
	str	r0, [r1]
	.loc	1 49 1 epilogue_begin           @ ../EEPROM/eeprom_sim.c:49:1
	pop	{r7, pc}
.Ltmp1:
	.p2align	2
@ %bb.1:
	.loc	1 0 1 is_stmt 0                 @ ../EEPROM/eeprom_sim.c:0:1
__arm_cp.0_0:
	.long	1073790976                      @ 0x4000c000
.Lcpi_end0:
	.size	__arm_cp.0_0, .Lcpi_end0-__arm_cp.0_0
.Lfunc_end0:
	.size	FMC_Enable, .Lfunc_end0-FMC_Enable
	.cfi_endproc
	.cantunwind
	.fnend
                                        @ -- End function
	.section	.text.SYS_UnlockReg,"ax",%progbits
	.p2align	2                               @ -- Begin function SYS_UnlockReg
	.type	SYS_UnlockReg,%function
	.code	16                              @ @SYS_UnlockReg
	.thumb_func
SYS_UnlockReg:
.Lfunc_begin1:
	.fnstart
	.cfi_startproc
@ %bb.0:
	.file	5 "C:\\Users\\tester\\Desktop\\M251 dual eeprom\\SampleCode\\StdDriver\\INA3221_CABLE\\KEIL" "../../../../Library/StdDriver/inc\\sys.h"
	.loc	5 1314 5 prologue_end is_stmt 1 @ ../../../../Library/StdDriver/inc\sys.h:1314:5
	b	.LBB1_1
.LBB1_1:                                @ =>This Inner Loop Header: Depth=1
	.loc	5 0 5 is_stmt 0                 @ ../../../../Library/StdDriver/inc\sys.h:0:5
	ldr	r1, __arm_cp.1_0
	movs	r0, #89
.Ltmp2:
	.loc	5 1316 22 is_stmt 1             @ ../../../../Library/StdDriver/inc\sys.h:1316:22
	str	r0, [r1]
	movs	r0, #22
	.loc	5 1317 22                       @ ../../../../Library/StdDriver/inc\sys.h:1317:22
	str	r0, [r1]
	movs	r0, #136
	.loc	5 1318 22                       @ ../../../../Library/StdDriver/inc\sys.h:1318:22
	str	r0, [r1]
	.loc	5 1319 5                        @ ../../../../Library/StdDriver/inc\sys.h:1319:5
	b	.LBB1_2
.Ltmp3:
.LBB1_2:                                @   in Loop: Header=BB1_1 Depth=1
	.loc	5 0 5 is_stmt 0                 @ ../../../../Library/StdDriver/inc\sys.h:0:5
	ldr	r0, __arm_cp.1_0
	.loc	5 1319 19                       @ ../../../../Library/StdDriver/inc\sys.h:1319:19
	ldr	r0, [r0]
.Ltmp4:
	.loc	5 1319 5                        @ ../../../../Library/StdDriver/inc\sys.h:1319:5
	cmp	r0, #0
	beq	.LBB1_1
	b	.LBB1_3
.Ltmp5:
.LBB1_3:
	.loc	5 1320 1 is_stmt 1              @ ../../../../Library/StdDriver/inc\sys.h:1320:1
	bx	lr
.Ltmp6:
	.p2align	2
@ %bb.4:
	.loc	5 0 1 is_stmt 0                 @ ../../../../Library/StdDriver/inc\sys.h:0:1
__arm_cp.1_0:
	.long	1073742080                      @ 0x40000100
.Lcpi_end1:
	.size	__arm_cp.1_0, .Lcpi_end1-__arm_cp.1_0
.Lfunc_end1:
	.size	SYS_UnlockReg, .Lfunc_end1-SYS_UnlockReg
	.cfi_endproc
	.cantunwind
	.fnend
                                        @ -- End function
	.section	.text.Init_EEPROM,"ax",%progbits
	.hidden	Init_EEPROM                     @ -- Begin function Init_EEPROM
	.globl	Init_EEPROM
	.p2align	2
	.type	Init_EEPROM,%function
	.code	16                              @ @Init_EEPROM
	.thumb_func
Init_EEPROM:
.Lfunc_begin2:
	.loc	1 59 0 is_stmt 1                @ ../EEPROM/eeprom_sim.c:59:0
	.fnstart
	.cfi_startproc
@ %bb.0:
	.save	{r7, lr}
	push	{r7, lr}
	.cfi_def_cfa_offset 8
	.cfi_offset lr, -4
	.cfi_offset r7, -8
	.pad	#24
	sub	sp, #24
	.cfi_def_cfa_offset 32
	str	r0, [sp, #16]
	str	r1, [sp, #12]
	str	r2, [sp, #8]
	str	r3, [sp, #4]
.Ltmp7:
	.loc	1 63 27 prologue_end            @ ../EEPROM/eeprom_sim.c:63:27
	ldr	r0, [sp, #12]
	.loc	1 63 5 is_stmt 0                @ ../EEPROM/eeprom_sim.c:63:5
	ldr	r1, [sp, #16]
	.loc	1 63 25                         @ ../EEPROM/eeprom_sim.c:63:25
	str	r0, [r1]
	.loc	1 64 27 is_stmt 1               @ ../EEPROM/eeprom_sim.c:64:27
	ldr	r0, [sp, #8]
	.loc	1 64 5 is_stmt 0                @ ../EEPROM/eeprom_sim.c:64:5
	ldr	r1, [sp, #16]
	.loc	1 64 25                         @ ../EEPROM/eeprom_sim.c:64:25
	str	r0, [r1, #8]
	.loc	1 65 25 is_stmt 1               @ ../EEPROM/eeprom_sim.c:65:25
	ldr	r0, [sp, #4]
	.loc	1 65 5 is_stmt 0                @ ../EEPROM/eeprom_sim.c:65:5
	ldr	r1, [sp, #16]
	.loc	1 65 23                         @ ../EEPROM/eeprom_sim.c:65:23
	str	r0, [r1, #4]
.Ltmp8:
	.loc	1 68 8 is_stmt 1                @ ../EEPROM/eeprom_sim.c:68:8
	ldr	r0, [sp, #16]
	.loc	1 68 13 is_stmt 0               @ ../EEPROM/eeprom_sim.c:68:13
	ldr	r0, [r0, #8]
.Ltmp9:
	.loc	1 68 8                          @ ../EEPROM/eeprom_sim.c:68:8
	lsrs	r0, r0, #8
	cbz	r0, .LBB2_2
	b	.LBB2_1
.LBB2_1:
	.loc	1 0 8                           @ ../EEPROM/eeprom_sim.c:0:8
	movs	r0, #1
.Ltmp10:
	.loc	1 68 50                         @ ../EEPROM/eeprom_sim.c:68:50
	str	r0, [sp, #20]
	b	.LBB2_15
.Ltmp11:
.LBB2_2:
	.loc	1 69 8 is_stmt 1                @ ../EEPROM/eeprom_sim.c:69:8
	ldr	r0, [sp, #16]
	.loc	1 69 13 is_stmt 0               @ ../EEPROM/eeprom_sim.c:69:13
	ldr	r0, [r0, #4]
.Ltmp12:
	.loc	1 69 8                          @ ../EEPROM/eeprom_sim.c:69:8
	cmp	r0, #21
	blo	.LBB2_4
	b	.LBB2_3
.LBB2_3:
	.loc	1 0 8                           @ ../EEPROM/eeprom_sim.c:0:8
	movs	r0, #2
.Ltmp13:
	.loc	1 69 54                         @ ../EEPROM/eeprom_sim.c:69:54
	str	r0, [sp, #20]
	b	.LBB2_15
.Ltmp14:
.LBB2_4:
	.loc	1 70 8 is_stmt 1                @ ../EEPROM/eeprom_sim.c:70:8
	ldr	r0, [sp, #16]
	.loc	1 70 13 is_stmt 0               @ ../EEPROM/eeprom_sim.c:70:13
	ldr	r0, [r0, #4]
.Ltmp15:
	.loc	1 70 8                          @ ../EEPROM/eeprom_sim.c:70:8
	cmp	r0, #1
	bhi	.LBB2_6
	b	.LBB2_5
.LBB2_5:
	.loc	1 0 8                           @ ../EEPROM/eeprom_sim.c:0:8
	movs	r0, #2
.Ltmp16:
	.loc	1 70 54                         @ ../EEPROM/eeprom_sim.c:70:54
	str	r0, [sp, #20]
	b	.LBB2_15
.Ltmp17:
.LBB2_6:
	.loc	1 73 8 is_stmt 1                @ ../EEPROM/eeprom_sim.c:73:8
	ldr	r0, [sp, #16]
.Ltmp18:
	.loc	1 73 8 is_stmt 0                @ ../EEPROM/eeprom_sim.c:73:8
	ldrh	r0, [r0]
	lsls	r0, r0, #23
	cbz	r0, .LBB2_8
	b	.LBB2_7
.LBB2_7:
	.loc	1 0 8                           @ ../EEPROM/eeprom_sim.c:0:8
	movs	r0, #4
.Ltmp19:
	.loc	1 73 52                         @ ../EEPROM/eeprom_sim.c:73:52
	str	r0, [sp, #20]
	b	.LBB2_15
.Ltmp20:
.LBB2_8:
	.loc	1 76 9 is_stmt 1                @ ../EEPROM/eeprom_sim.c:76:9
	ldr	r0, __arm_cp.2_0
	ldrb	r0, [r0]
.Ltmp21:
	.loc	1 76 9 is_stmt 0                @ ../EEPROM/eeprom_sim.c:76:9
	cmp	r0, #2
	blt	.LBB2_10
	b	.LBB2_9
.LBB2_9:
.Ltmp22:
	.loc	1 77 9 is_stmt 1                @ ../EEPROM/eeprom_sim.c:77:9
	ldr	r0, __arm_cp.2_2
	bl	printf
	movs	r0, #255
	.loc	1 78 9                          @ ../EEPROM/eeprom_sim.c:78:9
	str	r0, [sp, #20]
	b	.LBB2_15
.Ltmp23:
.LBB2_10:
	.loc	1 82 58                         @ ../EEPROM/eeprom_sim.c:82:58
	ldr	r2, __arm_cp.2_0
	ldrb	r0, [r2]
	adds	r1, r0, #1
	strb	r1, [r2]
	movs	r1, #255
	.loc	1 82 25 is_stmt 0               @ ../EEPROM/eeprom_sim.c:82:25
	muls	r1, r0, r1
	ldr	r0, __arm_cp.2_1
	adds	r0, r0, r1
	.loc	1 82 5                          @ ../EEPROM/eeprom_sim.c:82:5
	ldr	r1, [sp, #16]
	.loc	1 82 23                         @ ../EEPROM/eeprom_sim.c:82:23
	str	r0, [r1, #20]
	movs	r0, #0
.Ltmp24:
	.loc	1 85 11 is_stmt 1               @ ../EEPROM/eeprom_sim.c:85:11
	str	r0, [sp]
	.loc	1 85 9 is_stmt 0                @ ../EEPROM/eeprom_sim.c:85:9
	b	.LBB2_11
.LBB2_11:                               @ =>This Inner Loop Header: Depth=1
.Ltmp25:
	.loc	1 85 16                         @ ../EEPROM/eeprom_sim.c:85:16
	ldr	r0, [sp]
	.loc	1 85 20                         @ ../EEPROM/eeprom_sim.c:85:20
	ldr	r1, [sp, #16]
	.loc	1 85 25                         @ ../EEPROM/eeprom_sim.c:85:25
	ldr	r1, [r1, #8]
.Ltmp26:
	.loc	1 85 5                          @ ../EEPROM/eeprom_sim.c:85:5
	cmp	r0, r1
	bhs	.LBB2_14
	b	.LBB2_12
.LBB2_12:                               @   in Loop: Header=BB2_11 Depth=1
.Ltmp27:
	.loc	1 87 9 is_stmt 1                @ ../EEPROM/eeprom_sim.c:87:9
	ldr	r0, [sp, #16]
	.loc	1 87 14 is_stmt 0               @ ../EEPROM/eeprom_sim.c:87:14
	ldr	r1, [r0, #20]
	.loc	1 87 27                         @ ../EEPROM/eeprom_sim.c:87:27
	ldr	r2, [sp]
	movs	r0, #255
	.loc	1 87 30                         @ ../EEPROM/eeprom_sim.c:87:30
	strb	r0, [r1, r2]
	.loc	1 88 5 is_stmt 1                @ ../EEPROM/eeprom_sim.c:88:5
	b	.LBB2_13
.Ltmp28:
.LBB2_13:                               @   in Loop: Header=BB2_11 Depth=1
	.loc	1 85 42                         @ ../EEPROM/eeprom_sim.c:85:42
	ldr	r0, [sp]
	adds	r0, r0, #1
	str	r0, [sp]
	.loc	1 85 5 is_stmt 0                @ ../EEPROM/eeprom_sim.c:85:5
	b	.LBB2_11
.Ltmp29:
.LBB2_14:
	.loc	1 91 23 is_stmt 1               @ ../EEPROM/eeprom_sim.c:91:23
	ldr	r0, [sp, #16]
	.loc	1 91 5 is_stmt 0                @ ../EEPROM/eeprom_sim.c:91:5
	bl	Search_Valid_Page
	movs	r0, #0
	.loc	1 93 5 is_stmt 1                @ ../EEPROM/eeprom_sim.c:93:5
	str	r0, [sp, #20]
	b	.LBB2_15
.LBB2_15:
	.loc	1 94 1                          @ ../EEPROM/eeprom_sim.c:94:1
	ldr	r0, [sp, #20]
	.loc	1 94 1 epilogue_begin is_stmt 0 @ ../EEPROM/eeprom_sim.c:94:1
	add	sp, #24
	pop	{r7, pc}
.Ltmp30:
	.p2align	2
@ %bb.16:
	.loc	1 0 1                           @ ../EEPROM/eeprom_sim.c:0:1
__arm_cp.2_0:
	.long	gs_u8AllocatedCount
.Lcpi_end2:
	.size	__arm_cp.2_0, .Lcpi_end2-__arm_cp.2_0
__arm_cp.2_1:
	.long	gs_BufferPool
.Lcpi_end3:
	.size	__arm_cp.2_1, .Lcpi_end3-__arm_cp.2_1
__arm_cp.2_2:
	.long	.L.str
.Lcpi_end4:
	.size	__arm_cp.2_2, .Lcpi_end4-__arm_cp.2_2
.Lfunc_end2:
	.size	Init_EEPROM, .Lfunc_end2-Init_EEPROM
	.cfi_endproc
	.cantunwind
	.fnend
                                        @ -- End function
	.section	.text.Search_Valid_Page,"ax",%progbits
	.p2align	2                               @ -- Begin function Search_Valid_Page
	.type	Search_Valid_Page,%function
	.code	16                              @ @Search_Valid_Page
	.thumb_func
Search_Valid_Page:
.Lfunc_begin3:
	.loc	1 97 0 is_stmt 1                @ ../EEPROM/eeprom_sim.c:97:0
	.fnstart
	.cfi_startproc
@ %bb.0:
	.save	{r7, lr}
	push	{r7, lr}
	.cfi_def_cfa_offset 8
	.cfi_offset lr, -4
	.cfi_offset r7, -8
	.pad	#64
	sub	sp, #64
	.cfi_def_cfa_offset 72
	str	r0, [sp, #60]
.Ltmp31:
	.loc	1 106 5 prologue_end            @ ../EEPROM/eeprom_sim.c:106:5
	bl	FMC_Enable
	movs	r0, #0
.Ltmp32:
	.loc	1 109 11                        @ ../EEPROM/eeprom_sim.c:109:11
	str	r0, [sp, #56]
	.loc	1 109 9 is_stmt 0               @ ../EEPROM/eeprom_sim.c:109:9
	b	.LBB3_1
.LBB3_1:                                @ =>This Inner Loop Header: Depth=1
.Ltmp33:
	.loc	1 109 16                        @ ../EEPROM/eeprom_sim.c:109:16
	ldr	r0, [sp, #56]
	.loc	1 109 20                        @ ../EEPROM/eeprom_sim.c:109:20
	ldr	r1, [sp, #60]
	.loc	1 109 25                        @ ../EEPROM/eeprom_sim.c:109:25
	ldr	r1, [r1, #4]
.Ltmp34:
	.loc	1 109 5                         @ ../EEPROM/eeprom_sim.c:109:5
	cmp	r0, r1
	bhs	.LBB3_4
	b	.LBB3_2
.LBB3_2:                                @   in Loop: Header=BB3_1 Depth=1
.Ltmp35:
	.loc	1 111 53 is_stmt 1              @ ../EEPROM/eeprom_sim.c:111:53
	ldr	r0, [sp, #60]
	.loc	1 111 58 is_stmt 0              @ ../EEPROM/eeprom_sim.c:111:58
	ldr	r0, [r0]
	.loc	1 111 94                        @ ../EEPROM/eeprom_sim.c:111:94
	ldr	r1, [sp, #56]
	.loc	1 111 92                        @ ../EEPROM/eeprom_sim.c:111:92
	lsls	r1, r1, #9
	.loc	1 111 73                        @ ../EEPROM/eeprom_sim.c:111:73
	adds	r0, r0, r1
	.loc	1 111 42                        @ ../EEPROM/eeprom_sim.c:111:42
	bl	FMC_Read
	.loc	1 111 27                        @ ../EEPROM/eeprom_sim.c:111:27
	ldr	r1, [sp, #56]
	.loc	1 111 9                         @ ../EEPROM/eeprom_sim.c:111:9
	lsls	r2, r1, #1
	add	r1, sp, #4
	.loc	1 111 30                        @ ../EEPROM/eeprom_sim.c:111:30
	strh	r0, [r1, r2]
	.loc	1 112 5 is_stmt 1               @ ../EEPROM/eeprom_sim.c:112:5
	b	.LBB3_3
.Ltmp36:
.LBB3_3:                                @   in Loop: Header=BB3_1 Depth=1
	.loc	1 109 40                        @ ../EEPROM/eeprom_sim.c:109:40
	ldr	r0, [sp, #56]
	adds	r0, r0, #1
	str	r0, [sp, #56]
	.loc	1 109 5 is_stmt 0               @ ../EEPROM/eeprom_sim.c:109:5
	b	.LBB3_1
.Ltmp37:
.LBB3_4:
	.loc	1 115 5 is_stmt 1               @ ../EEPROM/eeprom_sim.c:115:5
	ldr	r1, [sp, #60]
	movs	r0, #0
	.loc	1 115 29 is_stmt 0              @ ../EEPROM/eeprom_sim.c:115:29
	str	r0, [r1, #12]
.Ltmp38:
	.loc	1 116 11 is_stmt 1              @ ../EEPROM/eeprom_sim.c:116:11
	str	r0, [sp, #56]
	.loc	1 116 9 is_stmt 0               @ ../EEPROM/eeprom_sim.c:116:9
	b	.LBB3_5
.LBB3_5:                                @ =>This Inner Loop Header: Depth=1
.Ltmp39:
	.loc	1 116 16                        @ ../EEPROM/eeprom_sim.c:116:16
	ldr	r0, [sp, #56]
	.loc	1 116 20                        @ ../EEPROM/eeprom_sim.c:116:20
	ldr	r1, [sp, #60]
	.loc	1 116 25                        @ ../EEPROM/eeprom_sim.c:116:25
	ldr	r1, [r1, #4]
.Ltmp40:
	.loc	1 116 5                         @ ../EEPROM/eeprom_sim.c:116:5
	cmp	r0, r1
	bhs	.LBB3_10
	b	.LBB3_6
.LBB3_6:                                @   in Loop: Header=BB3_5 Depth=1
.Ltmp41:
	.loc	1 118 30 is_stmt 1              @ ../EEPROM/eeprom_sim.c:118:30
	ldr	r0, [sp, #56]
	.loc	1 118 12 is_stmt 0              @ ../EEPROM/eeprom_sim.c:118:12
	lsls	r1, r0, #1
	add	r0, sp, #4
	ldrh	r0, [r0, r1]
	ldr	r1, __arm_cp.3_0
.Ltmp42:
	.loc	1 118 12                        @ ../EEPROM/eeprom_sim.c:118:12
	cmp	r0, r1
	beq	.LBB3_8
	b	.LBB3_7
.LBB3_7:                                @   in Loop: Header=BB3_5 Depth=1
.Ltmp43:
	.loc	1 119 39 is_stmt 1              @ ../EEPROM/eeprom_sim.c:119:39
	ldr	r0, [sp, #56]
	.loc	1 119 13 is_stmt 0              @ ../EEPROM/eeprom_sim.c:119:13
	ldr	r1, [sp, #60]
	.loc	1 119 37                        @ ../EEPROM/eeprom_sim.c:119:37
	str	r0, [r1, #12]
	.loc	1 119 13                        @ ../EEPROM/eeprom_sim.c:119:13
	b	.LBB3_8
.Ltmp44:
.LBB3_8:                                @   in Loop: Header=BB3_5 Depth=1
	.loc	1 120 5 is_stmt 1               @ ../EEPROM/eeprom_sim.c:120:5
	b	.LBB3_9
.Ltmp45:
.LBB3_9:                                @   in Loop: Header=BB3_5 Depth=1
	.loc	1 116 40                        @ ../EEPROM/eeprom_sim.c:116:40
	ldr	r0, [sp, #56]
	adds	r0, r0, #1
	str	r0, [sp, #56]
	.loc	1 116 5 is_stmt 0               @ ../EEPROM/eeprom_sim.c:116:5
	b	.LBB3_5
.Ltmp46:
.LBB3_10:
	.loc	1 123 26 is_stmt 1              @ ../EEPROM/eeprom_sim.c:123:26
	ldr	r0, [sp, #60]
	.loc	1 123 31 is_stmt 0              @ ../EEPROM/eeprom_sim.c:123:31
	ldr	r0, [r0, #12]
	.loc	1 123 8                         @ ../EEPROM/eeprom_sim.c:123:8
	lsls	r1, r0, #1
	add	r0, sp, #4
	ldrh	r0, [r0, r1]
	ldr	r1, __arm_cp.3_0
.Ltmp47:
	.loc	1 123 8                         @ ../EEPROM/eeprom_sim.c:123:8
	cmp	r0, r1
	bne	.LBB3_12
	b	.LBB3_11
.LBB3_11:
.Ltmp48:
	.loc	1 125 21 is_stmt 1              @ ../EEPROM/eeprom_sim.c:125:21
	ldr	r1, [sp, #60]
	.loc	1 125 26 is_stmt 0              @ ../EEPROM/eeprom_sim.c:125:26
	ldr	r0, [r1]
	.loc	1 125 67                        @ ../EEPROM/eeprom_sim.c:125:67
	ldr	r1, [r1, #12]
	.loc	1 125 60                        @ ../EEPROM/eeprom_sim.c:125:60
	lsls	r1, r1, #9
	.loc	1 125 41                        @ ../EEPROM/eeprom_sim.c:125:41
	adds	r0, r0, r1
	ldr	r1, __arm_cp.3_1
	.loc	1 125 9                         @ ../EEPROM/eeprom_sim.c:125:9
	bl	FMC_Write
	.loc	1 126 9 is_stmt 1               @ ../EEPROM/eeprom_sim.c:126:9
	ldr	r1, [sp, #60]
	movs	r0, #2
	.loc	1 126 29 is_stmt 0              @ ../EEPROM/eeprom_sim.c:126:29
	str	r0, [r1, #16]
	.loc	1 127 5 is_stmt 1               @ ../EEPROM/eeprom_sim.c:127:5
	b	.LBB3_32
.Ltmp49:
.LBB3_12:
	.loc	1 131 27                        @ ../EEPROM/eeprom_sim.c:131:27
	ldr	r1, [sp, #60]
	.loc	1 131 32 is_stmt 0              @ ../EEPROM/eeprom_sim.c:131:32
	ldr	r0, [r1]
	.loc	1 131 73                        @ ../EEPROM/eeprom_sim.c:131:73
	ldr	r1, [r1, #12]
	.loc	1 131 66                        @ ../EEPROM/eeprom_sim.c:131:66
	lsls	r1, r1, #9
	.loc	1 131 47                        @ ../EEPROM/eeprom_sim.c:131:47
	adds	r0, r0, r1
	.loc	1 131 16                        @ ../EEPROM/eeprom_sim.c:131:16
	bl	FMC_Read
	.loc	1 131 14                        @ ../EEPROM/eeprom_sim.c:131:14
	str	r0, [sp, #52]
	add	r1, sp, #52
	.loc	1 132 17 is_stmt 1              @ ../EEPROM/eeprom_sim.c:132:17
	ldrh	r2, [r1, #2]
	add	r0, sp, #48
	.loc	1 132 14 is_stmt 0              @ ../EEPROM/eeprom_sim.c:132:14
	strb	r2, [r0]
	.loc	1 133 17 is_stmt 1              @ ../EEPROM/eeprom_sim.c:133:17
	ldrb	r1, [r1, #3]
	add	r2, sp, #44
	.loc	1 133 14 is_stmt 0              @ ../EEPROM/eeprom_sim.c:133:14
	strb	r1, [r2]
.Ltmp50:
	.loc	1 135 12 is_stmt 1              @ ../EEPROM/eeprom_sim.c:135:12
	ldrb	r0, [r0]
.Ltmp51:
	.loc	1 135 12 is_stmt 0              @ ../EEPROM/eeprom_sim.c:135:12
	cmp	r0, #255
	bne	.LBB3_14
	b	.LBB3_13
.LBB3_13:
.Ltmp52:
	.loc	1 137 13 is_stmt 1              @ ../EEPROM/eeprom_sim.c:137:13
	ldr	r1, [sp, #60]
	movs	r0, #2
	.loc	1 137 33 is_stmt 0              @ ../EEPROM/eeprom_sim.c:137:33
	str	r0, [r1, #16]
	.loc	1 138 9 is_stmt 1               @ ../EEPROM/eeprom_sim.c:138:9
	b	.LBB3_31
.Ltmp53:
.LBB3_14:
	.loc	1 0 9 is_stmt 0                 @ ../EEPROM/eeprom_sim.c:0:9
	add	r0, sp, #48
.Ltmp54:
	.loc	1 141 16 is_stmt 1              @ ../EEPROM/eeprom_sim.c:141:16
	ldrb	r0, [r0]
	.loc	1 141 23 is_stmt 0              @ ../EEPROM/eeprom_sim.c:141:23
	ldr	r1, [sp, #60]
	.loc	1 141 28                        @ ../EEPROM/eeprom_sim.c:141:28
	ldr	r1, [r1, #8]
.Ltmp55:
	.loc	1 141 16                        @ ../EEPROM/eeprom_sim.c:141:16
	cmp	r0, r1
	bhs	.LBB3_16
	b	.LBB3_15
.LBB3_15:
.Ltmp56:
	.loc	1 141 70                        @ ../EEPROM/eeprom_sim.c:141:70
	ldr	r0, [sp, #44]
	.loc	1 141 44                        @ ../EEPROM/eeprom_sim.c:141:44
	ldr	r1, [sp, #60]
	.loc	1 141 49                        @ ../EEPROM/eeprom_sim.c:141:49
	ldr	r1, [r1, #20]
	add	r2, sp, #48
	.loc	1 141 62                        @ ../EEPROM/eeprom_sim.c:141:62
	ldrb	r2, [r2]
	.loc	1 141 68                        @ ../EEPROM/eeprom_sim.c:141:68
	strb	r0, [r1, r2]
	.loc	1 141 44                        @ ../EEPROM/eeprom_sim.c:141:44
	b	.LBB3_16
.Ltmp57:
.LBB3_16:
	.loc	1 0 44                          @ ../EEPROM/eeprom_sim.c:0:44
	movs	r0, #4
.Ltmp58:
	.loc	1 143 19 is_stmt 1              @ ../EEPROM/eeprom_sim.c:143:19
	str	r0, [sp, #56]
	.loc	1 143 17 is_stmt 0              @ ../EEPROM/eeprom_sim.c:143:17
	b	.LBB3_17
.LBB3_17:                               @ =>This Inner Loop Header: Depth=1
.Ltmp59:
	.loc	1 143 24                        @ ../EEPROM/eeprom_sim.c:143:24
	ldr	r0, [sp, #56]
.Ltmp60:
	.loc	1 143 13                        @ ../EEPROM/eeprom_sim.c:143:13
	lsrs	r0, r0, #9
	cmp	r0, #0
	bne	.LBB3_30
	b	.LBB3_18
.LBB3_18:                               @   in Loop: Header=BB3_17 Depth=1
.Ltmp61:
	.loc	1 146 35 is_stmt 1              @ ../EEPROM/eeprom_sim.c:146:35
	ldr	r1, [sp, #60]
	.loc	1 146 40 is_stmt 0              @ ../EEPROM/eeprom_sim.c:146:40
	ldr	r0, [r1]
	.loc	1 146 81                        @ ../EEPROM/eeprom_sim.c:146:81
	ldr	r1, [r1, #12]
	.loc	1 146 74                        @ ../EEPROM/eeprom_sim.c:146:74
	lsls	r1, r1, #9
	.loc	1 146 55                        @ ../EEPROM/eeprom_sim.c:146:55
	adds	r0, r0, r1
	.loc	1 146 103                       @ ../EEPROM/eeprom_sim.c:146:103
	ldr	r1, [sp, #56]
	.loc	1 146 101                       @ ../EEPROM/eeprom_sim.c:146:101
	adds	r0, r0, r1
	.loc	1 146 24                        @ ../EEPROM/eeprom_sim.c:146:24
	bl	FMC_Read
	.loc	1 146 22                        @ ../EEPROM/eeprom_sim.c:146:22
	str	r0, [sp, #52]
	.loc	1 147 25 is_stmt 1              @ ../EEPROM/eeprom_sim.c:147:25
	ldr	r1, [sp, #52]
	add	r0, sp, #48
	.loc	1 147 22 is_stmt 0              @ ../EEPROM/eeprom_sim.c:147:22
	strb	r1, [r0]
	.loc	1 148 25 is_stmt 1              @ ../EEPROM/eeprom_sim.c:148:25
	ldr	r1, [sp, #52]
	.loc	1 148 47 is_stmt 0              @ ../EEPROM/eeprom_sim.c:148:47
	lsrs	r1, r1, #8
	add	r2, sp, #44
	.loc	1 148 22                        @ ../EEPROM/eeprom_sim.c:148:22
	strb	r1, [r2]
.Ltmp62:
	.loc	1 150 20 is_stmt 1              @ ../EEPROM/eeprom_sim.c:150:20
	ldrb	r0, [r0]
.Ltmp63:
	.loc	1 150 20 is_stmt 0              @ ../EEPROM/eeprom_sim.c:150:20
	cmp	r0, #255
	bne	.LBB3_20
	b	.LBB3_19
.LBB3_19:
.Ltmp64:
	.loc	1 152 43 is_stmt 1              @ ../EEPROM/eeprom_sim.c:152:43
	ldr	r0, [sp, #56]
	.loc	1 152 21 is_stmt 0              @ ../EEPROM/eeprom_sim.c:152:21
	ldr	r1, [sp, #60]
	.loc	1 152 41                        @ ../EEPROM/eeprom_sim.c:152:41
	str	r0, [r1, #16]
	.loc	1 153 21 is_stmt 1              @ ../EEPROM/eeprom_sim.c:153:21
	b	.LBB3_30
.Ltmp65:
.LBB3_20:                               @   in Loop: Header=BB3_17 Depth=1
	.loc	1 0 21 is_stmt 0                @ ../EEPROM/eeprom_sim.c:0:21
	add	r0, sp, #48
.Ltmp66:
	.loc	1 157 24 is_stmt 1              @ ../EEPROM/eeprom_sim.c:157:24
	ldrb	r0, [r0]
	.loc	1 157 31 is_stmt 0              @ ../EEPROM/eeprom_sim.c:157:31
	ldr	r1, [sp, #60]
	.loc	1 157 36                        @ ../EEPROM/eeprom_sim.c:157:36
	ldr	r1, [r1, #8]
.Ltmp67:
	.loc	1 157 24                        @ ../EEPROM/eeprom_sim.c:157:24
	cmp	r0, r1
	bhs	.LBB3_22
	b	.LBB3_21
.LBB3_21:                               @   in Loop: Header=BB3_17 Depth=1
.Ltmp68:
	.loc	1 157 78                        @ ../EEPROM/eeprom_sim.c:157:78
	ldr	r0, [sp, #44]
	.loc	1 157 52                        @ ../EEPROM/eeprom_sim.c:157:52
	ldr	r1, [sp, #60]
	.loc	1 157 57                        @ ../EEPROM/eeprom_sim.c:157:57
	ldr	r1, [r1, #20]
	add	r2, sp, #48
	.loc	1 157 70                        @ ../EEPROM/eeprom_sim.c:157:70
	ldrb	r2, [r2]
	.loc	1 157 76                        @ ../EEPROM/eeprom_sim.c:157:76
	strb	r0, [r1, r2]
	.loc	1 157 52                        @ ../EEPROM/eeprom_sim.c:157:52
	b	.LBB3_22
.Ltmp69:
.LBB3_22:                               @   in Loop: Header=BB3_17 Depth=1
	.loc	1 0 52                          @ ../EEPROM/eeprom_sim.c:0:52
	b	.LBB3_23
.LBB3_23:                               @   in Loop: Header=BB3_17 Depth=1
	add	r1, sp, #52
	.loc	1 161 25 is_stmt 1              @ ../EEPROM/eeprom_sim.c:161:25
	ldrh	r2, [r1, #2]
	add	r0, sp, #48
	.loc	1 161 22 is_stmt 0              @ ../EEPROM/eeprom_sim.c:161:22
	strb	r2, [r0]
	.loc	1 162 25 is_stmt 1              @ ../EEPROM/eeprom_sim.c:162:25
	ldrb	r1, [r1, #3]
	add	r2, sp, #44
	.loc	1 162 22 is_stmt 0              @ ../EEPROM/eeprom_sim.c:162:22
	strb	r1, [r2]
.Ltmp70:
	.loc	1 164 20 is_stmt 1              @ ../EEPROM/eeprom_sim.c:164:20
	ldrb	r0, [r0]
.Ltmp71:
	.loc	1 164 20 is_stmt 0              @ ../EEPROM/eeprom_sim.c:164:20
	cmp	r0, #255
	bne	.LBB3_25
	b	.LBB3_24
.LBB3_24:
.Ltmp72:
	.loc	1 166 43 is_stmt 1              @ ../EEPROM/eeprom_sim.c:166:43
	ldr	r0, [sp, #56]
	.loc	1 166 45 is_stmt 0              @ ../EEPROM/eeprom_sim.c:166:45
	adds	r0, r0, #2
	.loc	1 166 21                        @ ../EEPROM/eeprom_sim.c:166:21
	ldr	r1, [sp, #60]
	.loc	1 166 41                        @ ../EEPROM/eeprom_sim.c:166:41
	str	r0, [r1, #16]
	.loc	1 167 21 is_stmt 1              @ ../EEPROM/eeprom_sim.c:167:21
	b	.LBB3_30
.Ltmp73:
.LBB3_25:                               @   in Loop: Header=BB3_17 Depth=1
	.loc	1 0 21 is_stmt 0                @ ../EEPROM/eeprom_sim.c:0:21
	add	r0, sp, #48
.Ltmp74:
	.loc	1 171 24 is_stmt 1              @ ../EEPROM/eeprom_sim.c:171:24
	ldrb	r0, [r0]
	.loc	1 171 31 is_stmt 0              @ ../EEPROM/eeprom_sim.c:171:31
	ldr	r1, [sp, #60]
	.loc	1 171 36                        @ ../EEPROM/eeprom_sim.c:171:36
	ldr	r1, [r1, #8]
.Ltmp75:
	.loc	1 171 24                        @ ../EEPROM/eeprom_sim.c:171:24
	cmp	r0, r1
	bhs	.LBB3_27
	b	.LBB3_26
.LBB3_26:                               @   in Loop: Header=BB3_17 Depth=1
.Ltmp76:
	.loc	1 171 78                        @ ../EEPROM/eeprom_sim.c:171:78
	ldr	r0, [sp, #44]
	.loc	1 171 52                        @ ../EEPROM/eeprom_sim.c:171:52
	ldr	r1, [sp, #60]
	.loc	1 171 57                        @ ../EEPROM/eeprom_sim.c:171:57
	ldr	r1, [r1, #20]
	add	r2, sp, #48
	.loc	1 171 70                        @ ../EEPROM/eeprom_sim.c:171:70
	ldrb	r2, [r2]
	.loc	1 171 76                        @ ../EEPROM/eeprom_sim.c:171:76
	strb	r0, [r1, r2]
	.loc	1 171 52                        @ ../EEPROM/eeprom_sim.c:171:52
	b	.LBB3_27
.Ltmp77:
.LBB3_27:                               @   in Loop: Header=BB3_17 Depth=1
	.loc	1 0 52                          @ ../EEPROM/eeprom_sim.c:0:52
	b	.LBB3_28
.LBB3_28:                               @   in Loop: Header=BB3_17 Depth=1
	.loc	1 173 13 is_stmt 1              @ ../EEPROM/eeprom_sim.c:173:13
	b	.LBB3_29
.Ltmp78:
.LBB3_29:                               @   in Loop: Header=BB3_17 Depth=1
	.loc	1 143 47                        @ ../EEPROM/eeprom_sim.c:143:47
	ldr	r0, [sp, #56]
	adds	r0, r0, #4
	str	r0, [sp, #56]
	.loc	1 143 13 is_stmt 0              @ ../EEPROM/eeprom_sim.c:143:13
	b	.LBB3_17
.Ltmp79:
.LBB3_30:
	.loc	1 0 13                          @ ../EEPROM/eeprom_sim.c:0:13
	b	.LBB3_31
.LBB3_31:
	b	.LBB3_32
.LBB3_32:
	.loc	1 177 1 epilogue_begin is_stmt 1 @ ../EEPROM/eeprom_sim.c:177:1
	add	sp, #64
	pop	{r7, pc}
.Ltmp80:
	.p2align	2
@ %bb.33:
	.loc	1 0 1 is_stmt 0                 @ ../EEPROM/eeprom_sim.c:0:1
__arm_cp.3_0:
	.long	65535                           @ 0xffff
.Lcpi_end5:
	.size	__arm_cp.3_0, .Lcpi_end5-__arm_cp.3_0
__arm_cp.3_1:
	.long	4294901760                      @ 0xffff0000
.Lcpi_end6:
	.size	__arm_cp.3_1, .Lcpi_end6-__arm_cp.3_1
.Lfunc_end3:
	.size	Search_Valid_Page, .Lfunc_end3-Search_Valid_Page
	.cfi_endproc
	.cantunwind
	.fnend
                                        @ -- End function
	.section	.text.Read_Data,"ax",%progbits
	.hidden	Read_Data                       @ -- Begin function Read_Data
	.globl	Read_Data
	.p2align	1
	.type	Read_Data,%function
	.code	16                              @ @Read_Data
	.thumb_func
Read_Data:
.Lfunc_begin4:
	.loc	1 180 0 is_stmt 1               @ ../EEPROM/eeprom_sim.c:180:0
	.fnstart
	.cfi_startproc
@ %bb.0:
	.pad	#16
	sub	sp, #16
	.cfi_def_cfa_offset 16
                                        @ kill: def $r3 killed $r1
	str	r0, [sp, #8]
	add	r0, sp, #4
	strb	r1, [r0]
	str	r2, [sp]
.Ltmp81:
	.loc	1 181 8 prologue_end            @ ../EEPROM/eeprom_sim.c:181:8
	ldrb	r0, [r0]
	.loc	1 181 17 is_stmt 0              @ ../EEPROM/eeprom_sim.c:181:17
	ldr	r1, [sp, #8]
	.loc	1 181 22                        @ ../EEPROM/eeprom_sim.c:181:22
	ldr	r1, [r1, #8]
.Ltmp82:
	.loc	1 181 8                         @ ../EEPROM/eeprom_sim.c:181:8
	cmp	r0, r1
	blo	.LBB4_2
	b	.LBB4_1
.LBB4_1:
	.loc	1 0 8                           @ ../EEPROM/eeprom_sim.c:0:8
	movs	r0, #3
.Ltmp83:
	.loc	1 181 38                        @ ../EEPROM/eeprom_sim.c:181:38
	str	r0, [sp, #12]
	b	.LBB4_3
.Ltmp84:
.LBB4_2:
	.loc	1 182 13 is_stmt 1              @ ../EEPROM/eeprom_sim.c:182:13
	ldr	r0, [sp, #8]
	.loc	1 182 18 is_stmt 0              @ ../EEPROM/eeprom_sim.c:182:18
	ldr	r0, [r0, #20]
	add	r1, sp, #4
	.loc	1 182 31                        @ ../EEPROM/eeprom_sim.c:182:31
	ldrb	r1, [r1]
	.loc	1 182 13                        @ ../EEPROM/eeprom_sim.c:182:13
	ldrb	r0, [r0, r1]
	.loc	1 182 6                         @ ../EEPROM/eeprom_sim.c:182:6
	ldr	r1, [sp]
	.loc	1 182 11                        @ ../EEPROM/eeprom_sim.c:182:11
	strb	r0, [r1]
	movs	r0, #0
	.loc	1 183 5 is_stmt 1               @ ../EEPROM/eeprom_sim.c:183:5
	str	r0, [sp, #12]
	b	.LBB4_3
.LBB4_3:
	.loc	1 184 1                         @ ../EEPROM/eeprom_sim.c:184:1
	ldr	r0, [sp, #12]
	.loc	1 184 1 epilogue_begin is_stmt 0 @ ../EEPROM/eeprom_sim.c:184:1
	add	sp, #16
	bx	lr
.Ltmp85:
.Lfunc_end4:
	.size	Read_Data, .Lfunc_end4-Read_Data
	.cfi_endproc
	.cantunwind
	.fnend
                                        @ -- End function
	.section	.text.Write_Data,"ax",%progbits
	.hidden	Write_Data                      @ -- Begin function Write_Data
	.globl	Write_Data
	.p2align	2
	.type	Write_Data,%function
	.code	16                              @ @Write_Data
	.thumb_func
Write_Data:
.Lfunc_begin5:
	.loc	1 187 0 is_stmt 1               @ ../EEPROM/eeprom_sim.c:187:0
	.fnstart
	.cfi_startproc
@ %bb.0:
	.save	{r7, lr}
	push	{r7, lr}
	.cfi_def_cfa_offset 8
	.cfi_offset lr, -4
	.cfi_offset r7, -8
	.pad	#32
	sub	sp, #32
	.cfi_def_cfa_offset 40
                                        @ kill: def $r3 killed $r2
                                        @ kill: def $r3 killed $r1
	str	r0, [sp, #24]
	add	r0, sp, #20
	strb	r1, [r0]
	add	r1, sp, #16
	strb	r2, [r1]
	movs	r1, #0
.Ltmp86:
	.loc	1 188 14 prologue_end           @ ../EEPROM/eeprom_sim.c:188:14
	str	r1, [sp, #12]
.Ltmp87:
	.loc	1 191 8                         @ ../EEPROM/eeprom_sim.c:191:8
	ldrb	r0, [r0]
	.loc	1 191 17 is_stmt 0              @ ../EEPROM/eeprom_sim.c:191:17
	ldr	r1, [sp, #24]
	.loc	1 191 22                        @ ../EEPROM/eeprom_sim.c:191:22
	ldr	r1, [r1, #8]
.Ltmp88:
	.loc	1 191 8                         @ ../EEPROM/eeprom_sim.c:191:8
	cmp	r0, r1
	blo	.LBB5_2
	b	.LBB5_1
.LBB5_1:
	.loc	1 0 8                           @ ../EEPROM/eeprom_sim.c:0:8
	movs	r0, #3
.Ltmp89:
	.loc	1 191 38                        @ ../EEPROM/eeprom_sim.c:191:38
	str	r0, [sp, #28]
	b	.LBB5_11
.Ltmp90:
.LBB5_2:
	.loc	1 192 8 is_stmt 1               @ ../EEPROM/eeprom_sim.c:192:8
	ldr	r0, [sp, #24]
	.loc	1 192 13 is_stmt 0              @ ../EEPROM/eeprom_sim.c:192:13
	ldr	r0, [r0, #20]
	add	r1, sp, #20
	.loc	1 192 26                        @ ../EEPROM/eeprom_sim.c:192:26
	ldrb	r1, [r1]
	.loc	1 192 8                         @ ../EEPROM/eeprom_sim.c:192:8
	ldrb	r0, [r0, r1]
	add	r1, sp, #16
	.loc	1 192 36                        @ ../EEPROM/eeprom_sim.c:192:36
	ldrb	r1, [r1]
.Ltmp91:
	.loc	1 192 8                         @ ../EEPROM/eeprom_sim.c:192:8
	cmp	r0, r1
	bne	.LBB5_4
	b	.LBB5_3
.LBB5_3:
	.loc	1 0 8                           @ ../EEPROM/eeprom_sim.c:0:8
	movs	r0, #0
.Ltmp92:
	.loc	1 192 42                        @ ../EEPROM/eeprom_sim.c:192:42
	str	r0, [sp, #28]
	b	.LBB5_11
.Ltmp93:
.LBB5_4:
	.loc	1 194 5 is_stmt 1               @ ../EEPROM/eeprom_sim.c:194:5
	bl	FMC_Enable
	.loc	1 196 19                        @ ../EEPROM/eeprom_sim.c:196:19
	ldr	r1, [sp, #24]
	.loc	1 196 24 is_stmt 0              @ ../EEPROM/eeprom_sim.c:196:24
	ldr	r0, [r1]
	.loc	1 196 65                        @ ../EEPROM/eeprom_sim.c:196:65
	ldr	r1, [r1, #12]
	.loc	1 196 58                        @ ../EEPROM/eeprom_sim.c:196:58
	lsls	r1, r1, #9
	.loc	1 196 39                        @ ../EEPROM/eeprom_sim.c:196:39
	adds	r0, r0, r1
	.loc	1 196 17                        @ ../EEPROM/eeprom_sim.c:196:17
	str	r0, [sp, #8]
.Ltmp94:
	.loc	1 198 9 is_stmt 1               @ ../EEPROM/eeprom_sim.c:198:9
	ldr	r0, [sp, #24]
.Ltmp95:
	.loc	1 198 8 is_stmt 0               @ ../EEPROM/eeprom_sim.c:198:8
	ldrb	r0, [r0, #16]
	lsls	r0, r0, #30
	cbnz	r0, .LBB5_6
	b	.LBB5_5
.LBB5_5:
	.loc	1 0 8                           @ ../EEPROM/eeprom_sim.c:0:8
	add	r0, sp, #20
.Ltmp96:
	.loc	1 200 30 is_stmt 1              @ ../EEPROM/eeprom_sim.c:200:30
	str	r0, [sp, #4]                    @ 4-byte Spill
	ldrb	r0, [r0]
	.loc	1 200 56 is_stmt 0              @ ../EEPROM/eeprom_sim.c:200:56
	ldr	r1, [sp, #16]
	.loc	1 200 61                        @ ../EEPROM/eeprom_sim.c:200:61
	lsls	r1, r1, #8
	.loc	1 200 27                        @ ../EEPROM/eeprom_sim.c:200:27
	adds	r0, r0, r1
	ldr	r1, __arm_cp.5_0
	.loc	1 200 53                        @ ../EEPROM/eeprom_sim.c:200:53
	orrs	r0, r1
	.loc	1 200 14                        @ ../EEPROM/eeprom_sim.c:200:14
	str	r0, [sp, #12]
	.loc	1 201 21 is_stmt 1              @ ../EEPROM/eeprom_sim.c:201:21
	ldr	r0, [sp, #8]
	.loc	1 201 35 is_stmt 0              @ ../EEPROM/eeprom_sim.c:201:35
	ldr	r1, [sp, #24]
	.loc	1 201 40                        @ ../EEPROM/eeprom_sim.c:201:40
	ldr	r1, [r1, #16]
	.loc	1 201 33                        @ ../EEPROM/eeprom_sim.c:201:33
	adds	r0, r0, r1
	.loc	1 201 56                        @ ../EEPROM/eeprom_sim.c:201:56
	ldr	r1, [sp, #12]
	.loc	1 201 9                         @ ../EEPROM/eeprom_sim.c:201:9
	bl	FMC_Write
	ldr	r2, [sp, #4]                    @ 4-byte Reload
	.loc	1 202 36 is_stmt 1              @ ../EEPROM/eeprom_sim.c:202:36
	ldr	r0, [sp, #16]
	.loc	1 202 9 is_stmt 0               @ ../EEPROM/eeprom_sim.c:202:9
	ldr	r1, [sp, #24]
	.loc	1 202 14                        @ ../EEPROM/eeprom_sim.c:202:14
	ldr	r1, [r1, #20]
	.loc	1 202 27                        @ ../EEPROM/eeprom_sim.c:202:27
	ldrb	r2, [r2]
	.loc	1 202 34                        @ ../EEPROM/eeprom_sim.c:202:34
	strb	r0, [r1, r2]
	.loc	1 203 5 is_stmt 1               @ ../EEPROM/eeprom_sim.c:203:5
	b	.LBB5_7
.Ltmp97:
.LBB5_6:
	.loc	1 206 27                        @ ../EEPROM/eeprom_sim.c:206:27
	ldr	r1, [sp, #8]
	.loc	1 206 42 is_stmt 0              @ ../EEPROM/eeprom_sim.c:206:42
	ldr	r0, [sp, #24]
	.loc	1 206 47                        @ ../EEPROM/eeprom_sim.c:206:47
	ldr	r0, [r0, #16]
	.loc	1 206 39                        @ ../EEPROM/eeprom_sim.c:206:39
	adds	r0, r0, r1
	subs	r0, r0, #2
	.loc	1 206 16                        @ ../EEPROM/eeprom_sim.c:206:16
	bl	FMC_Read
	.loc	1 206 14                        @ ../EEPROM/eeprom_sim.c:206:14
	str	r0, [sp, #12]
	add	r0, sp, #12
	.loc	1 207 14 is_stmt 1              @ ../EEPROM/eeprom_sim.c:207:14
	ldrh	r0, [r0]
	str	r0, [sp, #12]
	add	r0, sp, #20
	.loc	1 208 18                        @ ../EEPROM/eeprom_sim.c:208:18
	str	r0, [sp]                        @ 4-byte Spill
	ldrb	r0, [r0]
	.loc	1 208 24 is_stmt 0              @ ../EEPROM/eeprom_sim.c:208:24
	lsls	r0, r0, #16
	.loc	1 208 45                        @ ../EEPROM/eeprom_sim.c:208:45
	ldr	r1, [sp, #16]
	.loc	1 208 50                        @ ../EEPROM/eeprom_sim.c:208:50
	lsls	r1, r1, #24
	.loc	1 208 42                        @ ../EEPROM/eeprom_sim.c:208:42
	adds	r1, r0, r1
	.loc	1 208 14                        @ ../EEPROM/eeprom_sim.c:208:14
	ldr	r0, [sp, #12]
	orrs	r0, r1
	str	r0, [sp, #12]
	.loc	1 209 21 is_stmt 1              @ ../EEPROM/eeprom_sim.c:209:21
	ldr	r1, [sp, #8]
	.loc	1 209 36 is_stmt 0              @ ../EEPROM/eeprom_sim.c:209:36
	ldr	r0, [sp, #24]
	.loc	1 209 41                        @ ../EEPROM/eeprom_sim.c:209:41
	ldr	r0, [r0, #16]
	.loc	1 209 33                        @ ../EEPROM/eeprom_sim.c:209:33
	adds	r0, r0, r1
	subs	r0, r0, #2
	.loc	1 209 62                        @ ../EEPROM/eeprom_sim.c:209:62
	ldr	r1, [sp, #12]
	.loc	1 209 9                         @ ../EEPROM/eeprom_sim.c:209:9
	bl	FMC_Write
	ldr	r2, [sp]                        @ 4-byte Reload
	.loc	1 210 36 is_stmt 1              @ ../EEPROM/eeprom_sim.c:210:36
	ldr	r0, [sp, #16]
	.loc	1 210 9 is_stmt 0               @ ../EEPROM/eeprom_sim.c:210:9
	ldr	r1, [sp, #24]
	.loc	1 210 14                        @ ../EEPROM/eeprom_sim.c:210:14
	ldr	r1, [r1, #20]
	.loc	1 210 27                        @ ../EEPROM/eeprom_sim.c:210:27
	ldrb	r2, [r2]
	.loc	1 210 34                        @ ../EEPROM/eeprom_sim.c:210:34
	strb	r0, [r1, r2]
	b	.LBB5_7
.Ltmp98:
.LBB5_7:
	.loc	1 213 8 is_stmt 1               @ ../EEPROM/eeprom_sim.c:213:8
	ldr	r0, [sp, #24]
	.loc	1 213 13 is_stmt 0              @ ../EEPROM/eeprom_sim.c:213:13
	ldr	r0, [r0, #16]
.Ltmp99:
	.loc	1 213 8                         @ ../EEPROM/eeprom_sim.c:213:8
	lsrs	r0, r0, #1
	cmp	r0, #255
	blo	.LBB5_9
	b	.LBB5_8
.LBB5_8:
.Ltmp100:
	.loc	1 215 26 is_stmt 1              @ ../EEPROM/eeprom_sim.c:215:26
	ldr	r0, [sp, #24]
	.loc	1 215 9 is_stmt 0               @ ../EEPROM/eeprom_sim.c:215:9
	bl	Manage_Next_Page
	.loc	1 216 5 is_stmt 1               @ ../EEPROM/eeprom_sim.c:216:5
	b	.LBB5_10
.Ltmp101:
.LBB5_9:
	.loc	1 219 9                         @ ../EEPROM/eeprom_sim.c:219:9
	ldr	r1, [sp, #24]
	.loc	1 219 29 is_stmt 0              @ ../EEPROM/eeprom_sim.c:219:29
	ldr	r0, [r1, #16]
	adds	r0, r0, #2
	str	r0, [r1, #16]
	b	.LBB5_10
.Ltmp102:
.LBB5_10:
	.loc	1 0 29                          @ ../EEPROM/eeprom_sim.c:0:29
	movs	r0, #0
	.loc	1 221 5 is_stmt 1               @ ../EEPROM/eeprom_sim.c:221:5
	str	r0, [sp, #28]
	b	.LBB5_11
.LBB5_11:
	.loc	1 222 1                         @ ../EEPROM/eeprom_sim.c:222:1
	ldr	r0, [sp, #28]
	.loc	1 222 1 epilogue_begin is_stmt 0 @ ../EEPROM/eeprom_sim.c:222:1
	add	sp, #32
	pop	{r7, pc}
.Ltmp103:
	.p2align	2
@ %bb.12:
	.loc	1 0 1                           @ ../EEPROM/eeprom_sim.c:0:1
__arm_cp.5_0:
	.long	4294901760                      @ 0xffff0000
.Lcpi_end7:
	.size	__arm_cp.5_0, .Lcpi_end7-__arm_cp.5_0
.Lfunc_end5:
	.size	Write_Data, .Lfunc_end5-Write_Data
	.cfi_endproc
	.cantunwind
	.fnend
                                        @ -- End function
	.section	.text.Manage_Next_Page,"ax",%progbits
	.p2align	2                               @ -- Begin function Manage_Next_Page
	.type	Manage_Next_Page,%function
	.code	16                              @ @Manage_Next_Page
	.thumb_func
Manage_Next_Page:
.Lfunc_begin6:
	.loc	1 225 0 is_stmt 1               @ ../EEPROM/eeprom_sim.c:225:0
	.fnstart
	.cfi_startproc
@ %bb.0:
	.save	{r7, lr}
	push	{r7, lr}
	.cfi_def_cfa_offset 8
	.cfi_offset lr, -4
	.cfi_offset r7, -8
	.pad	#32
	sub	sp, #32
	.cfi_def_cfa_offset 40
	str	r0, [sp, #28]
	movs	r0, #0
.Ltmp104:
	.loc	1 226 14 prologue_end           @ ../EEPROM/eeprom_sim.c:226:14
	str	r0, [sp, #24]
	.loc	1 226 33 is_stmt 0              @ ../EEPROM/eeprom_sim.c:226:33
	str	r0, [sp, #12]
	.loc	1 226 43                        @ ../EEPROM/eeprom_sim.c:226:43
	str	r0, [sp, #8]
	.loc	1 229 5 is_stmt 1               @ ../EEPROM/eeprom_sim.c:229:5
	bl	FMC_Enable
	.loc	1 231 26                        @ ../EEPROM/eeprom_sim.c:231:26
	ldr	r1, [sp, #28]
	.loc	1 231 31 is_stmt 0              @ ../EEPROM/eeprom_sim.c:231:31
	ldr	r0, [r1]
	.loc	1 231 72                        @ ../EEPROM/eeprom_sim.c:231:72
	ldr	r1, [r1, #12]
	.loc	1 231 65                        @ ../EEPROM/eeprom_sim.c:231:65
	lsls	r1, r1, #9
	.loc	1 231 46                        @ ../EEPROM/eeprom_sim.c:231:46
	adds	r0, r0, r1
	.loc	1 231 15                        @ ../EEPROM/eeprom_sim.c:231:15
	bl	FMC_Read
	.loc	1 231 13                        @ ../EEPROM/eeprom_sim.c:231:13
	str	r0, [sp, #16]
.Ltmp105:
	.loc	1 233 9 is_stmt 1               @ ../EEPROM/eeprom_sim.c:233:9
	ldr	r1, [sp, #28]
	.loc	1 233 14 is_stmt 0              @ ../EEPROM/eeprom_sim.c:233:14
	ldr	r0, [r1, #12]
	.loc	1 233 33                        @ ../EEPROM/eeprom_sim.c:233:33
	adds	r0, r0, #1
	.loc	1 233 46                        @ ../EEPROM/eeprom_sim.c:233:46
	ldr	r1, [r1, #4]
.Ltmp106:
	.loc	1 233 8                         @ ../EEPROM/eeprom_sim.c:233:8
	cmp	r0, r1
	bne	.LBB6_2
	b	.LBB6_1
.LBB6_1:
	.loc	1 0 8                           @ ../EEPROM/eeprom_sim.c:0:8
	movs	r0, #0
.Ltmp107:
	.loc	1 235 18 is_stmt 1              @ ../EEPROM/eeprom_sim.c:235:18
	str	r0, [sp, #4]
	.loc	1 236 16                        @ ../EEPROM/eeprom_sim.c:236:16
	ldr	r0, [sp, #16]
	adds	r0, r0, #1
	str	r0, [sp, #16]
	.loc	1 237 5                         @ ../EEPROM/eeprom_sim.c:237:5
	b	.LBB6_3
.Ltmp108:
.LBB6_2:
	.loc	1 240 20                        @ ../EEPROM/eeprom_sim.c:240:20
	ldr	r0, [sp, #28]
	.loc	1 240 25 is_stmt 0              @ ../EEPROM/eeprom_sim.c:240:25
	ldr	r0, [r0, #12]
	.loc	1 240 44                        @ ../EEPROM/eeprom_sim.c:240:44
	adds	r0, r0, #1
	.loc	1 240 18                        @ ../EEPROM/eeprom_sim.c:240:18
	str	r0, [sp, #4]
	b	.LBB6_3
.Ltmp109:
.LBB6_3:
	.loc	1 243 21 is_stmt 1              @ ../EEPROM/eeprom_sim.c:243:21
	ldr	r0, [sp, #28]
	.loc	1 243 26 is_stmt 0              @ ../EEPROM/eeprom_sim.c:243:26
	ldr	r0, [r0]
	.loc	1 243 62                        @ ../EEPROM/eeprom_sim.c:243:62
	ldr	r1, [sp, #4]
	.loc	1 243 60                        @ ../EEPROM/eeprom_sim.c:243:60
	lsls	r1, r1, #9
	.loc	1 243 41                        @ ../EEPROM/eeprom_sim.c:243:41
	adds	r0, r0, r1
	.loc	1 243 19                        @ ../EEPROM/eeprom_sim.c:243:19
	str	r0, [sp]
	.loc	1 247 5 is_stmt 1               @ ../EEPROM/eeprom_sim.c:247:5
	b	.LBB6_4
.LBB6_4:                                @ =>This Inner Loop Header: Depth=1
.Ltmp110:
	.loc	1 249 13                        @ ../EEPROM/eeprom_sim.c:249:13
	ldr	r0, [sp, #24]
	.loc	1 249 18 is_stmt 0              @ ../EEPROM/eeprom_sim.c:249:18
	ldr	r1, [sp, #28]
	.loc	1 249 23                        @ ../EEPROM/eeprom_sim.c:249:23
	ldr	r1, [r1, #8]
.Ltmp111:
	.loc	1 249 13                        @ ../EEPROM/eeprom_sim.c:249:13
	cmp	r0, r1
	blo	.LBB6_6
	b	.LBB6_5
.LBB6_5:
	.loc	1 0 13                          @ ../EEPROM/eeprom_sim.c:0:13
	movs	r0, #0
.Ltmp112:
	.loc	1 249 42                        @ ../EEPROM/eeprom_sim.c:249:42
	str	r0, [sp, #24]
	.loc	1 249 46                        @ ../EEPROM/eeprom_sim.c:249:46
	b	.LBB6_10
.Ltmp113:
.LBB6_6:                                @   in Loop: Header=BB6_4 Depth=1
	.loc	1 251 12 is_stmt 1              @ ../EEPROM/eeprom_sim.c:251:12
	ldr	r0, [sp, #28]
	.loc	1 251 17 is_stmt 0              @ ../EEPROM/eeprom_sim.c:251:17
	ldr	r0, [r0, #20]
	.loc	1 251 30                        @ ../EEPROM/eeprom_sim.c:251:30
	ldr	r1, [sp, #24]
	.loc	1 251 12                        @ ../EEPROM/eeprom_sim.c:251:12
	ldrb	r0, [r0, r1]
.Ltmp114:
	.loc	1 251 12                        @ ../EEPROM/eeprom_sim.c:251:12
	cmp	r0, #255
	bne	.LBB6_8
	b	.LBB6_7
.LBB6_7:                                @   in Loop: Header=BB6_4 Depth=1
.Ltmp115:
	.loc	1 253 14 is_stmt 1              @ ../EEPROM/eeprom_sim.c:253:14
	ldr	r0, [sp, #24]
	adds	r0, r0, #1
	str	r0, [sp, #24]
	.loc	1 254 9                         @ ../EEPROM/eeprom_sim.c:254:9
	b	.LBB6_9
.Ltmp116:
.LBB6_8:
	.loc	1 0 9 is_stmt 0                 @ ../EEPROM/eeprom_sim.c:0:9
	add	r0, sp, #16
.Ltmp117:
	.loc	1 258 21 is_stmt 1              @ ../EEPROM/eeprom_sim.c:258:21
	ldrh	r0, [r0]
	str	r0, [sp, #16]
	.loc	1 259 25                        @ ../EEPROM/eeprom_sim.c:259:25
	ldr	r2, [sp, #24]
	.loc	1 259 27 is_stmt 0              @ ../EEPROM/eeprom_sim.c:259:27
	lsls	r1, r2, #16
	.loc	1 259 48                        @ ../EEPROM/eeprom_sim.c:259:48
	ldr	r0, [sp, #28]
	.loc	1 259 53                        @ ../EEPROM/eeprom_sim.c:259:53
	ldr	r0, [r0, #20]
	.loc	1 259 48                        @ ../EEPROM/eeprom_sim.c:259:48
	ldrb	r0, [r0, r2]
	.loc	1 259 69                        @ ../EEPROM/eeprom_sim.c:259:69
	lsls	r0, r0, #24
	.loc	1 259 45                        @ ../EEPROM/eeprom_sim.c:259:45
	orrs	r1, r0
	.loc	1 259 21                        @ ../EEPROM/eeprom_sim.c:259:21
	ldr	r0, [sp, #16]
	orrs	r0, r1
	str	r0, [sp, #16]
	.loc	1 260 25 is_stmt 1              @ ../EEPROM/eeprom_sim.c:260:25
	ldr	r0, [sp]
	.loc	1 260 40 is_stmt 0              @ ../EEPROM/eeprom_sim.c:260:40
	ldr	r1, [sp, #16]
	.loc	1 260 13                        @ ../EEPROM/eeprom_sim.c:260:13
	bl	FMC_Write
	.loc	1 261 14 is_stmt 1              @ ../EEPROM/eeprom_sim.c:261:14
	ldr	r0, [sp, #24]
	adds	r0, r0, #1
	str	r0, [sp, #24]
	.loc	1 262 13                        @ ../EEPROM/eeprom_sim.c:262:13
	b	.LBB6_10
.Ltmp118:
.LBB6_9:                                @   in Loop: Header=BB6_4 Depth=1
	.loc	1 247 5                         @ ../EEPROM/eeprom_sim.c:247:5
	b	.LBB6_4
.LBB6_10:
	.loc	1 0 5 is_stmt 0                 @ ../EEPROM/eeprom_sim.c:0:5
	movs	r0, #4
.Ltmp119:
	.loc	1 267 11 is_stmt 1              @ ../EEPROM/eeprom_sim.c:267:11
	str	r0, [sp, #20]
	.loc	1 267 9 is_stmt 0               @ ../EEPROM/eeprom_sim.c:267:9
	b	.LBB6_11
.LBB6_11:                               @ =>This Inner Loop Header: Depth=1
.Ltmp120:
	.loc	1 267 16                        @ ../EEPROM/eeprom_sim.c:267:16
	ldr	r0, [sp, #24]
	.loc	1 267 20                        @ ../EEPROM/eeprom_sim.c:267:20
	ldr	r1, [sp, #28]
	.loc	1 267 25                        @ ../EEPROM/eeprom_sim.c:267:25
	ldr	r1, [r1, #8]
.Ltmp121:
	.loc	1 267 5                         @ ../EEPROM/eeprom_sim.c:267:5
	cmp	r0, r1
	bhs	.LBB6_19
	b	.LBB6_12
.LBB6_12:                               @   in Loop: Header=BB6_11 Depth=1
.Ltmp122:
	.loc	1 269 12 is_stmt 1              @ ../EEPROM/eeprom_sim.c:269:12
	ldr	r0, [sp, #28]
	.loc	1 269 17 is_stmt 0              @ ../EEPROM/eeprom_sim.c:269:17
	ldr	r0, [r0, #20]
	.loc	1 269 30                        @ ../EEPROM/eeprom_sim.c:269:30
	ldr	r1, [sp, #24]
	.loc	1 269 12                        @ ../EEPROM/eeprom_sim.c:269:12
	ldrb	r0, [r0, r1]
.Ltmp123:
	.loc	1 269 12                        @ ../EEPROM/eeprom_sim.c:269:12
	cmp	r0, #255
	bne	.LBB6_14
	b	.LBB6_13
.LBB6_13:                               @   in Loop: Header=BB6_11 Depth=1
.Ltmp124:
	.loc	1 269 42                        @ ../EEPROM/eeprom_sim.c:269:42
	b	.LBB6_18
.Ltmp125:
.LBB6_14:                               @   in Loop: Header=BB6_11 Depth=1
	.loc	1 271 12 is_stmt 1              @ ../EEPROM/eeprom_sim.c:271:12
	ldr	r0, [sp, #8]
.Ltmp126:
	.loc	1 271 12 is_stmt 0              @ ../EEPROM/eeprom_sim.c:271:12
	cbnz	r0, .LBB6_16
	b	.LBB6_15
.LBB6_15:                               @   in Loop: Header=BB6_11 Depth=1
	.loc	1 0 12                          @ ../EEPROM/eeprom_sim.c:0:12
	ldr	r0, __arm_cp.6_0
.Ltmp127:
	.loc	1 273 18 is_stmt 1              @ ../EEPROM/eeprom_sim.c:273:18
	str	r0, [sp, #12]
	.loc	1 274 22                        @ ../EEPROM/eeprom_sim.c:274:22
	ldr	r1, [sp, #24]
	.loc	1 274 44 is_stmt 0              @ ../EEPROM/eeprom_sim.c:274:44
	ldr	r0, [sp, #28]
	.loc	1 274 49                        @ ../EEPROM/eeprom_sim.c:274:49
	ldr	r0, [r0, #20]
	.loc	1 274 44                        @ ../EEPROM/eeprom_sim.c:274:44
	ldrb	r0, [r0, r1]
	.loc	1 274 65                        @ ../EEPROM/eeprom_sim.c:274:65
	lsls	r0, r0, #8
	.loc	1 274 41                        @ ../EEPROM/eeprom_sim.c:274:41
	orrs	r1, r0
	.loc	1 274 18                        @ ../EEPROM/eeprom_sim.c:274:18
	ldr	r0, [sp, #12]
	orrs	r0, r1
	str	r0, [sp, #12]
	movs	r0, #1
	.loc	1 275 23 is_stmt 1              @ ../EEPROM/eeprom_sim.c:275:23
	str	r0, [sp, #8]
	.loc	1 276 9                         @ ../EEPROM/eeprom_sim.c:276:9
	b	.LBB6_17
.Ltmp128:
.LBB6_16:                               @   in Loop: Header=BB6_11 Depth=1
	.loc	1 0 9 is_stmt 0                 @ ../EEPROM/eeprom_sim.c:0:9
	add	r0, sp, #12
.Ltmp129:
	.loc	1 279 18 is_stmt 1              @ ../EEPROM/eeprom_sim.c:279:18
	ldrh	r0, [r0]
	str	r0, [sp, #12]
	.loc	1 280 22                        @ ../EEPROM/eeprom_sim.c:280:22
	ldr	r2, [sp, #24]
	.loc	1 280 24 is_stmt 0              @ ../EEPROM/eeprom_sim.c:280:24
	lsls	r1, r2, #16
	.loc	1 280 45                        @ ../EEPROM/eeprom_sim.c:280:45
	ldr	r0, [sp, #28]
	.loc	1 280 50                        @ ../EEPROM/eeprom_sim.c:280:50
	ldr	r0, [r0, #20]
	.loc	1 280 45                        @ ../EEPROM/eeprom_sim.c:280:45
	ldrb	r0, [r0, r2]
	.loc	1 280 66                        @ ../EEPROM/eeprom_sim.c:280:66
	lsls	r0, r0, #24
	.loc	1 280 42                        @ ../EEPROM/eeprom_sim.c:280:42
	orrs	r1, r0
	.loc	1 280 18                        @ ../EEPROM/eeprom_sim.c:280:18
	ldr	r0, [sp, #12]
	orrs	r0, r1
	str	r0, [sp, #12]
	.loc	1 281 25 is_stmt 1              @ ../EEPROM/eeprom_sim.c:281:25
	ldr	r0, [sp]
	.loc	1 281 41 is_stmt 0              @ ../EEPROM/eeprom_sim.c:281:41
	ldr	r1, [sp, #20]
	.loc	1 281 39                        @ ../EEPROM/eeprom_sim.c:281:39
	adds	r0, r0, r1
	.loc	1 281 44                        @ ../EEPROM/eeprom_sim.c:281:44
	ldr	r1, [sp, #12]
	.loc	1 281 13                        @ ../EEPROM/eeprom_sim.c:281:13
	bl	FMC_Write
	movs	r0, #0
	.loc	1 282 18 is_stmt 1              @ ../EEPROM/eeprom_sim.c:282:18
	str	r0, [sp, #12]
	.loc	1 283 23                        @ ../EEPROM/eeprom_sim.c:283:23
	str	r0, [sp, #8]
	.loc	1 284 15                        @ ../EEPROM/eeprom_sim.c:284:15
	ldr	r0, [sp, #20]
	adds	r0, r0, #4
	str	r0, [sp, #20]
	b	.LBB6_17
.Ltmp130:
.LBB6_17:                               @   in Loop: Header=BB6_11 Depth=1
	.loc	1 286 5                         @ ../EEPROM/eeprom_sim.c:286:5
	b	.LBB6_18
.Ltmp131:
.LBB6_18:                               @   in Loop: Header=BB6_11 Depth=1
	.loc	1 267 42                        @ ../EEPROM/eeprom_sim.c:267:42
	ldr	r0, [sp, #24]
	adds	r0, r0, #1
	str	r0, [sp, #24]
	.loc	1 267 5 is_stmt 0               @ ../EEPROM/eeprom_sim.c:267:5
	b	.LBB6_11
.Ltmp132:
.LBB6_19:
	.loc	1 288 27 is_stmt 1              @ ../EEPROM/eeprom_sim.c:288:27
	ldr	r0, [sp, #20]
	.loc	1 288 5 is_stmt 0               @ ../EEPROM/eeprom_sim.c:288:5
	ldr	r1, [sp, #28]
	.loc	1 288 25                        @ ../EEPROM/eeprom_sim.c:288:25
	str	r0, [r1, #16]
.Ltmp133:
	.loc	1 290 8 is_stmt 1               @ ../EEPROM/eeprom_sim.c:290:8
	ldr	r0, [sp, #8]
.Ltmp134:
	.loc	1 290 8 is_stmt 0               @ ../EEPROM/eeprom_sim.c:290:8
	cmp	r0, #1
	bne	.LBB6_21
	b	.LBB6_20
.LBB6_20:
.Ltmp135:
	.loc	1 292 21 is_stmt 1              @ ../EEPROM/eeprom_sim.c:292:21
	ldr	r0, [sp]
	.loc	1 292 37 is_stmt 0              @ ../EEPROM/eeprom_sim.c:292:37
	ldr	r1, [sp, #20]
	.loc	1 292 35                        @ ../EEPROM/eeprom_sim.c:292:35
	adds	r0, r0, r1
	.loc	1 292 40                        @ ../EEPROM/eeprom_sim.c:292:40
	ldr	r1, [sp, #12]
	.loc	1 292 9                         @ ../EEPROM/eeprom_sim.c:292:9
	bl	FMC_Write
	.loc	1 293 9 is_stmt 1               @ ../EEPROM/eeprom_sim.c:293:9
	ldr	r1, [sp, #28]
	.loc	1 293 29 is_stmt 0              @ ../EEPROM/eeprom_sim.c:293:29
	ldr	r0, [r1, #16]
	adds	r0, r0, #2
	str	r0, [r1, #16]
	.loc	1 294 5 is_stmt 1               @ ../EEPROM/eeprom_sim.c:294:5
	b	.LBB6_21
.Ltmp136:
.LBB6_21:
	.loc	1 296 17                        @ ../EEPROM/eeprom_sim.c:296:17
	ldr	r1, [sp, #28]
	.loc	1 296 22 is_stmt 0              @ ../EEPROM/eeprom_sim.c:296:22
	ldr	r0, [r1]
	.loc	1 296 63                        @ ../EEPROM/eeprom_sim.c:296:63
	ldr	r1, [r1, #12]
	.loc	1 296 56                        @ ../EEPROM/eeprom_sim.c:296:56
	lsls	r1, r1, #9
	.loc	1 296 37                        @ ../EEPROM/eeprom_sim.c:296:37
	adds	r0, r0, r1
	.loc	1 296 5                         @ ../EEPROM/eeprom_sim.c:296:5
	bl	FMC_Erase
	.loc	1 297 31 is_stmt 1              @ ../EEPROM/eeprom_sim.c:297:31
	ldr	r0, [sp, #4]
	.loc	1 297 5 is_stmt 0               @ ../EEPROM/eeprom_sim.c:297:5
	ldr	r1, [sp, #28]
	.loc	1 297 29                        @ ../EEPROM/eeprom_sim.c:297:29
	str	r0, [r1, #12]
	.loc	1 298 1 epilogue_begin is_stmt 1 @ ../EEPROM/eeprom_sim.c:298:1
	add	sp, #32
	pop	{r7, pc}
.Ltmp137:
	.p2align	2
@ %bb.22:
	.loc	1 0 1 is_stmt 0                 @ ../EEPROM/eeprom_sim.c:0:1
__arm_cp.6_0:
	.long	4294901760                      @ 0xffff0000
.Lcpi_end8:
	.size	__arm_cp.6_0, .Lcpi_end8-__arm_cp.6_0
.Lfunc_end6:
	.size	Manage_Next_Page, .Lfunc_end6-Manage_Next_Page
	.cfi_endproc
	.cantunwind
	.fnend
                                        @ -- End function
	.section	.text.Get_Cycle_Counter,"ax",%progbits
	.hidden	Get_Cycle_Counter               @ -- Begin function Get_Cycle_Counter
	.globl	Get_Cycle_Counter
	.p2align	1
	.type	Get_Cycle_Counter,%function
	.code	16                              @ @Get_Cycle_Counter
	.thumb_func
Get_Cycle_Counter:
.Lfunc_begin7:
	.loc	1 301 0 is_stmt 1               @ ../EEPROM/eeprom_sim.c:301:0
	.fnstart
	.cfi_startproc
@ %bb.0:
	.save	{r7, lr}
	push	{r7, lr}
	.cfi_def_cfa_offset 8
	.cfi_offset lr, -4
	.cfi_offset r7, -8
	.pad	#8
	sub	sp, #8
	.cfi_def_cfa_offset 16
	str	r0, [sp, #4]
.Ltmp138:
	.loc	1 302 33 prologue_end           @ ../EEPROM/eeprom_sim.c:302:33
	ldr	r1, [sp, #4]
	.loc	1 302 38 is_stmt 0              @ ../EEPROM/eeprom_sim.c:302:38
	ldr	r0, [r1]
	.loc	1 302 79                        @ ../EEPROM/eeprom_sim.c:302:79
	ldr	r1, [r1, #12]
	.loc	1 302 72                        @ ../EEPROM/eeprom_sim.c:302:72
	lsls	r1, r1, #9
	.loc	1 302 53                        @ ../EEPROM/eeprom_sim.c:302:53
	adds	r0, r0, r1
	.loc	1 302 22                        @ ../EEPROM/eeprom_sim.c:302:22
	bl	FMC_Read
	.loc	1 302 5                         @ ../EEPROM/eeprom_sim.c:302:5
	uxth	r0, r0
	.loc	1 302 5 epilogue_begin          @ ../EEPROM/eeprom_sim.c:302:5
	add	sp, #8
	pop	{r7, pc}
.Ltmp139:
.Lfunc_end7:
	.size	Get_Cycle_Counter, .Lfunc_end7-Get_Cycle_Counter
	.cfi_endproc
	.cantunwind
	.fnend
                                        @ -- End function
	.section	.text.Read_EEPROM,"ax",%progbits
	.hidden	Read_EEPROM                     @ -- Begin function Read_EEPROM
	.globl	Read_EEPROM
	.p2align	1
	.type	Read_EEPROM,%function
	.code	16                              @ @Read_EEPROM
	.thumb_func
Read_EEPROM:
.Lfunc_begin8:
	.loc	1 313 0 is_stmt 1               @ ../EEPROM/eeprom_sim.c:313:0
	.fnstart
	.cfi_startproc
@ %bb.0:
	.pad	#24
	sub	sp, #24
	.cfi_def_cfa_offset 24
	str	r0, [sp, #16]
	str	r1, [sp, #12]
	str	r2, [sp, #8]
	str	r3, [sp, #4]
.Ltmp140:
	.loc	1 317 10 prologue_end           @ ../EEPROM/eeprom_sim.c:317:10
	ldr	r0, [sp, #12]
	.loc	1 317 19 is_stmt 0              @ ../EEPROM/eeprom_sim.c:317:19
	ldr	r1, [sp, #4]
	.loc	1 317 17                        @ ../EEPROM/eeprom_sim.c:317:17
	adds	r0, r0, r1
	.loc	1 317 26                        @ ../EEPROM/eeprom_sim.c:317:26
	ldr	r1, [sp, #16]
	.loc	1 317 31                        @ ../EEPROM/eeprom_sim.c:317:31
	ldr	r1, [r1, #8]
.Ltmp141:
	.loc	1 317 9                         @ ../EEPROM/eeprom_sim.c:317:9
	cmp	r0, r1
	bls	.LBB8_2
	b	.LBB8_1
.LBB8_1:
	.loc	1 0 9                           @ ../EEPROM/eeprom_sim.c:0:9
	movs	r0, #3
.Ltmp142:
	.loc	1 319 9 is_stmt 1               @ ../EEPROM/eeprom_sim.c:319:9
	str	r0, [sp, #20]
	b	.LBB8_7
.Ltmp143:
.LBB8_2:
	.loc	1 0 9 is_stmt 0                 @ ../EEPROM/eeprom_sim.c:0:9
	movs	r0, #0
.Ltmp144:
	.loc	1 323 12 is_stmt 1              @ ../EEPROM/eeprom_sim.c:323:12
	str	r0, [sp]
	.loc	1 323 10 is_stmt 0              @ ../EEPROM/eeprom_sim.c:323:10
	b	.LBB8_3
.LBB8_3:                                @ =>This Inner Loop Header: Depth=1
.Ltmp145:
	.loc	1 323 17                        @ ../EEPROM/eeprom_sim.c:323:17
	ldr	r0, [sp]
	.loc	1 323 21                        @ ../EEPROM/eeprom_sim.c:323:21
	ldr	r1, [sp, #4]
.Ltmp146:
	.loc	1 323 5                         @ ../EEPROM/eeprom_sim.c:323:5
	cmp	r0, r1
	bhs	.LBB8_6
	b	.LBB8_4
.LBB8_4:                                @   in Loop: Header=BB8_3 Depth=1
.Ltmp147:
	.loc	1 325 19 is_stmt 1              @ ../EEPROM/eeprom_sim.c:325:19
	ldr	r0, [sp, #16]
	.loc	1 325 24 is_stmt 0              @ ../EEPROM/eeprom_sim.c:325:24
	ldr	r0, [r0, #20]
	.loc	1 325 37                        @ ../EEPROM/eeprom_sim.c:325:37
	ldr	r1, [sp, #12]
	.loc	1 325 46                        @ ../EEPROM/eeprom_sim.c:325:46
	ldr	r2, [sp]
	.loc	1 325 44                        @ ../EEPROM/eeprom_sim.c:325:44
	adds	r1, r1, r2
	.loc	1 325 19                        @ ../EEPROM/eeprom_sim.c:325:19
	ldrb	r0, [r0, r1]
	.loc	1 325 9                         @ ../EEPROM/eeprom_sim.c:325:9
	ldr	r1, [sp, #8]
	.loc	1 325 17                        @ ../EEPROM/eeprom_sim.c:325:17
	strb	r0, [r1, r2]
	.loc	1 326 5 is_stmt 1               @ ../EEPROM/eeprom_sim.c:326:5
	b	.LBB8_5
.Ltmp148:
.LBB8_5:                                @   in Loop: Header=BB8_3 Depth=1
	.loc	1 323 27                        @ ../EEPROM/eeprom_sim.c:323:27
	ldr	r0, [sp]
	adds	r0, r0, #1
	str	r0, [sp]
	.loc	1 323 5 is_stmt 0               @ ../EEPROM/eeprom_sim.c:323:5
	b	.LBB8_3
.Ltmp149:
.LBB8_6:
	.loc	1 0 5                           @ ../EEPROM/eeprom_sim.c:0:5
	movs	r0, #0
	.loc	1 328 5 is_stmt 1               @ ../EEPROM/eeprom_sim.c:328:5
	str	r0, [sp, #20]
	b	.LBB8_7
.LBB8_7:
	.loc	1 329 1                         @ ../EEPROM/eeprom_sim.c:329:1
	ldr	r0, [sp, #20]
	.loc	1 329 1 epilogue_begin is_stmt 0 @ ../EEPROM/eeprom_sim.c:329:1
	add	sp, #24
	bx	lr
.Ltmp150:
.Lfunc_end8:
	.size	Read_EEPROM, .Lfunc_end8-Read_EEPROM
	.cfi_endproc
	.cantunwind
	.fnend
                                        @ -- End function
	.section	.text.Write_EEPROM,"ax",%progbits
	.hidden	Write_EEPROM                    @ -- Begin function Write_EEPROM
	.globl	Write_EEPROM
	.p2align	1
	.type	Write_EEPROM,%function
	.code	16                              @ @Write_EEPROM
	.thumb_func
Write_EEPROM:
.Lfunc_begin9:
	.loc	1 339 0 is_stmt 1               @ ../EEPROM/eeprom_sim.c:339:0
	.fnstart
	.cfi_startproc
@ %bb.0:
	.save	{r7, lr}
	push	{r7, lr}
	.cfi_def_cfa_offset 8
	.cfi_offset lr, -4
	.cfi_offset r7, -8
	.pad	#32
	sub	sp, #32
	.cfi_def_cfa_offset 40
	str	r0, [sp, #24]
	str	r1, [sp, #20]
	str	r2, [sp, #16]
	str	r3, [sp, #12]
.Ltmp151:
	.loc	1 344 10 prologue_end           @ ../EEPROM/eeprom_sim.c:344:10
	ldr	r0, [sp, #20]
	.loc	1 344 19 is_stmt 0              @ ../EEPROM/eeprom_sim.c:344:19
	ldr	r1, [sp, #12]
	.loc	1 344 17                        @ ../EEPROM/eeprom_sim.c:344:17
	adds	r0, r0, r1
	.loc	1 344 26                        @ ../EEPROM/eeprom_sim.c:344:26
	ldr	r1, [sp, #24]
	.loc	1 344 31                        @ ../EEPROM/eeprom_sim.c:344:31
	ldr	r1, [r1, #8]
.Ltmp152:
	.loc	1 344 9                         @ ../EEPROM/eeprom_sim.c:344:9
	cmp	r0, r1
	bls	.LBB9_2
	b	.LBB9_1
.LBB9_1:
	.loc	1 0 9                           @ ../EEPROM/eeprom_sim.c:0:9
	movs	r0, #3
.Ltmp153:
	.loc	1 346 9 is_stmt 1               @ ../EEPROM/eeprom_sim.c:346:9
	str	r0, [sp, #28]
	b	.LBB9_9
.Ltmp154:
.LBB9_2:
	.loc	1 0 9 is_stmt 0                 @ ../EEPROM/eeprom_sim.c:0:9
	movs	r0, #0
.Ltmp155:
	.loc	1 350 12 is_stmt 1              @ ../EEPROM/eeprom_sim.c:350:12
	str	r0, [sp, #8]
	.loc	1 350 10 is_stmt 0              @ ../EEPROM/eeprom_sim.c:350:10
	b	.LBB9_3
.LBB9_3:                                @ =>This Inner Loop Header: Depth=1
.Ltmp156:
	.loc	1 350 17                        @ ../EEPROM/eeprom_sim.c:350:17
	ldr	r0, [sp, #8]
	.loc	1 350 21                        @ ../EEPROM/eeprom_sim.c:350:21
	ldr	r1, [sp, #12]
.Ltmp157:
	.loc	1 350 5                         @ ../EEPROM/eeprom_sim.c:350:5
	cmp	r0, r1
	bhs	.LBB9_8
	b	.LBB9_4
.LBB9_4:                                @   in Loop: Header=BB9_3 Depth=1
.Ltmp158:
	.loc	1 353 26 is_stmt 1              @ ../EEPROM/eeprom_sim.c:353:26
	ldr	r0, [sp, #24]
	.loc	1 353 41 is_stmt 0              @ ../EEPROM/eeprom_sim.c:353:41
	ldr	r1, [sp, #20]
	.loc	1 353 50                        @ ../EEPROM/eeprom_sim.c:353:50
	ldr	r3, [sp, #8]
	.loc	1 353 48                        @ ../EEPROM/eeprom_sim.c:353:48
	adds	r1, r1, r3
	.loc	1 353 54                        @ ../EEPROM/eeprom_sim.c:353:54
	ldr	r2, [sp, #16]
	ldrb	r2, [r2, r3]
	.loc	1 353 15                        @ ../EEPROM/eeprom_sim.c:353:15
	uxtb	r1, r1
	bl	Write_Data
	.loc	1 353 13                        @ ../EEPROM/eeprom_sim.c:353:13
	str	r0, [sp, #4]
.Ltmp159:
	.loc	1 356 13 is_stmt 1              @ ../EEPROM/eeprom_sim.c:356:13
	ldr	r0, [sp, #4]
.Ltmp160:
	.loc	1 356 13 is_stmt 0              @ ../EEPROM/eeprom_sim.c:356:13
	cbz	r0, .LBB9_6
	b	.LBB9_5
.LBB9_5:
.Ltmp161:
	.loc	1 358 20 is_stmt 1              @ ../EEPROM/eeprom_sim.c:358:20
	ldr	r0, [sp, #4]
	.loc	1 358 13 is_stmt 0              @ ../EEPROM/eeprom_sim.c:358:13
	str	r0, [sp, #28]
	b	.LBB9_9
.Ltmp162:
.LBB9_6:                                @   in Loop: Header=BB9_3 Depth=1
	.loc	1 360 5 is_stmt 1               @ ../EEPROM/eeprom_sim.c:360:5
	b	.LBB9_7
.Ltmp163:
.LBB9_7:                                @   in Loop: Header=BB9_3 Depth=1
	.loc	1 350 27                        @ ../EEPROM/eeprom_sim.c:350:27
	ldr	r0, [sp, #8]
	adds	r0, r0, #1
	str	r0, [sp, #8]
	.loc	1 350 5 is_stmt 0               @ ../EEPROM/eeprom_sim.c:350:5
	b	.LBB9_3
.Ltmp164:
.LBB9_8:
	.loc	1 0 5                           @ ../EEPROM/eeprom_sim.c:0:5
	movs	r0, #0
	.loc	1 362 5 is_stmt 1               @ ../EEPROM/eeprom_sim.c:362:5
	str	r0, [sp, #28]
	b	.LBB9_9
.LBB9_9:
	.loc	1 363 1                         @ ../EEPROM/eeprom_sim.c:363:1
	ldr	r0, [sp, #28]
	.loc	1 363 1 epilogue_begin is_stmt 0 @ ../EEPROM/eeprom_sim.c:363:1
	add	sp, #32
	pop	{r7, pc}
.Ltmp165:
.Lfunc_end9:
	.size	Write_EEPROM, .Lfunc_end9-Write_EEPROM
	.cfi_endproc
	.cantunwind
	.fnend
                                        @ -- End function
	.type	gs_u8AllocatedCount,%object     @ @gs_u8AllocatedCount
	.section	.bss.gs_u8AllocatedCount,"aw",%nobits
gs_u8AllocatedCount:
	.byte	0                               @ 0x0
	.size	gs_u8AllocatedCount, 1

	.type	.L.str,%object                  @ @.str
	.section	.rodata.str1.1,"aMS",%progbits,1
.L.str:
	.asciz	"EEPROM Init Error: Max Instances Reached!\n"
	.size	.L.str, 43

	.type	gs_BufferPool,%object           @ @gs_BufferPool
	.section	.bss.gs_BufferPool,"aw",%nobits
gs_BufferPool:
	.zero	510
	.size	gs_BufferPool, 510

	.file	6 "C:\\Users\\tester\\Desktop\\M251 dual eeprom\\SampleCode\\StdDriver\\INA3221_CABLE\\KEIL" "../EEPROM\\eeprom_sim.h"
	.section	".note.GNU-stack","",%progbits
	.eabi_attribute	30, 6	@ Tag_ABI_optimization_goals
	.ARM_attribute	16, 1	@ Tag_AV_eba