	.text
	.syntax unified
	.eabi_attribute	67, "2.09"	@ Tag_conformance
	.cpu	cortex-m23
	.eabi_attribute	6, 16	@ Tag_CPU_arch
	.eabi_attribute	7, 77	@ Tag_CPU_arch_profile
	.eabi_attribute	8, 0	@ Tag_ARM_ISA_use
	.eabi_attribute	9, 3	@ Tag_THUMB_ISA_use
	.eabi_attribute	34, 0	@ Tag_CPU_unaligned_access
	.eabi_attribute	17, 1	@ Tag_ABI_PCS_GOT_use
	.eabi_attribute	20, 2	@ Tag_ABI_FP_denormal
	.eabi_attribute	21, 0	@ Tag_ABI_FP_exceptions
	.eabi_attribute	23, 1	@ Tag_ABI_FP_number_model
	.eabi_attribute	24, 1	@ Tag_ABI_align_needed
	.eabi_attribute	25, 1	@ Tag_ABI_align_preserved
	.eabi_attribute	38, 1	@ Tag_ABI_FP_16bit_format
	.eabi_attribute	18, 2	@ Tag_ABI_PCS_wchar_t
	.eabi_attribute	26, 1	@ Tag_ABI_enum_size
	.eabi_attribute	14, 0	@ Tag_ABI_PCS_R9_use
	.file	"i2c.c"
	.file	1 "C:\\Users\\tester" "AppData\\Local\\Keil_v5\\ARM\\ARMCLANG\\bin\\..\\include\\stdint.h"
	.file	2 "C:\\Users\\tester\\Desktop\\M251 dual eeprom\\SampleCode\\StdDriver\\INA3221_CABLE\\KEIL" "../../../../Library/StdDriver/src/i2c.c"
	.file	3 "C:\\Users\\tester\\Desktop\\M251 dual eeprom\\SampleCode\\StdDriver\\INA3221_CABLE\\KEIL" "../../../../Library/Device/Nuvoton/M251/Include\\i2c_reg.h"
	.file	4 "C:\\Users\\tester\\Desktop\\M251 dual eeprom\\SampleCode\\StdDriver\\INA3221_CABLE\\KEIL" "../../../../Library/Device/Nuvoton/M251/Include\\sys_reg.h"
	.section	.text.I2C_Open,"ax",%progbits
	.hidden	I2C_Open                        @ -- Begin function I2C_Open
	.globl	I2C_Open
	.p2align	2
	.type	I2C_Open,%function
	.code	16                              @ @I2C_Open
	.thumb_func
I2C_Open:
.Lfunc_begin0:
	.loc	2 40 0                          @ ../../../../Library/StdDriver/src/i2c.c:40:0
	.fnstart
	.cfi_sections .debug_frame
	.cfi_startproc
@ %bb.0:
	.save	{r7, lr}
	push	{r7, lr}
	.cfi_def_cfa_offset 8
	.cfi_offset lr, -4
	.cfi_offset r7, -8
	.pad	#16
	sub	sp, #16
	.cfi_def_cfa_offset 24
	str	r0, [sp, #12]
	str	r1, [sp, #8]
.Ltmp0:
	.loc	2 44 9 prologue_end             @ ../../../../Library/StdDriver/src/i2c.c:44:9
	ldr	r0, [sp, #12]
	ldr	r1, __arm_cp.0_0
.Ltmp1:
	.loc	2 44 9 is_stmt 0                @ ../../../../Library/StdDriver/src/i2c.c:44:9
	cmp	r0, r1
	bne	.LBB0_2
	b	.LBB0_1
.LBB0_1:
.Ltmp2:
	.loc	2 46 19 is_stmt 1               @ ../../../../Library/StdDriver/src/i2c.c:46:19
	bl	CLK_GetPCLK1Freq
	.loc	2 46 17 is_stmt 0               @ ../../../../Library/StdDriver/src/i2c.c:46:17
	str	r0, [sp]
	.loc	2 47 5 is_stmt 1                @ ../../../../Library/StdDriver/src/i2c.c:47:5
	b	.LBB0_3
.Ltmp3:
.LBB0_2:
	.loc	2 50 19                         @ ../../../../Library/StdDriver/src/i2c.c:50:19
	bl	CLK_GetPCLK0Freq
	.loc	2 50 17 is_stmt 0               @ ../../../../Library/StdDriver/src/i2c.c:50:17
	str	r0, [sp]
	b	.LBB0_3
.Ltmp4:
.LBB0_3:
	.loc	2 53 27 is_stmt 1               @ ../../../../Library/StdDriver/src/i2c.c:53:27
	ldr	r2, [sp]
	movs	r1, #10
	.loc	2 53 35 is_stmt 0               @ ../../../../Library/StdDriver/src/i2c.c:53:35
	mov	r0, r1
	muls	r0, r2, r0
	.loc	2 53 45                         @ ../../../../Library/StdDriver/src/i2c.c:53:45
	ldr	r2, [sp, #8]
	.loc	2 53 57                         @ ../../../../Library/StdDriver/src/i2c.c:53:57
	lsls	r2, r2, #2
	.loc	2 53 42                         @ ../../../../Library/StdDriver/src/i2c.c:53:42
	udiv	r0, r0, r2
	.loc	2 53 63                         @ ../../../../Library/StdDriver/src/i2c.c:53:63
	adds	r0, r0, #5
	.loc	2 53 69                         @ ../../../../Library/StdDriver/src/i2c.c:53:69
	udiv	r0, r0, r1
	.loc	2 53 75                         @ ../../../../Library/StdDriver/src/i2c.c:53:75
	subs	r0, r0, #1
	.loc	2 53 12                         @ ../../../../Library/StdDriver/src/i2c.c:53:12
	str	r0, [sp, #4]
	.loc	2 54 19 is_stmt 1               @ ../../../../Library/StdDriver/src/i2c.c:54:19
	ldr	r0, [sp, #4]
	.loc	2 54 5 is_stmt 0                @ ../../../../Library/StdDriver/src/i2c.c:54:5
	ldr	r1, [sp, #12]
	.loc	2 54 17                         @ ../../../../Library/StdDriver/src/i2c.c:54:17
	str	r0, [r1, #16]
	.loc	2 57 5 is_stmt 1                @ ../../../../Library/StdDriver/src/i2c.c:57:5
	ldr	r1, [sp, #12]
	.loc	2 57 15 is_stmt 0               @ ../../../../Library/StdDriver/src/i2c.c:57:15
	ldr	r0, [r1]
	movs	r2, #64
	orrs	r0, r2
	str	r0, [r1]
	.loc	2 59 13 is_stmt 1               @ ../../../../Library/StdDriver/src/i2c.c:59:13
	ldr	r0, [sp]
	.loc	2 59 25 is_stmt 0               @ ../../../../Library/StdDriver/src/i2c.c:59:25
	ldr	r1, [sp, #4]
	.loc	2 59 32                         @ ../../../../Library/StdDriver/src/i2c.c:59:32
	lsls	r1, r1, #2
	.loc	2 59 38                         @ ../../../../Library/StdDriver/src/i2c.c:59:38
	adds	r1, r1, #4
	.loc	2 59 21                         @ ../../../../Library/StdDriver/src/i2c.c:59:21
	udiv	r0, r0, r1
	.loc	2 59 5 epilogue_begin           @ ../../../../Library/StdDriver/src/i2c.c:59:5
	add	sp, #16
	pop	{r7, pc}
.Ltmp5:
	.p2align	2
@ %bb.4:
	.loc	2 0 5                           @ ../../../../Library/StdDriver/src/i2c.c:0:5
__arm_cp.0_0:
	.long	1074270208                      @ 0x40081000
.Lcpi_end0:
	.size	__arm_cp.0_0, .Lcpi_end0-__arm_cp.0_0
.Lfunc_end0:
	.size	I2C_Open, .Lfunc_end0-I2C_Open
	.cfi_endproc
	.cantunwind
	.fnend
                                        @ -- End function
	.section	.text.I2C_Close,"ax",%progbits
	.hidden	I2C_Close                       @ -- Begin function I2C_Close
	.globl	I2C_Close
	.p2align	2
	.type	I2C_Close,%function
	.code	16                              @ @I2C_Close
	.thumb_func
I2C_Close:
.Lfunc_begin1:
	.loc	2 72 0 is_stmt 1                @ ../../../../Library/StdDriver/src/i2c.c:72:0
	.fnstart
	.cfi_startproc
@ %bb.0:
	.save	{r7, lr}
	push	{r7, lr}
	.cfi_def_cfa_offset 8
	.cfi_offset lr, -4
	.cfi_offset r7, -8
	.pad	#8
	sub	sp, #8
	.cfi_def_cfa_offset 16
	str	r0, [sp, #4]
.Ltmp6:
	.loc	2 74 22 prologue_end            @ ../../../../Library/StdDriver/src/i2c.c:74:22
	bl	SYS_IsRegLocked
	.loc	2 74 20 is_stmt 0               @ ../../../../Library/StdDriver/src/i2c.c:74:20
	str	r0, [sp]
.Ltmp7:
	.loc	2 76 9 is_stmt 1                @ ../../../../Library/StdDriver/src/i2c.c:76:9
	ldr	r0, [sp]
.Ltmp8:
	.loc	2 76 9 is_stmt 0                @ ../../../../Library/StdDriver/src/i2c.c:76:9
	cbz	r0, .LBB1_2
	b	.LBB1_1
.LBB1_1:
.Ltmp9:
	.loc	2 78 9 is_stmt 1                @ ../../../../Library/StdDriver/src/i2c.c:78:9
	bl	SYS_UnlockReg
	.loc	2 79 5                          @ ../../../../Library/StdDriver/src/i2c.c:79:5
	b	.LBB1_2
.Ltmp10:
.LBB1_2:
	.loc	2 82 9                          @ ../../../../Library/StdDriver/src/i2c.c:82:9
	ldr	r0, [sp, #4]
	ldr	r1, __arm_cp.1_0
.Ltmp11:
	.loc	2 82 9 is_stmt 0                @ ../../../../Library/StdDriver/src/i2c.c:82:9
	cmp	r0, r1
	bne	.LBB1_4
	b	.LBB1_3
.LBB1_3:
	.loc	2 0 9                           @ ../../../../Library/StdDriver/src/i2c.c:0:9
	ldr	r1, __arm_cp.1_2
.Ltmp12:
	.loc	2 84 21 is_stmt 1               @ ../../../../Library/StdDriver/src/i2c.c:84:21
	ldr	r0, [r1]
	movw	r2, #256
	orrs	r0, r2
	str	r0, [r1]
	.loc	2 85 21                         @ ../../../../Library/StdDriver/src/i2c.c:85:21
	ldr	r0, [r1]
	bics	r0, r2
	str	r0, [r1]
	.loc	2 86 5                          @ ../../../../Library/StdDriver/src/i2c.c:86:5
	b	.LBB1_7
.Ltmp13:
.LBB1_4:
	.loc	2 87 14                         @ ../../../../Library/StdDriver/src/i2c.c:87:14
	ldr	r0, [sp, #4]
	ldr	r1, __arm_cp.1_1
.Ltmp14:
	.loc	2 87 14 is_stmt 0               @ ../../../../Library/StdDriver/src/i2c.c:87:14
	cmp	r0, r1
	bne	.LBB1_6
	b	.LBB1_5
.LBB1_5:
	.loc	2 0 14                          @ ../../../../Library/StdDriver/src/i2c.c:0:14
	ldr	r1, __arm_cp.1_2
.Ltmp15:
	.loc	2 89 21 is_stmt 1               @ ../../../../Library/StdDriver/src/i2c.c:89:21
	ldr	r0, [r1]
	movw	r2, #512
	orrs	r0, r2
	str	r0, [r1]
	.loc	2 90 21                         @ ../../../../Library/StdDriver/src/i2c.c:90:21
	ldr	r0, [r1]
	bics	r0, r2
	str	r0, [r1]
	.loc	2 91 5                          @ ../../../../Library/StdDriver/src/i2c.c:91:5
	b	.LBB1_6
.Ltmp16:
.LBB1_6:
	.loc	2 0 5 is_stmt 0                 @ ../../../../Library/StdDriver/src/i2c.c:0:5
	b	.LBB1_7
.LBB1_7:
	.loc	2 94 5 is_stmt 1                @ ../../../../Library/StdDriver/src/i2c.c:94:5
	ldr	r1, [sp, #4]
	.loc	2 94 15 is_stmt 0               @ ../../../../Library/StdDriver/src/i2c.c:94:15
	ldr	r0, [r1]
	movs	r2, #64
	bics	r0, r2
	str	r0, [r1]
.Ltmp17:
	.loc	2 96 9 is_stmt 1                @ ../../../../Library/StdDriver/src/i2c.c:96:9
	ldr	r0, [sp]
.Ltmp18:
	.loc	2 96 9 is_stmt 0                @ ../../../../Library/StdDriver/src/i2c.c:96:9
	cbz	r0, .LBB1_9
	b	.LBB1_8
.LBB1_8:
.Ltmp19:
	.loc	2 98 9 is_stmt 1                @ ../../../../Library/StdDriver/src/i2c.c:98:9
	bl	SYS_LockReg
	.loc	2 99 5                          @ ../../../../Library/StdDriver/src/i2c.c:99:5
	b	.LBB1_9
.Ltmp20:
.LBB1_9:
	.loc	2 100 1 epilogue_begin          @ ../../../../Library/StdDriver/src/i2c.c:100:1
	add	sp, #8
	pop	{r7, pc}
.Ltmp21:
	.p2align	2
@ %bb.10:
	.loc	2 0 1 is_stmt 0                 @ ../../../../Library/StdDriver/src/i2c.c:0:1
__arm_cp.1_0:
	.long	1074266112                      @ 0x40080000
.Lcpi_end1:
	.size	__arm_cp.1_0, .Lcpi_end1-__arm_cp.1_0
__arm_cp.1_1:
	.long	1074270208                      @ 0x40081000
.Lcpi_end2:
	.size	__arm_cp.1_1, .Lcpi_end2-__arm_cp.1_1
__arm_cp.1_2:
	.long	1073741836                      @ 0x4000000c
.Lcpi_end3:
	.size	__arm_cp.1_2, .Lcpi_end3-__arm_cp.1_2
.Lfunc_end1:
	.size	I2C_Close, .Lfunc_end1-I2C_Close
	.cfi_endproc
	.cantunwind
	.fnend
                                        @ -- End function
	.section	.text.SYS_IsRegLocked,"ax",%progbits
	.p2align	2                               @ -- Begin function SYS_IsRegLocked
	.type	SYS_IsRegLocked,%function
	.code	16                              @ @SYS_IsRegLocked
	.thumb_func
SYS_IsRegLocked:
.Lfunc_begin2:
	.file	5 "C:\\Users\\tester\\Desktop\\M251 dual eeprom\\SampleCode\\StdDriver\\INA3221_CABLE\\KEIL" "../../../../Library/StdDriver/inc\\sys.h"
	.loc	5 1341 0 is_stmt 1              @ ../../../../Library/StdDriver/inc\sys.h:1341:0
	.fnstart
	.cfi_startproc
@ %bb.0:
	ldr	r0, __arm_cp.2_0
.Ltmp22:
	.loc	5 1342 17 prologue_end          @ ../../../../Library/StdDriver/inc\sys.h:1342:17
	ldr	r0, [r0]
	movs	r1, #1
	.loc	5 1342 25 is_stmt 0             @ ../../../../Library/StdDriver/inc\sys.h:1342:25
	ands	r0, r1
	.loc	5 1342 12                       @ ../../../../Library/StdDriver/inc\sys.h:1342:12
	rsbs	r1, r0, #0
	adcs	r0, r1
	.loc	5 1342 5                        @ ../../../../Library/StdDriver/inc\sys.h:1342:5
	bx	lr
.Ltmp23:
	.p2align	2
@ %bb.1:
	.loc	5 0 5                           @ ../../../../Library/StdDriver/inc\sys.h:0:5
__arm_cp.2_0:
	.long	1073742080                      @ 0x40000100
.Lcpi_end4:
	.size	__arm_cp.2_0, .Lcpi_end4-__arm_cp.2_0
.Lfunc_end2:
	.size	SYS_IsRegLocked, .Lfunc_end2-SYS_IsRegLocked
	.cfi_endproc
	.cantunwind
	.fnend
                                        @ -- End function
	.section	.text.SYS_UnlockReg,"ax",%progbits
	.p2align	2                               @ -- Begin function SYS_UnlockReg
	.type	SYS_UnlockReg,%function
	.code	16                              @ @SYS_UnlockReg
	.thumb_func
SYS_UnlockReg:
.Lfunc_begin3:
	.fnstart
	.cfi_startproc
@ %bb.0:
	.loc	5 1314 5 prologue_end is_stmt 1 @ ../../../../Library/StdDriver/inc\sys.h:1314:5
	b	.LBB3_1
.LBB3_1:                                @ =>This Inner Loop Header: Depth=1
	.loc	5 0 5 is_stmt 0                 @ ../../../../Library/StdDriver/inc\sys.h:0:5
	ldr	r1, __arm_cp.3_0
	movs	r0, #89
.Ltmp24:
	.loc	5 1316 22 is_stmt 1             @ ../../../../Library/StdDriver/inc\sys.h:1316:22
	str	r0, [r1]
	movs	r0, #22
	.loc	5 1317 22                       @ ../../../../Library/StdDriver/inc\sys.h:1317:22
	str	r0, [r1]
	movs	r0, #136
	.loc	5 1318 22                       @ ../../../../Library/StdDriver/inc\sys.h:1318:22
	str	r0, [r1]
	.loc	5 1319 5                        @ ../../../../Library/StdDriver/inc\sys.h:1319:5
	b	.LBB3_2
.Ltmp25:
.LBB3_2:                                @   in Loop: Header=BB3_1 Depth=1
	.loc	5 0 5 is_stmt 0                 @ ../../../../Library/StdDriver/inc\sys.h:0:5
	ldr	r0, __arm_cp.3_0
	.loc	5 1319 19                       @ ../../../../Library/StdDriver/inc\sys.h:1319:19
	ldr	r0, [r0]
.Ltmp26:
	.loc	5 1319 5                        @ ../../../../Library/StdDriver/inc\sys.h:1319:5
	cmp	r0, #0
	beq	.LBB3_1
	b	.LBB3_3
.Ltmp27:
.LBB3_3:
	.loc	5 1320 1 is_stmt 1              @ ../../../../Library/StdDriver/inc\sys.h:1320:1
	bx	lr
.Ltmp28:
	.p2align	2
@ %bb.4:
	.loc	5 0 1 is_stmt 0                 @ ../../../../Library/StdDriver/inc\sys.h:0:1
__arm_cp.3_0:
	.long	1073742080                      @ 0x40000100
.Lcpi_end5:
	.size	__arm_cp.3_0, .Lcpi_end5-__arm_cp.3_0
.Lfunc_end3:
	.size	SYS_UnlockReg, .Lfunc_end3-SYS_UnlockReg
	.cfi_endproc
	.cantunwind
	.fnend
                                        @ -- End function
	.section	.text.SYS_LockReg,"ax",%progbits
	.p2align	2                               @ -- Begin function SYS_LockReg
	.type	SYS_LockReg,%function
	.code	16                              @ @SYS_LockReg
	.thumb_func
SYS_LockReg:
.Lfunc_begin4:
	.loc	5 1328 0 is_stmt 1              @ ../../../../Library/StdDriver/inc\sys.h:1328:0
	.fnstart
	.cfi_startproc
@ %bb.0:
	ldr	r1, __arm_cp.4_0
	movs	r0, #0
.Ltmp29:
	.loc	5 1329 18 prologue_end          @ ../../../../Library/StdDriver/inc\sys.h:1329:18
	str	r0, [r1]
	.loc	5 1330 1                        @ ../../../../Library/StdDriver/inc\sys.h:1330:1
	bx	lr
.Ltmp30:
	.p2align	2
@ %bb.1:
	.loc	5 0 1 is_stmt 0                 @ ../../../../Library/StdDriver/inc\sys.h:0:1
__arm_cp.4_0:
	.long	1073742080                      @ 0x40000100
.Lcpi_end6:
	.size	__arm_cp.4_0, .Lcpi_end6-__arm_cp.4_0
.Lfunc_end4:
	.size	SYS_LockReg, .Lfunc_end4-SYS_LockReg
	.cfi_endproc
	.cantunwind
	.fnend
                                        @ -- End function
	.section	.text.I2C_ClearTimeoutFlag,"ax",%progbits
	.hidden	I2C_ClearTimeoutFlag            @ -- Begin function I2C_ClearTimeoutFlag
	.globl	I2C_ClearTimeoutFlag
	.p2align	1
	.type	I2C_ClearTimeoutFlag,%function
	.code	16                              @ @I2C_ClearTimeoutFlag
	.thumb_func
I2C_ClearTimeoutFlag:
.Lfunc_begin5:
	.loc	2 111 0 is_stmt 1               @ ../../../../Library/StdDriver/src/i2c.c:111:0
	.fnstart
	.cfi_startproc
@ %bb.0:
	.pad	#4
	sub	sp, #4
	.cfi_def_cfa_offset 4
	str	r0, [sp]
.Ltmp31:
	.loc	2 112 5 prologue_end            @ ../../../../Library/StdDriver/src/i2c.c:112:5
	ldr	r1, [sp]
	.loc	2 112 16 is_stmt 0              @ ../../../../Library/StdDriver/src/i2c.c:112:16
	ldr	r0, [r1, #20]
	movs	r2, #1
	orrs	r0, r2
	str	r0, [r1, #20]
	.loc	2 113 1 epilogue_begin is_stmt 1 @ ../../../../Library/StdDriver/src/i2c.c:113:1
	add	sp, #4
	bx	lr
.Ltmp32:
.Lfunc_end5:
	.size	I2C_ClearTimeoutFlag, .Lfunc_end5-I2C_ClearTimeoutFlag
	.cfi_endproc
	.cantunwind
	.fnend
                                        @ -- End function
	.section	.text.I2C_Trigger,"ax",%progbits
	.hidden	I2C_Trigger                     @ -- Begin function I2C_Trigger
	.globl	I2C_Trigger
	.p2align	1
	.type	I2C_Trigger,%function
	.code	16                              @ @I2C_Trigger
	.thumb_func
I2C_Trigger:
.Lfunc_begin6:
	.loc	2 128 0                         @ ../../../../Library/StdDriver/src/i2c.c:128:0
	.fnstart
	.cfi_startproc
@ %bb.0:
	.save	{r4, r5, r7, lr}
	push	{r4, r5, r7, lr}
	.cfi_def_cfa_offset 16
	.cfi_offset lr, -4
	.cfi_offset r7, -8
	.cfi_offset r5, -12
	.cfi_offset r4, -16
	.pad	#24
	sub	sp, #24
	.cfi_def_cfa_offset 40
	mov	r4, r1
	ldr	r1, [sp, #40]
                                        @ kill: def $r5 killed $r3
                                        @ kill: def $r5 killed $r2
                                        @ kill: def $r5 killed $r4
	str	r0, [sp, #20]
	add	r0, sp, #16
	strb	r4, [r0]
	add	r4, sp, #12
	strb	r2, [r4]
	add	r2, sp, #8
	strb	r3, [r2]
	add	r2, sp, #4
	strb	r1, [r2]
	movs	r1, #0
.Ltmp33:
	.loc	2 129 14 prologue_end           @ ../../../../Library/StdDriver/src/i2c.c:129:14
	str	r1, [sp]
.Ltmp34:
	.loc	2 131 9                         @ ../../../../Library/StdDriver/src/i2c.c:131:9
	ldrb	r0, [r0]
.Ltmp35:
	.loc	2 131 9 is_stmt 0               @ ../../../../Library/StdDriver/src/i2c.c:131:9
	cbz	r0, .LBB6_2
	b	.LBB6_1
.LBB6_1:
.Ltmp36:
	.loc	2 133 16 is_stmt 1              @ ../../../../Library/StdDriver/src/i2c.c:133:16
	ldr	r0, [sp]
	movs	r1, #32
	orrs	r0, r1
	str	r0, [sp]
	.loc	2 134 5                         @ ../../../../Library/StdDriver/src/i2c.c:134:5
	b	.LBB6_2
.Ltmp37:
.LBB6_2:
	.loc	2 0 5 is_stmt 0                 @ ../../../../Library/StdDriver/src/i2c.c:0:5
	add	r0, sp, #12
.Ltmp38:
	.loc	2 136 9 is_stmt 1               @ ../../../../Library/StdDriver/src/i2c.c:136:9
	ldrb	r0, [r0]
.Ltmp39:
	.loc	2 136 9 is_stmt 0               @ ../../../../Library/StdDriver/src/i2c.c:136:9
	cbz	r0, .LBB6_4
	b	.LBB6_3
.LBB6_3:
.Ltmp40:
	.loc	2 138 16 is_stmt 1              @ ../../../../Library/StdDriver/src/i2c.c:138:16
	ldr	r0, [sp]
	movs	r1, #16
	orrs	r0, r1
	str	r0, [sp]
	.loc	2 139 5                         @ ../../../../Library/StdDriver/src/i2c.c:139:5
	b	.LBB6_4
.Ltmp41:
.LBB6_4:
	.loc	2 0 5 is_stmt 0                 @ ../../../../Library/StdDriver/src/i2c.c:0:5
	add	r0, sp, #8
.Ltmp42:
	.loc	2 141 9 is_stmt 1               @ ../../../../Library/StdDriver/src/i2c.c:141:9
	ldrb	r0, [r0]
.Ltmp43:
	.loc	2 141 9 is_stmt 0               @ ../../../../Library/StdDriver/src/i2c.c:141:9
	cbz	r0, .LBB6_6
	b	.LBB6_5
.LBB6_5:
.Ltmp44:
	.loc	2 143 16 is_stmt 1              @ ../../../../Library/StdDriver/src/i2c.c:143:16
	ldr	r0, [sp]
	movs	r1, #8
	orrs	r0, r1
	str	r0, [sp]
	.loc	2 144 5                         @ ../../../../Library/StdDriver/src/i2c.c:144:5
	b	.LBB6_6
.Ltmp45:
.LBB6_6:
	.loc	2 0 5 is_stmt 0                 @ ../../../../Library/StdDriver/src/i2c.c:0:5
	add	r0, sp, #4
.Ltmp46:
	.loc	2 146 9 is_stmt 1               @ ../../../../Library/StdDriver/src/i2c.c:146:9
	ldrb	r0, [r0]
.Ltmp47:
	.loc	2 146 9 is_stmt 0               @ ../../../../Library/StdDriver/src/i2c.c:146:9
	cbz	r0, .LBB6_8
	b	.LBB6_7
.LBB6_7:
.Ltmp48:
	.loc	2 148 16 is_stmt 1              @ ../../../../Library/StdDriver/src/i2c.c:148:16
	ldr	r0, [sp]
	movs	r1, #4
	orrs	r0, r1
	str	r0, [sp]
	.loc	2 149 5                         @ ../../../../Library/StdDriver/src/i2c.c:149:5
	b	.LBB6_8
.Ltmp49:
.LBB6_8:
	.loc	2 151 18                        @ ../../../../Library/StdDriver/src/i2c.c:151:18
	ldr	r0, [sp, #20]
	.loc	2 151 23 is_stmt 0              @ ../../../../Library/StdDriver/src/i2c.c:151:23
	ldr	r0, [r0]
	movs	r1, #60
	.loc	2 151 28                        @ ../../../../Library/StdDriver/src/i2c.c:151:28
	bics	r0, r1
	.loc	2 151 40                        @ ../../../../Library/StdDriver/src/i2c.c:151:40
	ldr	r1, [sp]
	.loc	2 151 38                        @ ../../../../Library/StdDriver/src/i2c.c:151:38
	orrs	r0, r1
	.loc	2 151 5                         @ ../../../../Library/StdDriver/src/i2c.c:151:5
	ldr	r1, [sp, #20]
	.loc	2 151 15                        @ ../../../../Library/StdDriver/src/i2c.c:151:15
	str	r0, [r1]
	.loc	2 152 1 epilogue_begin is_stmt 1 @ ../../../../Library/StdDriver/src/i2c.c:152:1
	add	sp, #24
	pop	{r4, r5, r7, pc}
.Ltmp50:
.Lfunc_end6:
	.size	I2C_Trigger, .Lfunc_end6-I2C_Trigger
	.cfi_endproc
	.cantunwind
	.fnend
                                        @ -- End function
	.section	.text.I2C_DisableInt,"ax",%progbits
	.hidden	I2C_DisableInt                  @ -- Begin function I2C_DisableInt
	.globl	I2C_DisableInt
	.p2align	1
	.type	I2C_DisableInt,%function
	.code	16                              @ @I2C_DisableInt
	.thumb_func
I2C_DisableInt:
.Lfunc_begin7:
	.loc	2 163 0                         @ ../../../../Library/StdDriver/src/i2c.c:163:0
	.fnstart
	.cfi_startproc
@ %bb.0:
	.pad	#4
	sub	sp, #4
	.cfi_def_cfa_offset 4
	str	r0, [sp]
.Ltmp51:
	.loc	2 164 5 prologue_end            @ ../../../../Library/StdDriver/src/i2c.c:164:5
	ldr	r1, [sp]
	.loc	2 164 15 is_stmt 0              @ ../../../../Library/StdDriver/src/i2c.c:164:15
	ldr	r0, [r1]
	movs	r2, #128
	bics	r0, r2
	str	r0, [r1]
	.loc	2 165 1 epilogue_begin is_stmt 1 @ ../../../../Library/StdDriver/src/i2c.c:165:1
	add	sp, #4
	bx	lr
.Ltmp52:
.Lfunc_end7:
	.size	I2C_DisableInt, .Lfunc_end7-I2C_DisableInt
	.cfi_endproc
	.cantunwind
	.fnend
                                        @ -- End function
	.section	.text.I2C_EnableInt,"ax",%progbits
	.hidden	I2C_EnableInt                   @ -- Begin function I2C_EnableInt
	.globl	I2C_EnableInt
	.p2align	1
	.type	I2C_EnableInt,%function
	.code	16                              @ @I2C_EnableInt
	.thumb_func
I2C_EnableInt:
.Lfunc_begin8:
	.loc	2 176 0                         @ ../../../../Library/StdDriver/src/i2c.c:176:0
	.fnstart
	.cfi_startproc
@ %bb.0:
	.pad	#4
	sub	sp, #4
	.cfi_def_cfa_offset 4
	str	r0, [sp]
.Ltmp53:
	.loc	2 177 5 prologue_end            @ ../../../../Library/StdDriver/src/i2c.c:177:5
	ldr	r1, [sp]
	.loc	2 177 15 is_stmt 0              @ ../../../../Library/StdDriver/src/i2c.c:177:15
	ldr	r0, [r1]
	movs	r2, #128
	orrs	r0, r2
	str	r0, [r1]
	.loc	2 178 1 epilogue_begin is_stmt 1 @ ../../../../Library/StdDriver/src/i2c.c:178:1
	add	sp, #4
	bx	lr
.Ltmp54:
.Lfunc_end8:
	.size	I2C_EnableInt, .Lfunc_end8-I2C_EnableInt
	.cfi_endproc
	.cantunwind
	.fnend
                                        @ -- End function
	.section	.text.I2C_GetBusClockFreq,"ax",%progbits
	.hidden	I2C_GetBusClockFreq             @ -- Begin function I2C_GetBusClockFreq
	.globl	I2C_GetBusClockFreq
	.p2align	2
	.type	I2C_GetBusClockFreq,%function
	.code	16                              @ @I2C_GetBusClockFreq
	.thumb_func
I2C_GetBusClockFreq:
.Lfunc_begin9:
	.loc	2 190 0                         @ ../../../../Library/StdDriver/src/i2c.c:190:0
	.fnstart
	.cfi_startproc
@ %bb.0:
	.save	{r7, lr}
	push	{r7, lr}
	.cfi_def_cfa_offset 8
	.cfi_offset lr, -4
	.cfi_offset r7, -8
	.pad	#16
	sub	sp, #16
	.cfi_def_cfa_offset 24
	str	r0, [sp, #12]
.Ltmp55:
	.loc	2 191 27 prologue_end           @ ../../../../Library/StdDriver/src/i2c.c:191:27
	ldr	r0, [sp, #12]
	.loc	2 191 32 is_stmt 0              @ ../../../../Library/StdDriver/src/i2c.c:191:32
	ldr	r0, [r0, #16]
	.loc	2 191 14                        @ ../../../../Library/StdDriver/src/i2c.c:191:14
	str	r0, [sp, #8]
.Ltmp56:
	.loc	2 194 9 is_stmt 1               @ ../../../../Library/StdDriver/src/i2c.c:194:9
	ldr	r0, [sp, #12]
	ldr	r1, __arm_cp.9_0
.Ltmp57:
	.loc	2 194 9 is_stmt 0               @ ../../../../Library/StdDriver/src/i2c.c:194:9
	cmp	r0, r1
	bne	.LBB9_2
	b	.LBB9_1
.LBB9_1:
.Ltmp58:
	.loc	2 196 19 is_stmt 1              @ ../../../../Library/StdDriver/src/i2c.c:196:19
	bl	CLK_GetPCLK1Freq
	.loc	2 196 17 is_stmt 0              @ ../../../../Library/StdDriver/src/i2c.c:196:17
	str	r0, [sp, #4]
	.loc	2 197 5 is_stmt 1               @ ../../../../Library/StdDriver/src/i2c.c:197:5
	b	.LBB9_3
.Ltmp59:
.LBB9_2:
	.loc	2 200 19                        @ ../../../../Library/StdDriver/src/i2c.c:200:19
	bl	CLK_GetPCLK0Freq
	.loc	2 200 17 is_stmt 0              @ ../../../../Library/StdDriver/src/i2c.c:200:17
	str	r0, [sp, #4]
	b	.LBB9_3
.Ltmp60:
.LBB9_3:
	.loc	2 203 13 is_stmt 1              @ ../../../../Library/StdDriver/src/i2c.c:203:13
	ldr	r0, [sp, #4]
	.loc	2 203 25 is_stmt 0              @ ../../../../Library/StdDriver/src/i2c.c:203:25
	ldr	r1, [sp, #8]
	.loc	2 203 36                        @ ../../../../Library/StdDriver/src/i2c.c:203:36
	lsls	r1, r1, #2
	.loc	2 203 42                        @ ../../../../Library/StdDriver/src/i2c.c:203:42
	adds	r1, r1, #4
	.loc	2 203 21                        @ ../../../../Library/StdDriver/src/i2c.c:203:21
	udiv	r0, r0, r1
	.loc	2 203 5 epilogue_begin          @ ../../../../Library/StdDriver/src/i2c.c:203:5
	add	sp, #16
	pop	{r7, pc}
.Ltmp61:
	.p2align	2
@ %bb.4:
	.loc	2 0 5                           @ ../../../../Library/StdDriver/src/i2c.c:0:5
__arm_cp.9_0:
	.long	1074270208                      @ 0x40081000
.Lcpi_end7:
	.size	__arm_cp.9_0, .Lcpi_end7-__arm_cp.9_0
.Lfunc_end9:
	.size	I2C_GetBusClockFreq, .Lfunc_end9-I2C_GetBusClockFreq
	.cfi_endproc
	.cantunwind
	.fnend
                                        @ -- End function
	.section	.text.I2C_SetBusClockFreq,"ax",%progbits
	.hidden	I2C_SetBusClockFreq             @ -- Begin function I2C_SetBusClockFreq
	.globl	I2C_SetBusClockFreq
	.p2align	2
	.type	I2C_SetBusClockFreq,%function
	.code	16                              @ @I2C_SetBusClockFreq
	.thumb_func
I2C_SetBusClockFreq:
.Lfunc_begin10:
	.loc	2 217 0 is_stmt 1               @ ../../../../Library/StdDriver/src/i2c.c:217:0
	.fnstart
	.cfi_startproc
@ %bb.0:
	.save	{r7, lr}
	push	{r7, lr}
	.cfi_def_cfa_offset 8
	.cfi_offset lr, -4
	.cfi_offset r7, -8
	.pad	#16
	sub	sp, #16
	.cfi_def_cfa_offset 24
	str	r0, [sp, #12]
	str	r1, [sp, #8]
.Ltmp62:
	.loc	2 221 9 prologue_end            @ ../../../../Library/StdDriver/src/i2c.c:221:9
	ldr	r0, [sp, #12]
	ldr	r1, __arm_cp.10_0
.Ltmp63:
	.loc	2 221 9 is_stmt 0               @ ../../../../Library/StdDriver/src/i2c.c:221:9
	cmp	r0, r1
	bne	.LBB10_2
	b	.LBB10_1
.LBB10_1:
.Ltmp64:
	.loc	2 223 19 is_stmt 1              @ ../../../../Library/StdDriver/src/i2c.c:223:19
	bl	CLK_GetPCLK1Freq
	.loc	2 223 17 is_stmt 0              @ ../../../../Library/StdDriver/src/i2c.c:223:17
	str	r0, [sp]
	.loc	2 224 5 is_stmt 1               @ ../../../../Library/StdDriver/src/i2c.c:224:5
	b	.LBB10_3
.Ltmp65:
.LBB10_2:
	.loc	2 227 19                        @ ../../../../Library/StdDriver/src/i2c.c:227:19
	bl	CLK_GetPCLK0Freq
	.loc	2 227 17 is_stmt 0              @ ../../../../Library/StdDriver/src/i2c.c:227:17
	str	r0, [sp]
	b	.LBB10_3
.Ltmp66:
.LBB10_3:
	.loc	2 230 27 is_stmt 1              @ ../../../../Library/StdDriver/src/i2c.c:230:27
	ldr	r2, [sp]
	movs	r1, #10
	.loc	2 230 35 is_stmt 0              @ ../../../../Library/StdDriver/src/i2c.c:230:35
	mov	r0, r1
	muls	r0, r2, r0
	.loc	2 230 45                        @ ../../../../Library/StdDriver/src/i2c.c:230:45
	ldr	r2, [sp, #8]
	.loc	2 230 57                        @ ../../../../Library/StdDriver/src/i2c.c:230:57
	lsls	r2, r2, #2
	.loc	2 230 42                        @ ../../../../Library/StdDriver/src/i2c.c:230:42
	udiv	r0, r0, r2
	.loc	2 230 63                        @ ../../../../Library/StdDriver/src/i2c.c:230:63
	adds	r0, r0, #5
	.loc	2 230 69                        @ ../../../../Library/StdDriver/src/i2c.c:230:69
	udiv	r0, r0, r1
	.loc	2 230 75                        @ ../../../../Library/StdDriver/src/i2c.c:230:75
	subs	r0, r0, #1
	.loc	2 230 12                        @ ../../../../Library/StdDriver/src/i2c.c:230:12
	str	r0, [sp, #4]
	.loc	2 231 19 is_stmt 1              @ ../../../../Library/StdDriver/src/i2c.c:231:19
	ldr	r0, [sp, #4]
	.loc	2 231 5 is_stmt 0               @ ../../../../Library/StdDriver/src/i2c.c:231:5
	ldr	r1, [sp, #12]
	.loc	2 231 17                        @ ../../../../Library/StdDriver/src/i2c.c:231:17
	str	r0, [r1, #16]
	.loc	2 233 13 is_stmt 1              @ ../../../../Library/StdDriver/src/i2c.c:233:13
	ldr	r0, [sp]
	.loc	2 233 25 is_stmt 0              @ ../../../../Library/StdDriver/src/i2c.c:233:25
	ldr	r1, [sp, #4]
	.loc	2 233 32                        @ ../../../../Library/StdDriver/src/i2c.c:233:32
	lsls	r1, r1, #2
	.loc	2 233 38                        @ ../../../../Library/StdDriver/src/i2c.c:233:38
	adds	r1, r1, #4
	.loc	2 233 21                        @ ../../../../Library/StdDriver/src/i2c.c:233:21
	udiv	r0, r0, r1
	.loc	2 233 5 epilogue_begin          @ ../../../../Library/StdDriver/src/i2c.c:233:5
	add	sp, #16
	pop	{r7, pc}
.Ltmp67:
	.p2align	2
@ %bb.4:
	.loc	2 0 5                           @ ../../../../Library/StdDriver/src/i2c.c:0:5
__arm_cp.10_0:
	.long	1074270208                      @ 0x40081000
.Lcpi_end8:
	.size	__arm_cp.10_0, .Lcpi_end8-__arm_cp.10_0
.Lfunc_end10:
	.size	I2C_SetBusClockFreq, .Lfunc_end10-I2C_SetBusClockFreq
	.cfi_endproc
	.cantunwind
	.fnend
                                        @ -- End function
	.section	.text.I2C_GetIntFlag,"ax",%progbits
	.hidden	I2C_GetIntFlag                  @ -- Begin function I2C_GetIntFlag
	.globl	I2C_GetIntFlag
	.p2align	1
	.type	I2C_GetIntFlag,%function
	.code	16                              @ @I2C_GetIntFlag
	.thumb_func
I2C_GetIntFlag:
.Lfunc_begin11:
	.loc	2 246 0 is_stmt 1               @ ../../../../Library/StdDriver/src/i2c.c:246:0
	.fnstart
	.cfi_startproc
@ %bb.0:
	.pad	#4
	sub	sp, #4
	.cfi_def_cfa_offset 4
	str	r0, [sp]
.Ltmp68:
	.loc	2 247 14 prologue_end           @ ../../../../Library/StdDriver/src/i2c.c:247:14
	ldr	r0, [sp]
	.loc	2 247 19 is_stmt 0              @ ../../../../Library/StdDriver/src/i2c.c:247:19
	ldr	r0, [r0]
	movs	r1, #8
	.loc	2 247 24                        @ ../../../../Library/StdDriver/src/i2c.c:247:24
	ands	r0, r1
	.loc	2 247 43                        @ ../../../../Library/StdDriver/src/i2c.c:247:43
	lsrs	r0, r0, #3
	.loc	2 247 5 epilogue_begin          @ ../../../../Library/StdDriver/src/i2c.c:247:5
	add	sp, #4
	bx	lr
.Ltmp69:
.Lfunc_end11:
	.size	I2C_GetIntFlag, .Lfunc_end11-I2C_GetIntFlag
	.cfi_endproc
	.cantunwind
	.fnend
                                        @ -- End function
	.section	.text.I2C_GetStatus,"ax",%progbits
	.hidden	I2C_GetStatus                   @ -- Begin function I2C_GetStatus
	.globl	I2C_GetStatus
	.p2align	1
	.type	I2C_GetStatus,%function
	.code	16                              @ @I2C_GetStatus
	.thumb_func
I2C_GetStatus:
.Lfunc_begin12:
	.loc	2 260 0 is_stmt 1               @ ../../../../Library/StdDriver/src/i2c.c:260:0
	.fnstart
	.cfi_startproc
@ %bb.0:
	.pad	#4
	sub	sp, #4
	.cfi_def_cfa_offset 4
	str	r0, [sp]
.Ltmp70:
	.loc	2 261 13 prologue_end           @ ../../../../Library/StdDriver/src/i2c.c:261:13
	ldr	r0, [sp]
	.loc	2 261 18 is_stmt 0              @ ../../../../Library/StdDriver/src/i2c.c:261:18
	ldr	r0, [r0, #12]
	.loc	2 261 5 epilogue_begin          @ ../../../../Library/StdDriver/src/i2c.c:261:5
	add	sp, #4
	bx	lr
.Ltmp71:
.Lfunc_end12:
	.size	I2C_GetStatus, .Lfunc_end12-I2C_GetStatus
	.cfi_endproc
	.cantunwind
	.fnend
                                        @ -- End function
	.section	.text.I2C_GetData,"ax",%progbits
	.hidden	I2C_GetData                     @ -- Begin function I2C_GetData
	.globl	I2C_GetData
	.p2align	1
	.type	I2C_GetData,%function
	.code	16                              @ @I2C_GetData
	.thumb_func
I2C_GetData:
.Lfunc_begin13:
	.loc	2 274 0 is_stmt 1               @ ../../../../Library/StdDriver/src/i2c.c:274:0
	.fnstart
	.cfi_startproc
@ %bb.0:
	.pad	#4
	sub	sp, #4
	.cfi_def_cfa_offset 4
	str	r0, [sp]
.Ltmp72:
	.loc	2 275 22 prologue_end           @ ../../../../Library/StdDriver/src/i2c.c:275:22
	ldr	r0, [sp]
	.loc	2 275 27 is_stmt 0              @ ../../../../Library/StdDriver/src/i2c.c:275:27
	ldr	r0, [r0, #8]
	.loc	2 275 5                         @ ../../../../Library/StdDriver/src/i2c.c:275:5
	uxtb	r0, r0
	.loc	2 275 5 epilogue_begin          @ ../../../../Library/StdDriver/src/i2c.c:275:5
	add	sp, #4
	bx	lr
.Ltmp73:
.Lfunc_end13:
	.size	I2C_GetData, .Lfunc_end13-I2C_GetData
	.cfi_endproc
	.cantunwind
	.fnend
                                        @ -- End function
	.section	.text.I2C_SetData,"ax",%progbits
	.hidden	I2C_SetData                     @ -- Begin function I2C_SetData
	.globl	I2C_SetData
	.p2align	1
	.type	I2C_SetData,%function
	.code	16                              @ @I2C_SetData
	.thumb_func
I2C_SetData:
.Lfunc_begin14:
	.loc	2 287 0 is_stmt 1               @ ../../../../Library/StdDriver/src/i2c.c:287:0
	.fnstart
	.cfi_startproc
@ %bb.0:
	.pad	#8
	sub	sp, #8
	.cfi_def_cfa_offset 8
                                        @ kill: def $r2 killed $r1
	str	r0, [sp, #4]
	mov	r0, sp
	strb	r1, [r0]
.Ltmp74:
	.loc	2 288 16 prologue_end           @ ../../../../Library/StdDriver/src/i2c.c:288:16
	ldrb	r0, [r0]
	.loc	2 288 5 is_stmt 0               @ ../../../../Library/StdDriver/src/i2c.c:288:5
	ldr	r1, [sp, #4]
	.loc	2 288 14                        @ ../../../../Library/StdDriver/src/i2c.c:288:14
	str	r0, [r1, #8]
	.loc	2 289 1 epilogue_begin is_stmt 1 @ ../../../../Library/StdDriver/src/i2c.c:289:1
	add	sp, #8
	bx	lr
.Ltmp75:
.Lfunc_end14:
	.size	I2C_SetData, .Lfunc_end14-I2C_SetData
	.cfi_endproc
	.cantunwind
	.fnend
                                        @ -- End function
	.section	.text.I2C_SetSlaveAddr,"ax",%progbits
	.hidden	I2C_SetSlaveAddr                @ -- Begin function I2C_SetSlaveAddr
	.globl	I2C_SetSlaveAddr
	.p2align	2
	.type	I2C_SetSlaveAddr,%function
	.code	16                              @ @I2C_SetSlaveAddr
	.thumb_func
I2C_SetSlaveAddr:
.Lfunc_begin15:
	.loc	2 304 0                         @ ../../../../Library/StdDriver/src/i2c.c:304:0
	.fnstart
	.cfi_startproc
@ %bb.0:
	.save	{r4, lr}
	push	{r4, lr}
	.cfi_def_cfa_offset 8
	.cfi_offset lr, -4
	.cfi_offset r4, -8
	.pad	#24
	sub	sp, #24
	.cfi_def_cfa_offset 32
                                        @ kill: def $r4 killed $r3
                                        @ kill: def $r4 killed $r2
                                        @ kill: def $r4 killed $r1
	str	r0, [sp, #20]
	add	r0, sp, #16
	strb	r1, [r0]
	add	r1, sp, #12
	strh	r2, [r1]
	add	r2, sp, #8
	strb	r3, [r2]
.Ltmp76:
	.loc	2 305 50 prologue_end           @ ../../../../Library/StdDriver/src/i2c.c:305:50
	ldrh	r1, [r1]
	.loc	2 305 72 is_stmt 0              @ ../../../../Library/StdDriver/src/i2c.c:305:72
	lsls	r1, r1, #22
	lsrs	r1, r1, #21
	.loc	2 305 81                        @ ../../../../Library/StdDriver/src/i2c.c:305:81
	ldrb	r2, [r2]
	.loc	2 305 79                        @ ../../../../Library/StdDriver/src/i2c.c:305:79
	orrs	r1, r2
	.loc	2 305 20                        @ ../../../../Library/StdDriver/src/i2c.c:305:20
	str	r1, [sp, #4]
	.loc	2 307 13 is_stmt 1              @ ../../../../Library/StdDriver/src/i2c.c:307:13
	ldrb	r0, [r0]
	.loc	2 307 5 is_stmt 0               @ ../../../../Library/StdDriver/src/i2c.c:307:5
	str	r0, [sp]                        @ 4-byte Spill
	cmp	r0, #3
	bhi	.LBB15_7
@ %bb.1:
	ldr	r1, [sp]                        @ 4-byte Reload
	lsls	r2, r1, #2
	adr	r0, .LJTI15_0
	adds	r0, r0, r2
	mov	pc, r0
@ %bb.2:
	.loc	2 0 5                           @ ../../../../Library/StdDriver/src/i2c.c:0:5
	.p2align	2
.LJTI15_0:
	b.w	.LBB15_6
	b.w	.LBB15_3
	b.w	.LBB15_4
	b.w	.LBB15_5
.LBB15_3:
.Ltmp77:
	.loc	2 310 27 is_stmt 1              @ ../../../../Library/StdDriver/src/i2c.c:310:27
	ldr	r0, [sp, #4]
	.loc	2 310 13 is_stmt 0              @ ../../../../Library/StdDriver/src/i2c.c:310:13
	ldr	r1, [sp, #20]
	.loc	2 310 25                        @ ../../../../Library/StdDriver/src/i2c.c:310:25
	str	r0, [r1, #24]
	.loc	2 311 13 is_stmt 1              @ ../../../../Library/StdDriver/src/i2c.c:311:13
	b	.LBB15_8
.LBB15_4:
	.loc	2 314 27                        @ ../../../../Library/StdDriver/src/i2c.c:314:27
	ldr	r0, [sp, #4]
	.loc	2 314 13 is_stmt 0              @ ../../../../Library/StdDriver/src/i2c.c:314:13
	ldr	r1, [sp, #20]
	.loc	2 314 25                        @ ../../../../Library/StdDriver/src/i2c.c:314:25
	str	r0, [r1, #28]
	.loc	2 315 13 is_stmt 1              @ ../../../../Library/StdDriver/src/i2c.c:315:13
	b	.LBB15_8
.LBB15_5:
	.loc	2 318 27                        @ ../../../../Library/StdDriver/src/i2c.c:318:27
	ldr	r0, [sp, #4]
	.loc	2 318 13 is_stmt 0              @ ../../../../Library/StdDriver/src/i2c.c:318:13
	ldr	r1, [sp, #20]
	.loc	2 318 25                        @ ../../../../Library/StdDriver/src/i2c.c:318:25
	str	r0, [r1, #32]
	.loc	2 319 13 is_stmt 1              @ ../../../../Library/StdDriver/src/i2c.c:319:13
	b	.LBB15_8
.LBB15_6:
	.loc	2 321 9                         @ ../../../../Library/StdDriver/src/i2c.c:321:9
	b	.LBB15_7
.LBB15_7:
	.loc	2 323 27                        @ ../../../../Library/StdDriver/src/i2c.c:323:27
	ldr	r0, [sp, #4]
	.loc	2 323 13 is_stmt 0              @ ../../../../Library/StdDriver/src/i2c.c:323:13
	ldr	r1, [sp, #20]
	.loc	2 323 25                        @ ../../../../Library/StdDriver/src/i2c.c:323:25
	str	r0, [r1, #4]
	.loc	2 324 13 is_stmt 1              @ ../../../../Library/StdDriver/src/i2c.c:324:13
	b	.LBB15_8
.Ltmp78:
.LBB15_8:
	.loc	2 326 1 epilogue_begin          @ ../../../../Library/StdDriver/src/i2c.c:326:1
	add	sp, #24
	pop	{r4, pc}
.Ltmp79:
.Lfunc_end15:
	.size	I2C_SetSlaveAddr, .Lfunc_end15-I2C_SetSlaveAddr
	.cfi_endproc
	.cantunwind
	.fnend
                                        @ -- End function
	.section	.text.I2C_SetSlaveAddrMask,"ax",%progbits
	.hidden	I2C_SetSlaveAddrMask            @ -- Begin function I2C_SetSlaveAddrMask
	.globl	I2C_SetSlaveAddrMask
	.p2align	2
	.type	I2C_SetSlaveAddrMask,%function
	.code	16                              @ @I2C_SetSlaveAddrMask
	.thumb_func
I2C_SetSlaveAddrMask:
.Lfunc_begin16:
	.loc	2 339 0                         @ ../../../../Library/StdDriver/src/i2c.c:339:0
	.fnstart
	.cfi_startproc
@ %bb.0:
	.pad	#20
	sub	sp, #20
	.cfi_def_cfa_offset 20
                                        @ kill: def $r3 killed $r2
                                        @ kill: def $r3 killed $r1
	str	r0, [sp, #16]
	add	r0, sp, #12
	strb	r1, [r0]
	add	r1, sp, #8
	strh	r2, [r1]
.Ltmp80:
	.loc	2 340 52 prologue_end           @ ../../../../Library/StdDriver/src/i2c.c:340:52
	ldrh	r1, [r1]
	.loc	2 340 78 is_stmt 0              @ ../../../../Library/StdDriver/src/i2c.c:340:78
	lsls	r1, r1, #22
	lsrs	r1, r1, #21
	.loc	2 340 20                        @ ../../../../Library/StdDriver/src/i2c.c:340:20
	str	r1, [sp, #4]
	.loc	2 342 13 is_stmt 1              @ ../../../../Library/StdDriver/src/i2c.c:342:13
	ldrb	r0, [r0]
	.loc	2 342 5 is_stmt 0               @ ../../../../Library/StdDriver/src/i2c.c:342:5
	str	r0, [sp]                        @ 4-byte Spill
	cmp	r0, #3
	bhi	.LBB16_7
@ %bb.1:
	ldr	r1, [sp]                        @ 4-byte Reload
	lsls	r2, r1, #2
	adr	r0, .LJTI16_0
	adds	r0, r0, r2
	mov	pc, r0
@ %bb.2:
	.loc	2 0 5                           @ ../../../../Library/StdDriver/src/i2c.c:0:5
	.p2align	2
.LJTI16_0:
	b.w	.LBB16_6
	b.w	.LBB16_3
	b.w	.LBB16_4
	b.w	.LBB16_5
.LBB16_3:
.Ltmp81:
	.loc	2 345 30 is_stmt 1              @ ../../../../Library/StdDriver/src/i2c.c:345:30
	ldr	r0, [sp, #4]
	.loc	2 345 13 is_stmt 0              @ ../../../../Library/StdDriver/src/i2c.c:345:13
	ldr	r1, [sp, #16]
	.loc	2 345 28                        @ ../../../../Library/StdDriver/src/i2c.c:345:28
	str	r0, [r1, #40]
	.loc	2 346 13 is_stmt 1              @ ../../../../Library/StdDriver/src/i2c.c:346:13
	b	.LBB16_8
.LBB16_4:
	.loc	2 349 30                        @ ../../../../Library/StdDriver/src/i2c.c:349:30
	ldr	r0, [sp, #4]
	.loc	2 349 13 is_stmt 0              @ ../../../../Library/StdDriver/src/i2c.c:349:13
	ldr	r1, [sp, #16]
	.loc	2 349 28                        @ ../../../../Library/StdDriver/src/i2c.c:349:28
	str	r0, [r1, #44]
	.loc	2 350 13 is_stmt 1              @ ../../../../Library/StdDriver/src/i2c.c:350:13
	b	.LBB16_8
.LBB16_5:
	.loc	2 353 30                        @ ../../../../Library/StdDriver/src/i2c.c:353:30
	ldr	r0, [sp, #4]
	.loc	2 353 13 is_stmt 0              @ ../../../../Library/StdDriver/src/i2c.c:353:13
	ldr	r1, [sp, #16]
	.loc	2 353 28                        @ ../../../../Library/StdDriver/src/i2c.c:353:28
	str	r0, [r1, #48]
	.loc	2 354 13 is_stmt 1              @ ../../../../Library/StdDriver/src/i2c.c:354:13
	b	.LBB16_8
.LBB16_6:
	.loc	2 356 9                         @ ../../../../Library/StdDriver/src/i2c.c:356:9
	b	.LBB16_7
.LBB16_7:
	.loc	2 358 30                        @ ../../../../Library/StdDriver/src/i2c.c:358:30
	ldr	r0, [sp, #4]
	.loc	2 358 13 is_stmt 0              @ ../../../../Library/StdDriver/src/i2c.c:358:13
	ldr	r1, [sp, #16]
	.loc	2 358 28                        @ ../../../../Library/StdDriver/src/i2c.c:358:28
	str	r0, [r1, #36]
	.loc	2 359 13 is_stmt 1              @ ../../../../Library/StdDriver/src/i2c.c:359:13
	b	.LBB16_8
.Ltmp82:
.LBB16_8:
	.loc	2 361 1 epilogue_begin          @ ../../../../Library/StdDriver/src/i2c.c:361:1
	add	sp, #20
	bx	lr
.Ltmp83:
.Lfunc_end16:
	.size	I2C_SetSlaveAddrMask, .Lfunc_end16-I2C_SetSlaveAddrMask
	.cfi_endproc
	.cantunwind
	.fnend
                                        @ -- End function
	.section	.text.I2C_EnableTimeout,"ax",%progbits
	.hidden	I2C_EnableTimeout               @ -- Begin function I2C_EnableTimeout
	.globl	I2C_EnableTimeout
	.p2align	1
	.type	I2C_EnableTimeout,%function
	.code	16                              @ @I2C_EnableTimeout
	.thumb_func
I2C_EnableTimeout:
.Lfunc_begin17:
	.loc	2 374 0                         @ ../../../../Library/StdDriver/src/i2c.c:374:0
	.fnstart
	.cfi_startproc
@ %bb.0:
	.pad	#8
	sub	sp, #8
	.cfi_def_cfa_offset 8
                                        @ kill: def $r2 killed $r1
	str	r0, [sp, #4]
	mov	r0, sp
	strb	r1, [r0]
.Ltmp84:
	.loc	2 375 9 prologue_end            @ ../../../../Library/StdDriver/src/i2c.c:375:9
	ldrb	r0, [r0]
.Ltmp85:
	.loc	2 375 9 is_stmt 0               @ ../../../../Library/StdDriver/src/i2c.c:375:9
	cbz	r0, .LBB17_2
	b	.LBB17_1
.LBB17_1:
.Ltmp86:
	.loc	2 377 9 is_stmt 1               @ ../../../../Library/StdDriver/src/i2c.c:377:9
	ldr	r1, [sp, #4]
	.loc	2 377 20 is_stmt 0              @ ../../../../Library/StdDriver/src/i2c.c:377:20
	ldr	r0, [r1, #20]
	movs	r2, #2
	orrs	r0, r2
	str	r0, [r1, #20]
	.loc	2 378 5 is_stmt 1               @ ../../../../Library/StdDriver/src/i2c.c:378:5
	b	.LBB17_3
.Ltmp87:
.LBB17_2:
	.loc	2 381 9                         @ ../../../../Library/StdDriver/src/i2c.c:381:9
	ldr	r1, [sp, #4]
	.loc	2 381 20 is_stmt 0              @ ../../../../Library/StdDriver/src/i2c.c:381:20
	ldr	r0, [r1, #20]
	movs	r2, #2
	bics	r0, r2
	str	r0, [r1, #20]
	b	.LBB17_3
.Ltmp88:
.LBB17_3:
	.loc	2 384 5 is_stmt 1               @ ../../../../Library/StdDriver/src/i2c.c:384:5
	ldr	r1, [sp, #4]
	.loc	2 384 16 is_stmt 0              @ ../../../../Library/StdDriver/src/i2c.c:384:16
	ldr	r0, [r1, #20]
	movs	r2, #4
	orrs	r0, r2
	str	r0, [r1, #20]
	.loc	2 385 1 epilogue_begin is_stmt 1 @ ../../../../Library/StdDriver/src/i2c.c:385:1
	add	sp, #8
	bx	lr
.Ltmp89:
.Lfunc_end17:
	.size	I2C_EnableTimeout, .Lfunc_end17-I2C_EnableTimeout
	.cfi_endproc
	.cantunwind
	.fnend
                                        @ -- End function
	.section	.text.I2C_DisableTimeout,"ax",%progbits
	.hidden	I2C_DisableTimeout              @ -- Begin function I2C_DisableTimeout
	.globl	I2C_DisableTimeout
	.p2align	1
	.type	I2C_DisableTimeout,%function
	.code	16                              @ @I2C_DisableTimeout
	.thumb_func
I2C_DisableTimeout:
.Lfunc_begin18:
	.loc	2 396 0                         @ ../../../../Library/StdDriver/src/i2c.c:396:0
	.fnstart
	.cfi_startproc
@ %bb.0:
	.pad	#4
	sub	sp, #4
	.cfi_def_cfa_offset 4
	str	r0, [sp]
.Ltmp90:
	.loc	2 397 5 prologue_end            @ ../../../../Library/StdDriver/src/i2c.c:397:5
	ldr	r1, [sp]
	.loc	2 397 16 is_stmt 0              @ ../../../../Library/StdDriver/src/i2c.c:397:16
	ldr	r0, [r1, #20]
	movs	r2, #4
	bics	r0, r2
	str	r0, [r1, #20]
	.loc	2 398 1 epilogue_begin is_stmt 1 @ ../../../../Library/StdDriver/src/i2c.c:398:1
	add	sp, #4
	bx	lr
.Ltmp91:
.Lfunc_end18:
	.size	I2C_DisableTimeout, .Lfunc_end18-I2C_DisableTimeout
	.cfi_endproc
	.cantunwind
	.fnend
                                        @ -- End function
	.section	.text.I2C_EnableWakeup,"ax",%progbits
	.hidden	I2C_EnableWakeup                @ -- Begin function I2C_EnableWakeup
	.globl	I2C_EnableWakeup
	.p2align	1
	.type	I2C_EnableWakeup,%function
	.code	16                              @ @I2C_EnableWakeup
	.thumb_func
I2C_EnableWakeup:
.Lfunc_begin19:
	.loc	2 409 0                         @ ../../../../Library/StdDriver/src/i2c.c:409:0
	.fnstart
	.cfi_startproc
@ %bb.0:
	.pad	#4
	sub	sp, #4
	.cfi_def_cfa_offset 4
	str	r0, [sp]
.Ltmp92:
	.loc	2 410 5 prologue_end            @ ../../../../Library/StdDriver/src/i2c.c:410:5
	ldr	r1, [sp]
	.loc	2 410 16 is_stmt 0              @ ../../../../Library/StdDriver/src/i2c.c:410:16
	ldr	r0, [r1, #60]
	movs	r2, #1
	orrs	r0, r2
	str	r0, [r1, #60]
	.loc	2 411 1 epilogue_begin is_stmt 1 @ ../../../../Library/StdDriver/src/i2c.c:411:1
	add	sp, #4
	bx	lr
.Ltmp93:
.Lfunc_end19:
	.size	I2C_EnableWakeup, .Lfunc_end19-I2C_EnableWakeup
	.cfi_endproc
	.cantunwind
	.fnend
                                        @ -- End function
	.section	.text.I2C_DisableWakeup,"ax",%progbits
	.hidden	I2C_DisableWakeup               @ -- Begin function I2C_DisableWakeup
	.globl	I2C_DisableWakeup
	.p2align	1
	.type	I2C_DisableWakeup,%function
	.code	16                              @ @I2C_DisableWakeup
	.thumb_func
I2C_DisableWakeup:
.Lfunc_begin20:
	.loc	2 422 0                         @ ../../../../Library/StdDriver/src/i2c.c:422:0
	.fnstart
	.cfi_startproc
@ %bb.0:
	.pad	#4
	sub	sp, #4
	.cfi_def_cfa_offset 4
	str	r0, [sp]
.Ltmp94:
	.loc	2 423 5 prologue_end            @ ../../../../Library/StdDriver/src/i2c.c:423:5
	ldr	r1, [sp]
	.loc	2 423 16 is_stmt 0              @ ../../../../Library/StdDriver/src/i2c.c:423:16
	ldr	r0, [r1, #60]
	movs	r2, #1
	bics	r0, r2
	str	r0, [r1, #60]
	.loc	2 424 1 epilogue_begin is_stmt 1 @ ../../../../Library/StdDriver/src/i2c.c:424:1
	add	sp, #4
	bx	lr
.Ltmp95:
.Lfunc_end20:
	.size	I2C_DisableWakeup, .Lfunc_end20-I2C_DisableWakeup
	.cfi_endproc
	.cantunwind
	.fnend
                                        @ -- End function
	.section	.text.I2C_SMBusGetStatus,"ax",%progbits
	.hidden	I2C_SMBusGetStatus              @ -- Begin function I2C_SMBusGetStatus
	.globl	I2C_SMBusGetStatus
	.p2align	1
	.type	I2C_SMBusGetStatus,%function
	.code	16                              @ @I2C_SMBusGetStatus
	.thumb_func
I2C_SMBusGetStatus:
.Lfunc_begin21:
	.loc	2 437 0                         @ ../../../../Library/StdDriver/src/i2c.c:437:0
	.fnstart
	.cfi_startproc
@ %bb.0:
	.pad	#4
	sub	sp, #4
	.cfi_def_cfa_offset 4
	str	r0, [sp]
.Ltmp96:
	.loc	2 438 13 prologue_end           @ ../../../../Library/StdDriver/src/i2c.c:438:13
	ldr	r0, [sp]
	.loc	2 438 18 is_stmt 0              @ ../../../../Library/StdDriver/src/i2c.c:438:18
	ldr	r0, [r0, #88]
	.loc	2 438 5 epilogue_begin          @ ../../../../Library/StdDriver/src/i2c.c:438:5
	add	sp, #4
	bx	lr
.Ltmp97:
.Lfunc_end21:
	.size	I2C_SMBusGetStatus, .Lfunc_end21-I2C_SMBusGetStatus
	.cfi_endproc
	.cantunwind
	.fnend
                                        @ -- End function
	.section	.text.I2C_SMBusClearInterruptFlag,"ax",%progbits
	.hidden	I2C_SMBusClearInterruptFlag     @ -- Begin function I2C_SMBusClearInterruptFlag
	.globl	I2C_SMBusClearInterruptFlag
	.p2align	1
	.type	I2C_SMBusClearInterruptFlag,%function
	.code	16                              @ @I2C_SMBusClearInterruptFlag
	.thumb_func
I2C_SMBusClearInterruptFlag:
.Lfunc_begin22:
	.loc	2 451 0 is_stmt 1               @ ../../../../Library/StdDriver/src/i2c.c:451:0
	.fnstart
	.cfi_startproc
@ %bb.0:
	.pad	#8
	sub	sp, #8
	.cfi_def_cfa_offset 8
                                        @ kill: def $r2 killed $r1
	str	r0, [sp, #4]
	mov	r0, sp
	strb	r1, [r0]
.Ltmp98:
	.loc	2 452 19 prologue_end           @ ../../../../Library/StdDriver/src/i2c.c:452:19
	ldrb	r0, [r0]
	.loc	2 452 5 is_stmt 0               @ ../../../../Library/StdDriver/src/i2c.c:452:5
	ldr	r1, [sp, #4]
	.loc	2 452 17                        @ ../../../../Library/StdDriver/src/i2c.c:452:17
	str	r0, [r1, #88]
	.loc	2 453 1 epilogue_begin is_stmt 1 @ ../../../../Library/StdDriver/src/i2c.c:453:1
	add	sp, #8
	bx	lr
.Ltmp99:
.Lfunc_end22:
	.size	I2C_SMBusClearInterruptFlag, .Lfunc_end22-I2C_SMBusClearInterruptFlag
	.cfi_endproc
	.cantunwind
	.fnend
                                        @ -- End function
	.section	.text.I2C_SMBusSetPacketByteCount,"ax",%progbits
	.hidden	I2C_SMBusSetPacketByteCount     @ -- Begin function I2C_SMBusSetPacketByteCount
	.globl	I2C_SMBusSetPacketByteCount
	.p2align	1
	.type	I2C_SMBusSetPacketByteCount,%function
	.code	16                              @ @I2C_SMBusSetPacketByteCount
	.thumb_func
I2C_SMBusSetPacketByteCount:
.Lfunc_begin23:
	.loc	2 465 0                         @ ../../../../Library/StdDriver/src/i2c.c:465:0
	.fnstart
	.cfi_startproc
@ %bb.0:
	.pad	#8
	sub	sp, #8
	.cfi_def_cfa_offset 8
	str	r0, [sp, #4]
	str	r1, [sp]
.Ltmp100:
	.loc	2 466 20 prologue_end           @ ../../../../Library/StdDriver/src/i2c.c:466:20
	ldr	r0, [sp]
	.loc	2 466 5 is_stmt 0               @ ../../../../Library/StdDriver/src/i2c.c:466:5
	ldr	r1, [sp, #4]
	.loc	2 466 18                        @ ../../../../Library/StdDriver/src/i2c.c:466:18
	str	r0, [r1, #92]
	.loc	2 467 1 epilogue_begin is_stmt 1 @ ../../../../Library/StdDriver/src/i2c.c:467:1
	add	sp, #8
	bx	lr
.Ltmp101:
.Lfunc_end23:
	.size	I2C_SMBusSetPacketByteCount, .Lfunc_end23-I2C_SMBusSetPacketByteCount
	.cfi_endproc
	.cantunwind
	.fnend
                                        @ -- End function
	.section	.text.I2C_SMBusOpen,"ax",%progbits
	.hidden	I2C_SMBusOpen                   @ -- Begin function I2C_SMBusOpen
	.globl	I2C_SMBusOpen
	.p2align	1
	.type	I2C_SMBusOpen,%function
	.code	16                              @ @I2C_SMBusOpen
	.thumb_func
I2C_SMBusOpen:
.Lfunc_begin24:
	.loc	2 479 0                         @ ../../../../Library/StdDriver/src/i2c.c:479:0
	.fnstart
	.cfi_startproc
@ %bb.0:
	.pad	#8
	sub	sp, #8
	.cfi_def_cfa_offset 8
                                        @ kill: def $r2 killed $r1
	str	r0, [sp, #4]
	mov	r0, sp
	strb	r1, [r0]
.Ltmp102:
	.loc	2 481 5 prologue_end            @ ../../../../Library/StdDriver/src/i2c.c:481:5
	ldr	r2, [sp, #4]
	.loc	2 481 17 is_stmt 0              @ ../../../../Library/StdDriver/src/i2c.c:481:17
	ldr	r1, [r2, #80]
	movs	r3, #12
	bics	r1, r3
	str	r1, [r2, #80]
.Ltmp103:
	.loc	2 484 9 is_stmt 1               @ ../../../../Library/StdDriver/src/i2c.c:484:9
	ldrb	r0, [r0]
.Ltmp104:
	.loc	2 484 9 is_stmt 0               @ ../../../../Library/StdDriver/src/i2c.c:484:9
	cmp	r0, #1
	bne	.LBB24_2
	b	.LBB24_1
.LBB24_1:
.Ltmp105:
	.loc	2 486 9 is_stmt 1               @ ../../../../Library/StdDriver/src/i2c.c:486:9
	ldr	r1, [sp, #4]
	.loc	2 486 21 is_stmt 0              @ ../../../../Library/StdDriver/src/i2c.c:486:21
	ldr	r0, [r1, #80]
	movs	r2, #136
	orrs	r0, r2
	str	r0, [r1, #80]
	.loc	2 487 5 is_stmt 1               @ ../../../../Library/StdDriver/src/i2c.c:487:5
	b	.LBB24_3
.Ltmp106:
.LBB24_2:
	.loc	2 490 9                         @ ../../../../Library/StdDriver/src/i2c.c:490:9
	ldr	r1, [sp, #4]
	.loc	2 490 21 is_stmt 0              @ ../../../../Library/StdDriver/src/i2c.c:490:21
	ldr	r0, [r1, #80]
	movs	r2, #132
	orrs	r0, r2
	str	r0, [r1, #80]
	b	.LBB24_3
.Ltmp107:
.LBB24_3:
	.loc	2 492 1 epilogue_begin is_stmt 1 @ ../../../../Library/StdDriver/src/i2c.c:492:1
	add	sp, #8
	bx	lr
.Ltmp108:
.Lfunc_end24:
	.size	I2C_SMBusOpen, .Lfunc_end24-I2C_SMBusOpen
	.cfi_endproc
	.cantunwind
	.fnend
                                        @ -- End function
	.section	.text.I2C_SMBusClose,"ax",%progbits
	.hidden	I2C_SMBusClose                  @ -- Begin function I2C_SMBusClose
	.globl	I2C_SMBusClose
	.p2align	1
	.type	I2C_SMBusClose,%function
	.code	16                              @ @I2C_SMBusClose
	.thumb_func
I2C_SMBusClose:
.Lfunc_begin25:
	.loc	2 503 0                         @ ../../../../Library/StdDriver/src/i2c.c:503:0
	.fnstart
	.cfi_startproc
@ %bb.0:
	.pad	#4
	sub	sp, #4
	.cfi_def_cfa_offset 4
	str	r0, [sp]
.Ltmp109:
	.loc	2 505 5 prologue_end            @ ../../../../Library/StdDriver/src/i2c.c:505:5
	ldr	r1, [sp]
	movs	r0, #0
	.loc	2 505 17 is_stmt 0              @ ../../../../Library/StdDriver/src/i2c.c:505:17
	str	r0, [r1, #80]
	.loc	2 506 1 epilogue_begin is_stmt 1 @ ../../../../Library/StdDriver/src/i2c.c:506:1
	add	sp, #4
	bx	lr
.Ltmp110:
.Lfunc_end25:
	.size	I2C_SMBusClose, .Lfunc_end25-I2C_SMBusClose
	.cfi_endproc
	.cantunwind
	.fnend
                                        @ -- End function
	.section	.text.I2C_SMBusPECTxEnable,"ax",%progbits
	.hidden	I2C_SMBusPECTxEnable            @ -- Begin function I2C_SMBusPECTxEnable
	.globl	I2C_SMBusPECTxEnable
	.p2align	1
	.type	I2C_SMBusPECTxEnable,%function
	.code	16                              @ @I2C_SMBusPECTxEnable
	.thumb_func
I2C_SMBusPECTxEnable:
.Lfunc_begin26:
	.loc	2 518 0                         @ ../../../../Library/StdDriver/src/i2c.c:518:0
	.fnstart
	.cfi_startproc
@ %bb.0:
	.pad	#8
	sub	sp, #8
	.cfi_def_cfa_offset 8
                                        @ kill: def $r2 killed $r1
	str	r0, [sp, #4]
	mov	r0, sp
	strb	r1, [r0]
.Ltmp111:
	.loc	2 519 5 prologue_end            @ ../../../../Library/StdDriver/src/i2c.c:519:5
	ldr	r2, [sp, #4]
	.loc	2 519 17 is_stmt 0              @ ../../../../Library/StdDriver/src/i2c.c:519:17
	ldr	r1, [r2, #80]
	movw	r3, #256
	bics	r1, r3
	str	r1, [r2, #80]
.Ltmp112:
	.loc	2 521 9 is_stmt 1               @ ../../../../Library/StdDriver/src/i2c.c:521:9
	ldrb	r0, [r0]
.Ltmp113:
	.loc	2 521 9 is_stmt 0               @ ../../../../Library/StdDriver/src/i2c.c:521:9
	cbz	r0, .LBB26_2
	b	.LBB26_1
.LBB26_1:
.Ltmp114:
	.loc	2 523 9 is_stmt 1               @ ../../../../Library/StdDriver/src/i2c.c:523:9
	ldr	r1, [sp, #4]
	.loc	2 523 21 is_stmt 0              @ ../../../../Library/StdDriver/src/i2c.c:523:21
	ldr	r0, [r1, #80]
	movw	r2, #258
	orrs	r0, r2
	str	r0, [r1, #80]
	.loc	2 524 5 is_stmt 1               @ ../../../../Library/StdDriver/src/i2c.c:524:5
	b	.LBB26_3
.Ltmp115:
.LBB26_2:
	.loc	2 527 9                         @ ../../../../Library/StdDriver/src/i2c.c:527:9
	ldr	r1, [sp, #4]
	.loc	2 527 21 is_stmt 0              @ ../../../../Library/StdDriver/src/i2c.c:527:21
	ldr	r0, [r1, #80]
	movs	r2, #2
	orrs	r0, r2
	str	r0, [r1, #80]
	b	.LBB26_3
.Ltmp116:
.LBB26_3:
	.loc	2 529 1 epilogue_begin is_stmt 1 @ ../../../../Library/StdDriver/src/i2c.c:529:1
	add	sp, #8
	bx	lr
.Ltmp117:
.Lfunc_end26:
	.size	I2C_SMBusPECTxEnable, .Lfunc_end26-I2C_SMBusPECTxEnable
	.cfi_endproc
	.cantunwind
	.fnend
                                        @ -- End function
	.section	.text.I2C_SMBusGetPECValue,"ax",%progbits
	.hidden	I2C_SMBusGetPECValue            @ -- Begin function I2C_SMBusGetPECValue
	.globl	I2C_SMBusGetPECValue
	.p2align	1
	.type	I2C_SMBusGetPECValue,%function
	.code	16                              @ @I2C_SMBusGetPECValue
	.thumb_func
I2C_SMBusGetPECValue:
.Lfunc_begin27:
	.loc	2 542 0                         @ ../../../../Library/StdDriver/src/i2c.c:542:0
	.fnstart
	.cfi_startproc
@ %bb.0:
	.pad	#4
	sub	sp, #4
	.cfi_def_cfa_offset 4
	str	r0, [sp]
.Ltmp118:
	.loc	2 543 21 prologue_end           @ ../../../../Library/StdDriver/src/i2c.c:543:21
	ldr	r0, [sp]
	.loc	2 543 26 is_stmt 0              @ ../../../../Library/StdDriver/src/i2c.c:543:26
	ldr	r0, [r0, #96]
	.loc	2 543 5                         @ ../../../../Library/StdDriver/src/i2c.c:543:5
	uxtb	r0, r0
	.loc	2 543 5 epilogue_begin          @ ../../../../Library/StdDriver/src/i2c.c:543:5
	add	sp, #4
	bx	lr
.Ltmp119:
.Lfunc_end27:
	.size	I2C_SMBusGetPECValue, .Lfunc_end27-I2C_SMBusGetPECValue
	.cfi_endproc
	.cantunwind
	.fnend
                                        @ -- End function
	.section	.text.I2C_SMBusIdleTimeout,"ax",%progbits
	.hidden	I2C_SMBusIdleTimeout            @ -- Begin function I2C_SMBusIdleTimeout
	.globl	I2C_SMBusIdleTimeout
	.p2align	1
	.type	I2C_SMBusIdleTimeout,%function
	.code	16                              @ @I2C_SMBusIdleTimeout
	.thumb_func
I2C_SMBusIdleTimeout:
.Lfunc_begin28:
	.loc	2 558 0 is_stmt 1               @ ../../../../Library/StdDriver/src/i2c.c:558:0
	.fnstart
	.cfi_startproc
@ %bb.0:
	.pad	#20
	sub	sp, #20
	.cfi_def_cfa_offset 20
	str	r0, [sp, #16]
	str	r1, [sp, #12]
	str	r2, [sp, #8]
.Ltmp120:
	.loc	2 561 5 prologue_end            @ ../../../../Library/StdDriver/src/i2c.c:561:5
	ldr	r1, [sp, #16]
	.loc	2 561 17 is_stmt 0              @ ../../../../Library/StdDriver/src/i2c.c:561:17
	ldr	r0, [r1, #80]
	movw	r2, #512
	orrs	r0, r2
	str	r0, [r1, #80]
	.loc	2 562 19 is_stmt 1              @ ../../../../Library/StdDriver/src/i2c.c:562:19
	ldr	r0, [sp, #8]
	movw	r1, #1000
	.loc	2 562 27 is_stmt 0              @ ../../../../Library/StdDriver/src/i2c.c:562:27
	udiv	r0, r0, r1
	.loc	2 562 17                        @ ../../../../Library/StdDriver/src/i2c.c:562:17
	str	r0, [sp]
	.loc	2 563 17 is_stmt 1              @ ../../../../Library/StdDriver/src/i2c.c:563:17
	ldr	r2, [sp, #12]
	.loc	2 563 22 is_stmt 0              @ ../../../../Library/StdDriver/src/i2c.c:563:22
	ldr	r0, [sp]
	.loc	2 563 20                        @ ../../../../Library/StdDriver/src/i2c.c:563:20
	muls	r0, r2, r0
	.loc	2 563 35                        @ ../../../../Library/StdDriver/src/i2c.c:563:35
	udiv	r0, r0, r1
	.loc	2 563 44                        @ ../../../../Library/StdDriver/src/i2c.c:563:44
	lsrs	r0, r0, #2
	.loc	2 563 51                        @ ../../../../Library/StdDriver/src/i2c.c:563:51
	subs	r0, r0, #1
	.loc	2 563 12                        @ ../../../../Library/StdDriver/src/i2c.c:563:12
	str	r0, [sp, #4]
.Ltmp121:
	.loc	2 565 9 is_stmt 1               @ ../../../../Library/StdDriver/src/i2c.c:565:9
	ldr	r0, [sp, #4]
.Ltmp122:
	.loc	2 565 9 is_stmt 0               @ ../../../../Library/StdDriver/src/i2c.c:565:9
	lsrs	r0, r0, #8
	cbz	r0, .LBB28_2
	b	.LBB28_1
.LBB28_1:
.Ltmp123:
	.loc	2 567 9 is_stmt 1               @ ../../../../Library/StdDriver/src/i2c.c:567:9
	ldr	r1, [sp, #16]
	movs	r0, #255
	.loc	2 567 22 is_stmt 0              @ ../../../../Library/StdDriver/src/i2c.c:567:22
	str	r0, [r1, #100]
	.loc	2 568 5 is_stmt 1               @ ../../../../Library/StdDriver/src/i2c.c:568:5
	b	.LBB28_3
.Ltmp124:
.LBB28_2:
	.loc	2 571 24                        @ ../../../../Library/StdDriver/src/i2c.c:571:24
	ldr	r0, [sp, #4]
	.loc	2 571 9 is_stmt 0               @ ../../../../Library/StdDriver/src/i2c.c:571:9
	ldr	r1, [sp, #16]
	.loc	2 571 22                        @ ../../../../Library/StdDriver/src/i2c.c:571:22
	str	r0, [r1, #100]
	b	.LBB28_3
.Ltmp125:
.LBB28_3:
	.loc	2 574 1 epilogue_begin is_stmt 1 @ ../../../../Library/StdDriver/src/i2c.c:574:1
	add	sp, #20
	bx	lr
.Ltmp126:
.Lfunc_end28:
	.size	I2C_SMBusIdleTimeout, .Lfunc_end28-I2C_SMBusIdleTimeout
	.cfi_endproc
	.cantunwind
	.fnend
                                        @ -- End function
	.section	.text.I2C_SMBusTimeout,"ax",%progbits
	.hidden	I2C_SMBusTimeout                @ -- Begin function I2C_SMBusTimeout
	.globl	I2C_SMBusTimeout
	.p2align	1
	.type	I2C_SMBusTimeout,%function
	.code	16                              @ @I2C_SMBusTimeout
	.thumb_func
I2C_SMBusTimeout:
.Lfunc_begin29:
	.loc	2 589 0                         @ ../../../../Library/StdDriver/src/i2c.c:589:0
	.fnstart
	.cfi_startproc
@ %bb.0:
	.pad	#20
	sub	sp, #20
	.cfi_def_cfa_offset 20
	str	r0, [sp, #16]
	str	r1, [sp, #12]
	str	r2, [sp, #8]
.Ltmp127:
	.loc	2 592 5 prologue_end            @ ../../../../Library/StdDriver/src/i2c.c:592:5
	ldr	r1, [sp, #16]
	.loc	2 592 17 is_stmt 0              @ ../../../../Library/StdDriver/src/i2c.c:592:17
	ldr	r0, [r1, #80]
	movw	r2, #512
	bics	r0, r2
	str	r0, [r1, #80]
	.loc	2 595 5 is_stmt 1               @ ../../../../Library/StdDriver/src/i2c.c:595:5
	ldr	r1, [sp, #16]
	.loc	2 595 16 is_stmt 0              @ ../../../../Library/StdDriver/src/i2c.c:595:16
	ldr	r0, [r1, #20]
	movs	r2, #4
	bics	r0, r2
	str	r0, [r1, #20]
	.loc	2 596 19 is_stmt 1              @ ../../../../Library/StdDriver/src/i2c.c:596:19
	ldr	r0, [sp, #8]
	movw	r1, #1000
	.loc	2 596 27 is_stmt 0              @ ../../../../Library/StdDriver/src/i2c.c:596:27
	udiv	r0, r0, r1
	.loc	2 596 17                        @ ../../../../Library/StdDriver/src/i2c.c:596:17
	str	r0, [sp]
	.loc	2 597 16 is_stmt 1              @ ../../../../Library/StdDriver/src/i2c.c:597:16
	ldr	r1, [sp, #12]
	.loc	2 597 21 is_stmt 0              @ ../../../../Library/StdDriver/src/i2c.c:597:21
	ldr	r0, [sp]
	.loc	2 597 19                        @ ../../../../Library/StdDriver/src/i2c.c:597:19
	muls	r0, r1, r0
	.loc	2 597 34                        @ ../../../../Library/StdDriver/src/i2c.c:597:34
	lsrs	r0, r0, #14
	.loc	2 597 51                        @ ../../../../Library/StdDriver/src/i2c.c:597:51
	subs	r0, r0, #1
	.loc	2 597 12                        @ ../../../../Library/StdDriver/src/i2c.c:597:12
	str	r0, [sp, #4]
.Ltmp128:
	.loc	2 599 9 is_stmt 1               @ ../../../../Library/StdDriver/src/i2c.c:599:9
	ldr	r0, [sp, #4]
.Ltmp129:
	.loc	2 599 9 is_stmt 0               @ ../../../../Library/StdDriver/src/i2c.c:599:9
	cmp	r0, #255
	bhi	.LBB29_2
	b	.LBB29_1
.LBB29_1:
.Ltmp130:
	.loc	2 601 24 is_stmt 1              @ ../../../../Library/StdDriver/src/i2c.c:601:24
	ldr	r0, [sp, #4]
	.loc	2 601 9 is_stmt 0               @ ../../../../Library/StdDriver/src/i2c.c:601:9
	ldr	r1, [sp, #16]
	.loc	2 601 22                        @ ../../../../Library/StdDriver/src/i2c.c:601:22
	str	r0, [r1, #100]
	.loc	2 602 5 is_stmt 1               @ ../../../../Library/StdDriver/src/i2c.c:602:5
	b	.LBB29_3
.Ltmp131:
.LBB29_2:
	.loc	2 606 9                         @ ../../../../Library/StdDriver/src/i2c.c:606:9
	ldr	r1, [sp, #16]
	.loc	2 606 20 is_stmt 0              @ ../../../../Library/StdDriver/src/i2c.c:606:20
	ldr	r0, [r1, #20]
	movs	r2, #4
	orrs	r0, r2
	str	r0, [r1, #20]
	.loc	2 607 27 is_stmt 1              @ ../../../../Library/StdDriver/src/i2c.c:607:27
	ldr	r1, [sp, #12]
	.loc	2 607 32 is_stmt 0              @ ../../../../Library/StdDriver/src/i2c.c:607:32
	ldr	r0, [sp]
	.loc	2 607 30                        @ ../../../../Library/StdDriver/src/i2c.c:607:30
	muls	r0, r1, r0
	.loc	2 607 45                        @ ../../../../Library/StdDriver/src/i2c.c:607:45
	lsrs	r0, r0, #16
	.loc	2 607 67                        @ ../../../../Library/StdDriver/src/i2c.c:607:67
	subs	r0, r0, #1
	.loc	2 607 73                        @ ../../../../Library/StdDriver/src/i2c.c:607:73
	uxtb	r0, r0
	.loc	2 607 9                         @ ../../../../Library/StdDriver/src/i2c.c:607:9
	ldr	r1, [sp, #16]
	.loc	2 607 22                        @ ../../../../Library/StdDriver/src/i2c.c:607:22
	str	r0, [r1, #100]
	b	.LBB29_3
.Ltmp132:
.LBB29_3:
	.loc	2 609 1 epilogue_begin is_stmt 1 @ ../../../../Library/StdDriver/src/i2c.c:609:1
	add	sp, #20
	bx	lr
.Ltmp133:
.Lfunc_end29:
	.size	I2C_SMBusTimeout, .Lfunc_end29-I2C_SMBusTimeout
	.cfi_endproc
	.cantunwind
	.fnend
                                        @ -- End function
	.section	.text.I2C_SMBusClockLoTimeout,"ax",%progbits
	.hidden	I2C_SMBusClockLoTimeout         @ -- Begin function I2C_SMBusClockLoTimeout
	.globl	I2C_SMBusClockLoTimeout
	.p2align	1
	.type	I2C_SMBusClockLoTimeout,%function
	.code	16                              @ @I2C_SMBusClockLoTimeout
	.thumb_func
I2C_SMBusClockLoTimeout:
.Lfunc_begin30:
	.loc	2 624 0                         @ ../../../../Library/StdDriver/src/i2c.c:624:0
	.fnstart
	.cfi_startproc
@ %bb.0:
	.pad	#20
	sub	sp, #20
	.cfi_def_cfa_offset 20
	str	r0, [sp, #16]
	str	r1, [sp, #12]
	str	r2, [sp, #8]
.Ltmp134:
	.loc	2 627 5 prologue_end            @ ../../../../Library/StdDriver/src/i2c.c:627:5
	ldr	r1, [sp, #16]
	.loc	2 627 17 is_stmt 0              @ ../../../../Library/StdDriver/src/i2c.c:627:17
	ldr	r0, [r1, #80]
	movw	r2, #512
	bics	r0, r2
	str	r0, [r1, #80]
	.loc	2 630 5 is_stmt 1               @ ../../../../Library/StdDriver/src/i2c.c:630:5
	ldr	r1, [sp, #16]
	.loc	2 630 16 is_stmt 0              @ ../../../../Library/StdDriver/src/i2c.c:630:16
	ldr	r0, [r1, #20]
	movs	r2, #4
	bics	r0, r2
	str	r0, [r1, #20]
	.loc	2 631 19 is_stmt 1              @ ../../../../Library/StdDriver/src/i2c.c:631:19
	ldr	r0, [sp, #8]
	movw	r1, #1000
	.loc	2 631 27 is_stmt 0              @ ../../../../Library/StdDriver/src/i2c.c:631:27
	udiv	r0, r0, r1
	.loc	2 631 17                        @ ../../../../Library/StdDriver/src/i2c.c:631:17
	str	r0, [sp]
	.loc	2 632 16 is_stmt 1              @ ../../../../Library/StdDriver/src/i2c.c:632:16
	ldr	r1, [sp, #12]
	.loc	2 632 21 is_stmt 0              @ ../../../../Library/StdDriver/src/i2c.c:632:21
	ldr	r0, [sp]
	.loc	2 632 19                        @ ../../../../Library/StdDriver/src/i2c.c:632:19
	muls	r0, r1, r0
	.loc	2 632 34                        @ ../../../../Library/StdDriver/src/i2c.c:632:34
	lsrs	r0, r0, #14
	.loc	2 632 51                        @ ../../../../Library/StdDriver/src/i2c.c:632:51
	subs	r0, r0, #1
	.loc	2 632 12                        @ ../../../../Library/StdDriver/src/i2c.c:632:12
	str	r0, [sp, #4]
.Ltmp135:
	.loc	2 634 9 is_stmt 1               @ ../../../../Library/StdDriver/src/i2c.c:634:9
	ldr	r0, [sp, #4]
.Ltmp136:
	.loc	2 634 9 is_stmt 0               @ ../../../../Library/StdDriver/src/i2c.c:634:9
	cmp	r0, #255
	bhi	.LBB30_2
	b	.LBB30_1
.LBB30_1:
.Ltmp137:
	.loc	2 636 24 is_stmt 1              @ ../../../../Library/StdDriver/src/i2c.c:636:24
	ldr	r0, [sp, #4]
	.loc	2 636 9 is_stmt 0               @ ../../../../Library/StdDriver/src/i2c.c:636:9
	ldr	r1, [sp, #16]
	.loc	2 636 22                        @ ../../../../Library/StdDriver/src/i2c.c:636:22
	str	r0, [r1, #104]
	.loc	2 637 5 is_stmt 1               @ ../../../../Library/StdDriver/src/i2c.c:637:5
	b	.LBB30_3
.Ltmp138:
.LBB30_2:
	.loc	2 641 9                         @ ../../../../Library/StdDriver/src/i2c.c:641:9
	ldr	r1, [sp, #16]
	.loc	2 641 20 is_stmt 0              @ ../../../../Library/StdDriver/src/i2c.c:641:20
	ldr	r0, [r1, #20]
	movs	r2, #4
	orrs	r0, r2
	str	r0, [r1, #20]
	.loc	2 642 27 is_stmt 1              @ ../../../../Library/StdDriver/src/i2c.c:642:27
	ldr	r1, [sp, #12]
	.loc	2 642 32 is_stmt 0              @ ../../../../Library/StdDriver/src/i2c.c:642:32
	ldr	r0, [sp]
	.loc	2 642 30                        @ ../../../../Library/StdDriver/src/i2c.c:642:30
	muls	r0, r1, r0
	.loc	2 642 45                        @ ../../../../Library/StdDriver/src/i2c.c:642:45
	lsrs	r0, r0, #16
	.loc	2 642 67                        @ ../../../../Library/StdDriver/src/i2c.c:642:67
	subs	r0, r0, #1
	.loc	2 642 73                        @ ../../../../Library/StdDriver/src/i2c.c:642:73
	uxtb	r0, r0
	.loc	2 642 9                         @ ../../../../Library/StdDriver/src/i2c.c:642:9
	ldr	r1, [sp, #16]
	.loc	2 642 22                        @ ../../../../Library/StdDriver/src/i2c.c:642:22
	str	r0, [r1, #104]
	b	.LBB30_3
.Ltmp139:
.LBB30_3:
	.loc	2 644 1 epilogue_begin is_stmt 1 @ ../../../../Library/StdDriver/src/i2c.c:644:1
	add	sp, #20
	bx	lr
.Ltmp140:
.Lfunc_end30:
	.size	I2C_SMBusClockLoTimeout, .Lfunc_end30-I2C_SMBusClockLoTimeout
	.cfi_endproc
	.cantunwind
	.fnend
                                        @ -- End function
	.section	.text.I2C_WriteByte,"ax",%progbits
	.hidden	I2C_WriteByte                   @ -- Begin function I2C_WriteByte
	.globl	I2C_WriteByte
	.p2align	1
	.type	I2C_WriteByte,%function
	.code	16                              @ @I2C_WriteByte
	.thumb_func
I2C_WriteByte:
.Lfunc_begin31:
	.loc	2 664 0                         @ ../../../../Library/StdDriver/src/i2c.c:664:0
	.fnstart
	.cfi_startproc
@ %bb.0:
	.save	{r7, lr}
	push	{r7, lr}
	.cfi_def_cfa_offset 8
	.cfi_offset lr, -4
	.cfi_offset r7, -8
	.pad	#24
	sub	sp, #24
	.cfi_def_cfa_offset 32
	str	r2, [sp]                        @ 4-byte Spill
	mov	r2, r1
	mov	r1, r0
	ldr	r0, [sp]                        @ 4-byte Reload
                                        @ kill: def $r3 killed $r0
                                        @ kill: def $r3 killed $r2
	str	r1, [sp, #16]
	add	r1, sp, #12
	strb	r2, [r1]
	add	r2, sp, #8
	strb	r0, [r2]
.Ltmp141:
	.loc	2 665 45 prologue_end           @ ../../../../Library/StdDriver/src/i2c.c:665:45
	ldr	r0, [sp, #16]
	.loc	2 665 50 is_stmt 0              @ ../../../../Library/StdDriver/src/i2c.c:665:50
	ldrb	r1, [r1]
	movs	r3, #1
	.loc	2 665 25                        @ ../../../../Library/StdDriver/src/i2c.c:665:25
	bl	I2C_WriteMultiBytes
	.loc	2 665 14                        @ ../../../../Library/StdDriver/src/i2c.c:665:14
	str	r0, [sp, #4]
.Ltmp142:
	.loc	2 667 9 is_stmt 1               @ ../../../../Library/StdDriver/src/i2c.c:667:9
	ldr	r0, [sp, #4]
.Ltmp143:
	.loc	2 667 9 is_stmt 0               @ ../../../../Library/StdDriver/src/i2c.c:667:9
	cmp	r0, #1
	bne	.LBB31_2
	b	.LBB31_1
.LBB31_1:
	.loc	2 0 9                           @ ../../../../Library/StdDriver/src/i2c.c:0:9
	add	r1, sp, #20
	movs	r0, #0
.Ltmp144:
	.loc	2 669 9 is_stmt 1               @ ../../../../Library/StdDriver/src/i2c.c:669:9
	strb	r0, [r1]
	b	.LBB31_3
.Ltmp145:
.LBB31_2:
	.loc	2 0 9 is_stmt 0                 @ ../../../../Library/StdDriver/src/i2c.c:0:9
	add	r1, sp, #20
	movs	r0, #1
.Ltmp146:
	.loc	2 673 9 is_stmt 1               @ ../../../../Library/StdDriver/src/i2c.c:673:9
	strb	r0, [r1]
	b	.LBB31_3
.Ltmp147:
.LBB31_3:
	.loc	2 0 9 is_stmt 0                 @ ../../../../Library/StdDriver/src/i2c.c:0:9
	add	r0, sp, #20
	.loc	2 675 1 is_stmt 1               @ ../../../../Library/StdDriver/src/i2c.c:675:1
	ldrb	r0, [r0]
	.loc	2 675 1 epilogue_begin is_stmt 0 @ ../../../../Library/StdDriver/src/i2c.c:675:1
	add	sp, #24
	pop	{r7, pc}
.Ltmp148:
.Lfunc_end31:
	.size	I2C_WriteByte, .Lfunc_end31-I2C_WriteByte
	.cfi_endproc
	.cantunwind
	.fnend
                                        @ -- End function
	.section	.text.I2C_WriteMultiBytes,"ax",%progbits
	.hidden	I2C_WriteMultiBytes             @ -- Begin function I2C_WriteMultiBytes
	.globl	I2C_WriteMultiBytes
	.p2align	2
	.type	I2C_WriteMultiBytes,%function
	.code	16                              @ @I2C_WriteMultiBytes
	.thumb_func
I2C_WriteMultiBytes:
.Lfunc_begin32:
	.loc	2 694 0 is_stmt 1               @ ../../../../Library/StdDriver/src/i2c.c:694:0
	.fnstart
	.cfi_startproc
@ %bb.0:
	.save	{r4, lr}
	push	{r4, lr}
	.cfi_def_cfa_offset 8
	.cfi_offset lr, -4
	.cfi_offset r4, -8
	.pad	#44
	sub	sp, #44
	.cfi_def_cfa_offset 52
                                        @ kill: def $r4 killed $r1
	str	r0, [sp, #40]
	add	r0, sp, #36
	strb	r1, [r0]
	str	r2, [sp, #32]
	str	r3, [sp, #28]
	add	r1, sp, #24
	movs	r0, #1
.Ltmp149:
	.loc	2 695 13 prologue_end           @ ../../../../Library/StdDriver/src/i2c.c:695:13
	strb	r0, [r1]
	add	r1, sp, #20
	movs	r0, #0
	.loc	2 695 29 is_stmt 0              @ ../../../../Library/StdDriver/src/i2c.c:695:29
	strb	r0, [r1]
	add	r1, sp, #16
	.loc	2 695 41                        @ ../../../../Library/StdDriver/src/i2c.c:695:41
	strb	r0, [r1]
	.loc	2 696 14 is_stmt 1              @ ../../../../Library/StdDriver/src/i2c.c:696:14
	str	r0, [sp, #12]
	.loc	2 696 29 is_stmt 0              @ ../../../../Library/StdDriver/src/i2c.c:696:29
	str	r0, [sp, #8]
	.loc	2 698 22 is_stmt 1              @ ../../../../Library/StdDriver/src/i2c.c:698:22
	ldr	r1, __arm_cp.32_0
	str	r0, [r1]
	.loc	2 700 5                         @ ../../../../Library/StdDriver/src/i2c.c:700:5
	ldr	r0, [sp, #40]
	ldr	r0, [r0]
	movs	r1, #32
	orrs	r0, r1
	movs	r1, #8
	bics	r0, r1
	ldr	r1, [sp, #40]
	str	r0, [r1]
	.loc	2 702 5                         @ ../../../../Library/StdDriver/src/i2c.c:702:5
	b	.LBB32_1
.LBB32_1:                               @ =>This Loop Header: Depth=1
                                        @     Child Loop BB32_5 Depth 2
	.loc	2 0 5 is_stmt 0                 @ ../../../../Library/StdDriver/src/i2c.c:0:5
	add	r0, sp, #24
	.loc	2 702 12                        @ ../../../../Library/StdDriver/src/i2c.c:702:12
	ldrb	r1, [r0]
	movs	r0, #0
	.loc	2 702 22                        @ ../../../../Library/StdDriver/src/i2c.c:702:22
	str	r0, [sp, #4]                    @ 4-byte Spill
	cbz	r1, .LBB32_3
	b	.LBB32_2
.LBB32_2:                               @   in Loop: Header=BB32_1 Depth=1
	.loc	2 0 22                          @ ../../../../Library/StdDriver/src/i2c.c:0:22
	add	r0, sp, #20
	.loc	2 702 26                        @ ../../../../Library/StdDriver/src/i2c.c:702:26
	ldrb	r0, [r0]
	.loc	2 702 32                        @ ../../../../Library/StdDriver/src/i2c.c:702:32
	rsbs	r1, r0, #0
	adcs	r0, r1
	str	r0, [sp, #4]                    @ 4-byte Spill
	b	.LBB32_3
.LBB32_3:                               @   in Loop: Header=BB32_1 Depth=1
	.loc	2 0 0                           @ ../../../../Library/StdDriver/src/i2c.c:0:0
	ldr	r0, [sp, #4]                    @ 4-byte Reload
	.loc	2 702 5                         @ ../../../../Library/StdDriver/src/i2c.c:702:5
	lsls	r0, r0, #31
	cbnz	r0, .LBB32_4
	b	.LBB32_21
.LBB32_4:                               @   in Loop: Header=BB32_1 Depth=1
.Ltmp150:
	.loc	2 704 27 is_stmt 1              @ ../../../../Library/StdDriver/src/i2c.c:704:27
	ldr	r0, __arm_cp.32_1
	ldr	r0, [r0]
	.loc	2 704 25 is_stmt 0              @ ../../../../Library/StdDriver/src/i2c.c:704:25
	str	r0, [sp, #8]
	.loc	2 705 9 is_stmt 1               @ ../../../../Library/StdDriver/src/i2c.c:705:9
	b	.LBB32_5
.LBB32_5:                               @   Parent Loop BB32_1 Depth=1
                                        @ =>  This Inner Loop Header: Depth=2
	ldr	r0, [sp, #40]
	ldr	r0, [r0]
	lsls	r0, r0, #28
	cmp	r0, #0
	bmi	.LBB32_9
	b	.LBB32_6
.LBB32_6:                               @   in Loop: Header=BB32_5 Depth=2
.Ltmp151:
	.loc	2 707 17                        @ ../../../../Library/StdDriver/src/i2c.c:707:17
	ldr	r0, [sp, #8]
	subs	r0, r0, #1
	str	r0, [sp, #8]
.Ltmp152:
	.loc	2 707 17 is_stmt 0              @ ../../../../Library/StdDriver/src/i2c.c:707:17
	cbnz	r0, .LBB32_8
	b	.LBB32_7
.LBB32_7:                               @   in Loop: Header=BB32_1 Depth=1
.Ltmp153:
	.loc	2 709 34 is_stmt 1              @ ../../../../Library/StdDriver/src/i2c.c:709:34
	ldr	r1, __arm_cp.32_0
	movs	r0, #0
	mvns	r0, r0
	str	r0, [r1]
	add	r1, sp, #20
	movs	r0, #1
	.loc	2 710 23                        @ ../../../../Library/StdDriver/src/i2c.c:710:23
	strb	r0, [r1]
	.loc	2 711 17                        @ ../../../../Library/StdDriver/src/i2c.c:711:17
	b	.LBB32_9
.Ltmp154:
.LBB32_8:                               @   in Loop: Header=BB32_5 Depth=2
	.loc	2 705 9                         @ ../../../../Library/StdDriver/src/i2c.c:705:9
	b	.LBB32_5
.LBB32_9:                               @   in Loop: Header=BB32_1 Depth=1
	.loc	2 715 17                        @ ../../../../Library/StdDriver/src/i2c.c:715:17
	ldr	r0, [sp, #40]
	ldr	r0, [r0, #12]
	.loc	2 715 9 is_stmt 0               @ ../../../../Library/StdDriver/src/i2c.c:715:9
	subs	r0, #8
	str	r0, [sp]                        @ 4-byte Spill
	cmp	r0, #48
	bls	.LBB32_10
	b	.LBB32_19
.LBB32_10:                              @   in Loop: Header=BB32_1 Depth=1
	ldr	r1, [sp]                        @ 4-byte Reload
	lsls	r2, r1, #2
	adr	r0, .LJTI32_0
	adds	r0, r0, r2
	mov	pc, r0
@ %bb.11:
	.loc	2 0 9                           @ ../../../../Library/StdDriver/src/i2c.c:0:9
	.p2align	2
.LJTI32_0:
	b.w	.LBB32_12
	b.w	.LBB32_19
	b.w	.LBB32_19
	b.w	.LBB32_19
	b.w	.LBB32_19
	b.w	.LBB32_19
	b.w	.LBB32_19
	b.w	.LBB32_19
	b.w	.LBB32_19
	b.w	.LBB32_19
	b.w	.LBB32_19
	b.w	.LBB32_19
	b.w	.LBB32_19
	b.w	.LBB32_19
	b.w	.LBB32_19
	b.w	.LBB32_19
	b.w	.LBB32_13
	b.w	.LBB32_19
	b.w	.LBB32_19
	b.w	.LBB32_19
	b.w	.LBB32_19
	b.w	.LBB32_19
	b.w	.LBB32_19
	b.w	.LBB32_19
	b.w	.LBB32_17
	b.w	.LBB32_19
	b.w	.LBB32_19
	b.w	.LBB32_19
	b.w	.LBB32_19
	b.w	.LBB32_19
	b.w	.LBB32_19
	b.w	.LBB32_19
	b.w	.LBB32_13
	b.w	.LBB32_19
	b.w	.LBB32_19
	b.w	.LBB32_19
	b.w	.LBB32_19
	b.w	.LBB32_19
	b.w	.LBB32_19
	b.w	.LBB32_19
	b.w	.LBB32_17
	b.w	.LBB32_19
	b.w	.LBB32_19
	b.w	.LBB32_19
	b.w	.LBB32_19
	b.w	.LBB32_19
	b.w	.LBB32_19
	b.w	.LBB32_19
	b.w	.LBB32_18
.LBB32_12:                              @   in Loop: Header=BB32_1 Depth=1
.Ltmp155:
	.loc	2 718 17 is_stmt 1              @ ../../../../Library/StdDriver/src/i2c.c:718:17
	ldr	r0, [sp, #36]
	lsls	r0, r0, #25
	lsrs	r0, r0, #24
	ldr	r1, [sp, #40]
	str	r0, [r1, #8]
	add	r1, sp, #16
	movs	r0, #8
	.loc	2 719 24                        @ ../../../../Library/StdDriver/src/i2c.c:719:24
	strb	r0, [r1]
	.loc	2 720 17                        @ ../../../../Library/StdDriver/src/i2c.c:720:17
	b	.LBB32_20
.LBB32_13:                              @   in Loop: Header=BB32_1 Depth=1
.Ltmp156:
	.loc	2 724 21                        @ ../../../../Library/StdDriver/src/i2c.c:724:21
	ldr	r0, [sp, #12]
	.loc	2 724 32 is_stmt 0              @ ../../../../Library/StdDriver/src/i2c.c:724:32
	ldr	r1, [sp, #28]
.Ltmp157:
	.loc	2 724 21                        @ ../../../../Library/StdDriver/src/i2c.c:724:21
	cmp	r0, r1
	bhs	.LBB32_15
	b	.LBB32_14
.LBB32_14:                              @   in Loop: Header=BB32_1 Depth=1
.Ltmp158:
	.loc	2 726 21 is_stmt 1              @ ../../../../Library/StdDriver/src/i2c.c:726:21
	ldr	r0, [sp, #32]
	ldr	r1, [sp, #12]
	adds	r2, r1, #1
	str	r2, [sp, #12]
	ldrb	r0, [r0, r1]
	ldr	r1, [sp, #40]
	str	r0, [r1, #8]
	.loc	2 727 17                        @ ../../../../Library/StdDriver/src/i2c.c:727:17
	b	.LBB32_16
.Ltmp159:
.LBB32_15:                              @   in Loop: Header=BB32_1 Depth=1
	.loc	2 0 17 is_stmt 0                @ ../../../../Library/StdDriver/src/i2c.c:0:17
	add	r1, sp, #16
	movs	r0, #24
.Ltmp160:
	.loc	2 730 28 is_stmt 1              @ ../../../../Library/StdDriver/src/i2c.c:730:28
	strb	r0, [r1]
	add	r1, sp, #24
	movs	r0, #0
	.loc	2 731 31                        @ ../../../../Library/StdDriver/src/i2c.c:731:31
	strb	r0, [r1]
	b	.LBB32_16
.Ltmp161:
.LBB32_16:                              @   in Loop: Header=BB32_1 Depth=1
	.loc	2 734 17                        @ ../../../../Library/StdDriver/src/i2c.c:734:17
	b	.LBB32_20
.LBB32_17:                              @   in Loop: Header=BB32_1 Depth=1
	.loc	2 0 17 is_stmt 0                @ ../../../../Library/StdDriver/src/i2c.c:0:17
	add	r1, sp, #16
	movs	r0, #24
	.loc	2 738 24 is_stmt 1              @ ../../../../Library/StdDriver/src/i2c.c:738:24
	strb	r0, [r1]
	add	r1, sp, #20
	movs	r0, #1
	.loc	2 739 23                        @ ../../../../Library/StdDriver/src/i2c.c:739:23
	strb	r0, [r1]
	.loc	2 740 17                        @ ../../../../Library/StdDriver/src/i2c.c:740:17
	b	.LBB32_20
.LBB32_18:                              @   in Loop: Header=BB32_1 Depth=1
	.loc	2 742 13                        @ ../../../../Library/StdDriver/src/i2c.c:742:13
	b	.LBB32_19
.LBB32_19:                              @   in Loop: Header=BB32_1 Depth=1
	.loc	2 744 17                        @ ../../../../Library/StdDriver/src/i2c.c:744:17
	ldr	r0, [sp, #40]
	ldr	r0, [r0]
	movs	r1, #24
	orrs	r0, r1
	movs	r1, #36
	bics	r0, r1
	ldr	r1, [sp, #40]
	str	r0, [r1]
	add	r1, sp, #16
	movs	r0, #8
	.loc	2 745 24                        @ ../../../../Library/StdDriver/src/i2c.c:745:24
	strb	r0, [r1]
	add	r1, sp, #20
	movs	r0, #1
	.loc	2 746 23                        @ ../../../../Library/StdDriver/src/i2c.c:746:23
	strb	r0, [r1]
	.loc	2 747 17                        @ ../../../../Library/StdDriver/src/i2c.c:747:17
	b	.LBB32_20
.Ltmp162:
.LBB32_20:                              @   in Loop: Header=BB32_1 Depth=1
	.loc	2 750 9                         @ ../../../../Library/StdDriver/src/i2c.c:750:9
	ldr	r0, [sp, #40]
	ldr	r0, [r0]
	movs	r1, #60
	bics	r0, r1
	add	r1, sp, #16
	ldrb	r1, [r1]
	orrs	r0, r1
	ldr	r1, [sp, #40]
	str	r0, [r1]
.Ltmp163:
	.loc	2 702 5                         @ ../../../../Library/StdDriver/src/i2c.c:702:5
	b	.LBB32_1
.LBB32_21:
	.loc	2 753 23                        @ ../../../../Library/StdDriver/src/i2c.c:753:23
	ldr	r0, __arm_cp.32_1
	ldr	r0, [r0]
	.loc	2 753 21 is_stmt 0              @ ../../../../Library/StdDriver/src/i2c.c:753:21
	str	r0, [sp, #8]
	.loc	2 755 5 is_stmt 1               @ ../../../../Library/StdDriver/src/i2c.c:755:5
	b	.LBB32_22
.LBB32_22:                              @ =>This Inner Loop Header: Depth=1
	.loc	2 755 13 is_stmt 0              @ ../../../../Library/StdDriver/src/i2c.c:755:13
	ldr	r0, [sp, #40]
	.loc	2 755 19                        @ ../../../../Library/StdDriver/src/i2c.c:755:19
	ldr	r0, [r0]
	.loc	2 755 5                         @ ../../../../Library/StdDriver/src/i2c.c:755:5
	lsls	r0, r0, #27
	cmp	r0, #0
	bpl	.LBB32_26
	b	.LBB32_23
.LBB32_23:                              @   in Loop: Header=BB32_22 Depth=1
.Ltmp164:
	.loc	2 757 24 is_stmt 1              @ ../../../../Library/StdDriver/src/i2c.c:757:24
	ldr	r0, [sp, #8]
	subs	r0, r0, #1
	str	r0, [sp, #8]
.Ltmp165:
	.loc	2 759 13                        @ ../../../../Library/StdDriver/src/i2c.c:759:13
	ldr	r0, [sp, #8]
.Ltmp166:
	.loc	2 759 13 is_stmt 0              @ ../../../../Library/StdDriver/src/i2c.c:759:13
	cbnz	r0, .LBB32_25
	b	.LBB32_24
.LBB32_24:
.Ltmp167:
	.loc	2 761 30 is_stmt 1              @ ../../../../Library/StdDriver/src/i2c.c:761:30
	ldr	r1, __arm_cp.32_0
	movs	r0, #0
	mvns	r0, r0
	str	r0, [r1]
	add	r1, sp, #20
	movs	r0, #1
	.loc	2 762 19                        @ ../../../../Library/StdDriver/src/i2c.c:762:19
	strb	r0, [r1]
	.loc	2 763 13                        @ ../../../../Library/StdDriver/src/i2c.c:763:13
	b	.LBB32_26
.Ltmp168:
.LBB32_25:                              @   in Loop: Header=BB32_22 Depth=1
	.loc	2 755 5                         @ ../../../../Library/StdDriver/src/i2c.c:755:5
	b	.LBB32_22
.LBB32_26:
	.loc	2 767 12                        @ ../../../../Library/StdDriver/src/i2c.c:767:12
	ldr	r0, [sp, #12]
	.loc	2 767 5 epilogue_begin is_stmt 0 @ ../../../../Library/StdDriver/src/i2c.c:767:5
	add	sp, #44
	pop	{r4, pc}
.Ltmp169:
	.p2align	2
@ %bb.27:
	.loc	2 0 5                           @ ../../../../Library/StdDriver/src/i2c.c:0:5
__arm_cp.32_0:
	.long	g_I2C_i32ErrCode
.Lcpi_end9:
	.size	__arm_cp.32_0, .Lcpi_end9-__arm_cp.32_0
__arm_cp.32_1:
	.long	SystemCoreClock
.Lcpi_end10:
	.size	__arm_cp.32_1, .Lcpi_end10-__arm_cp.32_1
.Lfunc_end32:
	.size	I2C_WriteMultiBytes, .Lfunc_end32-I2C_WriteMultiBytes
	.cfi_endproc
	.cantunwind
	.fnend
                                        @ -- End function
	.section	.text.I2C_WriteByteOneReg,"ax",%progbits
	.hidden	I2C_WriteByteOneReg             @ -- Begin function I2C_WriteByteOneReg
	.globl	I2C_WriteByteOneReg
	.p2align	1
	.type	I2C_WriteByteOneReg,%function
	.code	16                              @ @I2C_WriteByteOneReg
	.thumb_func
I2C_WriteByteOneReg:
.Lfunc_begin33:
	.loc	2 788 0 is_stmt 1               @ ../../../../Library/StdDriver/src/i2c.c:788:0
	.fnstart
	.cfi_startproc
@ %bb.0:
	.save	{r4, lr}
	push	{r4, lr}
	.cfi_def_cfa_offset 8
	.cfi_offset lr, -4
	.cfi_offset r4, -8
	.pad	#32
	sub	sp, #32
	.cfi_def_cfa_offset 40
	str	r3, [sp, #4]                    @ 4-byte Spill
	mov	r3, r2
	mov	r2, r1
	mov	r1, r0
	ldr	r0, [sp, #4]                    @ 4-byte Reload
                                        @ kill: def $r4 killed $r0
                                        @ kill: def $r4 killed $r3
                                        @ kill: def $r4 killed $r2
	str	r1, [sp, #24]
	add	r1, sp, #20
	strb	r2, [r1]
	add	r2, sp, #16
	strb	r3, [r2]
	add	r3, sp, #12
	strb	r0, [r3]
.Ltmp170:
	.loc	2 789 51 prologue_end           @ ../../../../Library/StdDriver/src/i2c.c:789:51
	ldr	r0, [sp, #24]
	.loc	2 789 56 is_stmt 0              @ ../../../../Library/StdDriver/src/i2c.c:789:56
	ldrb	r1, [r1]
	.loc	2 789 69                        @ ../../../../Library/StdDriver/src/i2c.c:789:69
	ldrb	r2, [r2]
	movs	r4, #1
	.loc	2 789 25                        @ ../../../../Library/StdDriver/src/i2c.c:789:25
	str	r4, [sp]
	bl	I2C_WriteMultiBytesOneReg
	.loc	2 789 14                        @ ../../../../Library/StdDriver/src/i2c.c:789:14
	str	r0, [sp, #8]
.Ltmp171:
	.loc	2 791 9 is_stmt 1               @ ../../../../Library/StdDriver/src/i2c.c:791:9
	ldr	r0, [sp, #8]
.Ltmp172:
	.loc	2 791 9 is_stmt 0               @ ../../../../Library/StdDriver/src/i2c.c:791:9
	cmp	r0, #1
	bne	.LBB33_2
	b	.LBB33_1
.LBB33_1:
	.loc	2 0 9                           @ ../../../../Library/StdDriver/src/i2c.c:0:9
	add	r1, sp, #28
	movs	r0, #0
.Ltmp173:
	.loc	2 793 9 is_stmt 1               @ ../../../../Library/StdDriver/src/i2c.c:793:9
	strb	r0, [r1]
	b	.LBB33_3
.Ltmp174:
.LBB33_2:
	.loc	2 0 9 is_stmt 0                 @ ../../../../Library/StdDriver/src/i2c.c:0:9
	add	r1, sp, #28
	movs	r0, #1
.Ltmp175:
	.loc	2 797 9 is_stmt 1               @ ../../../../Library/StdDriver/src/i2c.c:797:9
	strb	r0, [r1]
	b	.LBB33_3
.Ltmp176:
.LBB33_3:
	.loc	2 0 9 is_stmt 0                 @ ../../../../Library/StdDriver/src/i2c.c:0:9
	add	r0, sp, #28
	.loc	2 799 1 is_stmt 1               @ ../../../../Library/StdDriver/src/i2c.c:799:1
	ldrb	r0, [r0]
	.loc	2 799 1 epilogue_begin is_stmt 0 @ ../../../../Library/StdDriver/src/i2c.c:799:1
	add	sp, #32
	pop	{r4, pc}
.Ltmp177:
.Lfunc_end33:
	.size	I2C_WriteByteOneReg, .Lfunc_end33-I2C_WriteByteOneReg
	.cfi_endproc
	.cantunwind
	.fnend
                                        @ -- End function
	.section	.text.I2C_WriteMultiBytesOneReg,"ax",%progbits
	.hidden	I2C_WriteMultiBytesOneReg       @ -- Begin function I2C_WriteMultiBytesOneReg
	.globl	I2C_WriteMultiBytesOneReg
	.p2align	2
	.type	I2C_WriteMultiBytesOneReg,%function
	.code	16                              @ @I2C_WriteMultiBytesOneReg
	.thumb_func
I2C_WriteMultiBytesOneReg:
.Lfunc_begin34:
	.loc	2 820 0 is_stmt 1               @ ../../../../Library/StdDriver/src/i2c.c:820:0
	.fnstart
	.cfi_startproc
@ %bb.0:
	.save	{r4, lr}
	push	{r4, lr}
	.cfi_def_cfa_offset 8
	.cfi_offset lr, -4
	.cfi_offset r4, -8
	.pad	#44
	sub	sp, #44
	.cfi_def_cfa_offset 52
	ldr	r4, [sp, #52]
                                        @ kill: def $r4 killed $r2
                                        @ kill: def $r4 killed $r1
	str	r0, [sp, #40]
	add	r0, sp, #36
	strb	r1, [r0]
	add	r0, sp, #32
	strb	r2, [r0]
	str	r3, [sp, #28]
	add	r1, sp, #24
	movs	r0, #1
.Ltmp178:
	.loc	2 821 13 prologue_end           @ ../../../../Library/StdDriver/src/i2c.c:821:13
	strb	r0, [r1]
	add	r1, sp, #20
	movs	r0, #0
	.loc	2 821 29 is_stmt 0              @ ../../../../Library/StdDriver/src/i2c.c:821:29
	strb	r0, [r1]
	add	r1, sp, #16
	.loc	2 821 41                        @ ../../../../Library/StdDriver/src/i2c.c:821:41
	strb	r0, [r1]
	.loc	2 822 14 is_stmt 1              @ ../../../../Library/StdDriver/src/i2c.c:822:14
	str	r0, [sp, #12]
	.loc	2 822 29 is_stmt 0              @ ../../../../Library/StdDriver/src/i2c.c:822:29
	str	r0, [sp, #8]
	.loc	2 824 22 is_stmt 1              @ ../../../../Library/StdDriver/src/i2c.c:824:22
	ldr	r1, __arm_cp.34_0
	str	r0, [r1]
	.loc	2 826 5                         @ ../../../../Library/StdDriver/src/i2c.c:826:5
	ldr	r0, [sp, #40]
	ldr	r0, [r0]
	movs	r1, #32
	orrs	r0, r1
	movs	r1, #8
	bics	r0, r1
	ldr	r1, [sp, #40]
	str	r0, [r1]
	.loc	2 828 5                         @ ../../../../Library/StdDriver/src/i2c.c:828:5
	b	.LBB34_1
.LBB34_1:                               @ =>This Loop Header: Depth=1
                                        @     Child Loop BB34_5 Depth 2
	.loc	2 0 5 is_stmt 0                 @ ../../../../Library/StdDriver/src/i2c.c:0:5
	add	r0, sp, #24
	.loc	2 828 12                        @ ../../../../Library/StdDriver/src/i2c.c:828:12
	ldrb	r1, [r0]
	movs	r0, #0
	.loc	2 828 22                        @ ../../../../Library/StdDriver/src/i2c.c:828:22
	str	r0, [sp, #4]                    @ 4-byte Spill
	cbz	r1, .LBB34_3
	b	.LBB34_2
.LBB34_2:                               @   in Loop: Header=BB34_1 Depth=1
	.loc	2 0 22                          @ ../../../../Library/StdDriver/src/i2c.c:0:22
	add	r0, sp, #20
	.loc	2 828 26                        @ ../../../../Library/StdDriver/src/i2c.c:828:26
	ldrb	r0, [r0]
	.loc	2 828 32                        @ ../../../../Library/StdDriver/src/i2c.c:828:32
	rsbs	r1, r0, #0
	adcs	r0, r1
	str	r0, [sp, #4]                    @ 4-byte Spill
	b	.LBB34_3
.LBB34_3:                               @   in Loop: Header=BB34_1 Depth=1
	.loc	2 0 0                           @ ../../../../Library/StdDriver/src/i2c.c:0:0
	ldr	r0, [sp, #4]                    @ 4-byte Reload
	.loc	2 828 5                         @ ../../../../Library/StdDriver/src/i2c.c:828:5
	lsls	r0, r0, #31
	cbnz	r0, .LBB34_4
	b	.LBB34_22
.LBB34_4:                               @   in Loop: Header=BB34_1 Depth=1
.Ltmp179:
	.loc	2 830 27 is_stmt 1              @ ../../../../Library/StdDriver/src/i2c.c:830:27
	ldr	r0, __arm_cp.34_1
	ldr	r0, [r0]
	.loc	2 830 25 is_stmt 0              @ ../../../../Library/StdDriver/src/i2c.c:830:25
	str	r0, [sp, #8]
	.loc	2 831 9 is_stmt 1               @ ../../../../Library/StdDriver/src/i2c.c:831:9
	b	.LBB34_5
.LBB34_5:                               @   Parent Loop BB34_1 Depth=1
                                        @ =>  This Inner Loop Header: Depth=2
	ldr	r0, [sp, #40]
	ldr	r0, [r0]
	lsls	r0, r0, #28
	cmp	r0, #0
	bmi	.LBB34_9
	b	.LBB34_6
.LBB34_6:                               @   in Loop: Header=BB34_5 Depth=2
.Ltmp180:
	.loc	2 833 17                        @ ../../../../Library/StdDriver/src/i2c.c:833:17
	ldr	r0, [sp, #8]
	subs	r0, r0, #1
	str	r0, [sp, #8]
.Ltmp181:
	.loc	2 833 17 is_stmt 0              @ ../../../../Library/StdDriver/src/i2c.c:833:17
	cbnz	r0, .LBB34_8
	b	.LBB34_7
.LBB34_7:                               @   in Loop: Header=BB34_1 Depth=1
.Ltmp182:
	.loc	2 835 34 is_stmt 1              @ ../../../../Library/StdDriver/src/i2c.c:835:34
	ldr	r1, __arm_cp.34_0
	movs	r0, #0
	mvns	r0, r0
	str	r0, [r1]
	add	r1, sp, #20
	movs	r0, #1
	.loc	2 836 23                        @ ../../../../Library/StdDriver/src/i2c.c:836:23
	strb	r0, [r1]
	.loc	2 837 17                        @ ../../../../Library/StdDriver/src/i2c.c:837:17
	b	.LBB34_9
.Ltmp183:
.LBB34_8:                               @   in Loop: Header=BB34_5 Depth=2
	.loc	2 831 9                         @ ../../../../Library/StdDriver/src/i2c.c:831:9
	b	.LBB34_5
.LBB34_9:                               @   in Loop: Header=BB34_1 Depth=1
	.loc	2 841 17                        @ ../../../../Library/StdDriver/src/i2c.c:841:17
	ldr	r0, [sp, #40]
	ldr	r0, [r0, #12]
	.loc	2 841 9 is_stmt 0               @ ../../../../Library/StdDriver/src/i2c.c:841:9
	subs	r0, #8
	str	r0, [sp]                        @ 4-byte Spill
	cmp	r0, #48
	bls	.LBB34_10
	b	.LBB34_20
.LBB34_10:                              @   in Loop: Header=BB34_1 Depth=1
	ldr	r1, [sp]                        @ 4-byte Reload
	lsls	r2, r1, #2
	adr	r0, .LJTI34_0
	adds	r0, r0, r2
	mov	pc, r0
@ %bb.11:
	.loc	2 0 9                           @ ../../../../Library/StdDriver/src/i2c.c:0:9
	.p2align	2
.LJTI34_0:
	b.w	.LBB34_12
	b.w	.LBB34_20
	b.w	.LBB34_20
	b.w	.LBB34_20
	b.w	.LBB34_20
	b.w	.LBB34_20
	b.w	.LBB34_20
	b.w	.LBB34_20
	b.w	.LBB34_20
	b.w	.LBB34_20
	b.w	.LBB34_20
	b.w	.LBB34_20
	b.w	.LBB34_20
	b.w	.LBB34_20
	b.w	.LBB34_20
	b.w	.LBB34_20
	b.w	.LBB34_13
	b.w	.LBB34_20
	b.w	.LBB34_20
	b.w	.LBB34_20
	b.w	.LBB34_20
	b.w	.LBB34_20
	b.w	.LBB34_20
	b.w	.LBB34_20
	b.w	.LBB34_14
	b.w	.LBB34_20
	b.w	.LBB34_20
	b.w	.LBB34_20
	b.w	.LBB34_20
	b.w	.LBB34_20
	b.w	.LBB34_20
	b.w	.LBB34_20
	b.w	.LBB34_15
	b.w	.LBB34_20
	b.w	.LBB34_20
	b.w	.LBB34_20
	b.w	.LBB34_20
	b.w	.LBB34_20
	b.w	.LBB34_20
	b.w	.LBB34_20
	b.w	.LBB34_14
	b.w	.LBB34_20
	b.w	.LBB34_20
	b.w	.LBB34_20
	b.w	.LBB34_20
	b.w	.LBB34_20
	b.w	.LBB34_20
	b.w	.LBB34_20
	b.w	.LBB34_19
.LBB34_12:                              @   in Loop: Header=BB34_1 Depth=1
.Ltmp184:
	.loc	2 844 17 is_stmt 1              @ ../../../../Library/StdDriver/src/i2c.c:844:17
	ldr	r0, [sp, #36]
	lsls	r0, r0, #25
	lsrs	r0, r0, #24
	ldr	r1, [sp, #40]
	str	r0, [r1, #8]
	add	r1, sp, #16
	movs	r0, #8
	.loc	2 845 24                        @ ../../../../Library/StdDriver/src/i2c.c:845:24
	strb	r0, [r1]
	.loc	2 846 17                        @ ../../../../Library/StdDriver/src/i2c.c:846:17
	b	.LBB34_21
.LBB34_13:                              @   in Loop: Header=BB34_1 Depth=1
	.loc	2 0 17 is_stmt 0                @ ../../../../Library/StdDriver/src/i2c.c:0:17
	add	r0, sp, #32
	.loc	2 849 17 is_stmt 1              @ ../../../../Library/StdDriver/src/i2c.c:849:17
	ldrb	r0, [r0]
	ldr	r1, [sp, #40]
	str	r0, [r1, #8]
	.loc	2 850 17                        @ ../../../../Library/StdDriver/src/i2c.c:850:17
	b	.LBB34_21
.LBB34_14:                              @   in Loop: Header=BB34_1 Depth=1
	.loc	2 0 17 is_stmt 0                @ ../../../../Library/StdDriver/src/i2c.c:0:17
	add	r1, sp, #16
	movs	r0, #24
	.loc	2 854 24 is_stmt 1              @ ../../../../Library/StdDriver/src/i2c.c:854:24
	strb	r0, [r1]
	add	r1, sp, #20
	movs	r0, #1
	.loc	2 855 23                        @ ../../../../Library/StdDriver/src/i2c.c:855:23
	strb	r0, [r1]
	.loc	2 856 17                        @ ../../../../Library/StdDriver/src/i2c.c:856:17
	b	.LBB34_21
.LBB34_15:                              @   in Loop: Header=BB34_1 Depth=1
.Ltmp185:
	.loc	2 859 21                        @ ../../../../Library/StdDriver/src/i2c.c:859:21
	ldr	r0, [sp, #12]
	.loc	2 859 32 is_stmt 0              @ ../../../../Library/StdDriver/src/i2c.c:859:32
	ldr	r1, [sp, #52]
.Ltmp186:
	.loc	2 859 21                        @ ../../../../Library/StdDriver/src/i2c.c:859:21
	cmp	r0, r1
	bhs	.LBB34_17
	b	.LBB34_16
.LBB34_16:                              @   in Loop: Header=BB34_1 Depth=1
.Ltmp187:
	.loc	2 861 21 is_stmt 1              @ ../../../../Library/StdDriver/src/i2c.c:861:21
	ldr	r0, [sp, #28]
	ldr	r1, [sp, #12]
	adds	r2, r1, #1
	str	r2, [sp, #12]
	ldrb	r0, [r0, r1]
	ldr	r1, [sp, #40]
	str	r0, [r1, #8]
	.loc	2 862 17                        @ ../../../../Library/StdDriver/src/i2c.c:862:17
	b	.LBB34_18
.Ltmp188:
.LBB34_17:                              @   in Loop: Header=BB34_1 Depth=1
	.loc	2 0 17 is_stmt 0                @ ../../../../Library/StdDriver/src/i2c.c:0:17
	add	r1, sp, #16
	movs	r0, #24
.Ltmp189:
	.loc	2 865 28 is_stmt 1              @ ../../../../Library/StdDriver/src/i2c.c:865:28
	strb	r0, [r1]
	add	r1, sp, #24
	movs	r0, #0
	.loc	2 866 31                        @ ../../../../Library/StdDriver/src/i2c.c:866:31
	strb	r0, [r1]
	b	.LBB34_18
.Ltmp190:
.LBB34_18:                              @   in Loop: Header=BB34_1 Depth=1
	.loc	2 869 17                        @ ../../../../Library/StdDriver/src/i2c.c:869:17
	b	.LBB34_21
.LBB34_19:                              @   in Loop: Header=BB34_1 Depth=1
	.loc	2 871 13                        @ ../../../../Library/StdDriver/src/i2c.c:871:13
	b	.LBB34_20
.LBB34_20:                              @   in Loop: Header=BB34_1 Depth=1
	.loc	2 873 17                        @ ../../../../Library/StdDriver/src/i2c.c:873:17
	ldr	r0, [sp, #40]
	ldr	r0, [r0]
	movs	r1, #24
	orrs	r0, r1
	movs	r1, #36
	bics	r0, r1
	ldr	r1, [sp, #40]
	str	r0, [r1]
	add	r1, sp, #16
	movs	r0, #8
	.loc	2 874 24                        @ ../../../../Library/StdDriver/src/i2c.c:874:24
	strb	r0, [r1]
	add	r1, sp, #20
	movs	r0, #1
	.loc	2 875 23                        @ ../../../../Library/StdDriver/src/i2c.c:875:23
	strb	r0, [r1]
	.loc	2 876 17                        @ ../../../../Library/StdDriver/src/i2c.c:876:17
	b	.LBB34_21
.Ltmp191:
.LBB34_21:                              @   in Loop: Header=BB34_1 Depth=1
	.loc	2 879 9                         @ ../../../../Library/StdDriver/src/i2c.c:879:9
	ldr	r0, [sp, #40]
	ldr	r0, [r0]
	movs	r1, #60
	bics	r0, r1
	add	r1, sp, #16
	ldrb	r1, [r1]
	orrs	r0, r1
	ldr	r1, [sp, #40]
	str	r0, [r1]
.Ltmp192:
	.loc	2 828 5                         @ ../../../../Library/StdDriver/src/i2c.c:828:5
	b	.LBB34_1
.LBB34_22:
	.loc	2 882 23                        @ ../../../../Library/StdDriver/src/i2c.c:882:23
	ldr	r0, __arm_cp.34_1
	ldr	r0, [r0]
	.loc	2 882 21 is_stmt 0              @ ../../../../Library/StdDriver/src/i2c.c:882:21
	str	r0, [sp, #8]
	.loc	2 884 5 is_stmt 1               @ ../../../../Library/StdDriver/src/i2c.c:884:5
	b	.LBB34_23
.LBB34_23:                              @ =>This Inner Loop Header: Depth=1
	.loc	2 884 13 is_stmt 0              @ ../../../../Library/StdDriver/src/i2c.c:884:13
	ldr	r0, [sp, #40]
	.loc	2 884 19                        @ ../../../../Library/StdDriver/src/i2c.c:884:19
	ldr	r0, [r0]
	.loc	2 884 5                         @ ../../../../Library/StdDriver/src/i2c.c:884:5
	lsls	r0, r0, #27
	cmp	r0, #0
	bpl	.LBB34_27
	b	.LBB34_24
.LBB34_24:                              @   in Loop: Header=BB34_23 Depth=1
.Ltmp193:
	.loc	2 886 24 is_stmt 1              @ ../../../../Library/StdDriver/src/i2c.c:886:24
	ldr	r0, [sp, #8]
	subs	r0, r0, #1
	str	r0, [sp, #8]
.Ltmp194:
	.loc	2 888 13                        @ ../../../../Library/StdDriver/src/i2c.c:888:13
	ldr	r0, [sp, #8]
.Ltmp195:
	.loc	2 888 13 is_stmt 0              @ ../../../../Library/StdDriver/src/i2c.c:888:13
	cbnz	r0, .LBB34_26
	b	.LBB34_25
.LBB34_25:
.Ltmp196:
	.loc	2 890 30 is_stmt 1              @ ../../../../Library/StdDriver/src/i2c.c:890:30
	ldr	r1, __arm_cp.34_0
	movs	r0, #0
	mvns	r0, r0
	str	r0, [r1]
	add	r1, sp, #20
	movs	r0, #1
	.loc	2 891 19                        @ ../../../../Library/StdDriver/src/i2c.c:891:19
	strb	r0, [r1]
	.loc	2 892 13                        @ ../../../../Library/StdDriver/src/i2c.c:892:13
	b	.LBB34_27
.Ltmp197:
.LBB34_26:                              @   in Loop: Header=BB34_23 Depth=1
	.loc	2 884 5                         @ ../../../../Library/StdDriver/src/i2c.c:884:5
	b	.LBB34_23
.LBB34_27:
	.loc	2 896 12                        @ ../../../../Library/StdDriver/src/i2c.c:896:12
	ldr	r0, [sp, #12]
	.loc	2 896 5 epilogue_begin is_stmt 0 @ ../../../../Library/StdDriver/src/i2c.c:896:5
	add	sp, #44
	pop	{r4, pc}
.Ltmp198:
	.p2align	2
@ %bb.28:
	.loc	2 0 5                           @ ../../../../Library/StdDriver/src/i2c.c:0:5
__arm_cp.34_0:
	.long	g_I2C_i32ErrCode
.Lcpi_end11:
	.size	__arm_cp.34_0, .Lcpi_end11-__arm_cp.34_0
__arm_cp.34_1:
	.long	SystemCoreClock
.Lcpi_end12:
	.size	__arm_cp.34_1, .Lcpi_end12-__arm_cp.34_1
.Lfunc_end34:
	.size	I2C_WriteMultiBytesOneReg, .Lfunc_end34-I2C_WriteMultiBytesOneReg
	.cfi_endproc
	.cantunwind
	.fnend
                                        @ -- End function
	.section	.text.I2C_WriteByteTwoRegs,"ax",%progbits
	.hidden	I2C_WriteByteTwoRegs            @ -- Begin function I2C_WriteByteTwoRegs
	.globl	I2C_WriteByteTwoRegs
	.p2align	1
	.type	I2C_WriteByteTwoRegs,%function
	.code	16                              @ @I2C_WriteByteTwoRegs
	.thumb_func
I2C_WriteByteTwoRegs:
.Lfunc_begin35:
	.loc	2 917 0 is_stmt 1               @ ../../../../Library/StdDriver/src/i2c.c:917:0
	.fnstart
	.cfi_startproc
@ %bb.0:
	.save	{r4, lr}
	push	{r4, lr}
	.cfi_def_cfa_offset 8
	.cfi_offset lr, -4
	.cfi_offset r4, -8
	.pad	#32
	sub	sp, #32
	.cfi_def_cfa_offset 40
	str	r3, [sp, #4]                    @ 4-byte Spill
	mov	r3, r2
	mov	r2, r1
	mov	r1, r0
	ldr	r0, [sp, #4]                    @ 4-byte Reload
                                        @ kill: def $r4 killed $r0
                                        @ kill: def $r4 killed $r3
                                        @ kill: def $r4 killed $r2
	str	r1, [sp, #24]
	add	r1, sp, #20
	strb	r2, [r1]
	add	r2, sp, #16
	strh	r3, [r2]
	add	r3, sp, #12
	strb	r0, [r3]
.Ltmp199:
	.loc	2 918 52 prologue_end           @ ../../../../Library/StdDriver/src/i2c.c:918:52
	ldr	r0, [sp, #24]
	.loc	2 918 57 is_stmt 0              @ ../../../../Library/StdDriver/src/i2c.c:918:57
	ldrb	r1, [r1]
	.loc	2 918 70                        @ ../../../../Library/StdDriver/src/i2c.c:918:70
	ldrh	r2, [r2]
	movs	r4, #1
	.loc	2 918 25                        @ ../../../../Library/StdDriver/src/i2c.c:918:25
	str	r4, [sp]
	bl	I2C_WriteMultiBytesTwoRegs
	.loc	2 918 14                        @ ../../../../Library/StdDriver/src/i2c.c:918:14
	str	r0, [sp, #8]
.Ltmp200:
	.loc	2 920 9 is_stmt 1               @ ../../../../Library/StdDriver/src/i2c.c:920:9
	ldr	r0, [sp, #8]
.Ltmp201:
	.loc	2 920 9 is_stmt 0               @ ../../../../Library/StdDriver/src/i2c.c:920:9
	cmp	r0, #1
	bne	.LBB35_2
	b	.LBB35_1
.LBB35_1:
	.loc	2 0 9                           @ ../../../../Library/StdDriver/src/i2c.c:0:9
	add	r1, sp, #28
	movs	r0, #0
.Ltmp202:
	.loc	2 922 9 is_stmt 1               @ ../../../../Library/StdDriver/src/i2c.c:922:9
	strb	r0, [r1]
	b	.LBB35_3
.Ltmp203:
.LBB35_2:
	.loc	2 0 9 is_stmt 0                 @ ../../../../Library/StdDriver/src/i2c.c:0:9
	add	r1, sp, #28
	movs	r0, #1
.Ltmp204:
	.loc	2 926 9 is_stmt 1               @ ../../../../Library/StdDriver/src/i2c.c:926:9
	strb	r0, [r1]
	b	.LBB35_3
.Ltmp205:
.LBB35_3:
	.loc	2 0 9 is_stmt 0                 @ ../../../../Library/StdDriver/src/i2c.c:0:9
	add	r0, sp, #28
	.loc	2 928 1 is_stmt 1               @ ../../../../Library/StdDriver/src/i2c.c:928:1
	ldrb	r0, [r0]
	.loc	2 928 1 epilogue_begin is_stmt 0 @ ../../../../Library/StdDriver/src/i2c.c:928:1
	add	sp, #32
	pop	{r4, pc}
.Ltmp206:
.Lfunc_end35:
	.size	I2C_WriteByteTwoRegs, .Lfunc_end35-I2C_WriteByteTwoRegs
	.cfi_endproc
	.cantunwind
	.fnend
                                        @ -- End function
	.section	.text.I2C_WriteMultiBytesTwoRegs,"ax",%progbits
	.hidden	I2C_WriteMultiBytesTwoRegs      @ -- Begin function I2C_WriteMultiBytesTwoRegs
	.globl	I2C_WriteMultiBytesTwoRegs
	.p2align	2
	.type	I2C_WriteMultiBytesTwoRegs,%function
	.code	16                              @ @I2C_WriteMultiBytesTwoRegs
	.thumb_func
I2C_WriteMultiBytesTwoRegs:
.Lfunc_begin36:
	.loc	2 949 0 is_stmt 1               @ ../../../../Library/StdDriver/src/i2c.c:949:0
	.fnstart
	.cfi_startproc
@ %bb.0:
	.save	{r4, lr}
	push	{r4, lr}
	.cfi_def_cfa_offset 8
	.cfi_offset lr, -4
	.cfi_offset r4, -8
	.pad	#48
	sub	sp, #48
	.cfi_def_cfa_offset 56
	ldr	r4, [sp, #56]
                                        @ kill: def $r4 killed $r2
                                        @ kill: def $r4 killed $r1
	str	r0, [sp, #44]
	add	r0, sp, #40
	strb	r1, [r0]
	add	r0, sp, #36
	strh	r2, [r0]
	str	r3, [sp, #32]
	add	r0, sp, #28
	movs	r1, #1
.Ltmp207:
	.loc	2 950 13 prologue_end           @ ../../../../Library/StdDriver/src/i2c.c:950:13
	strb	r1, [r0]
	add	r2, sp, #24
	movs	r0, #0
	.loc	2 950 29 is_stmt 0              @ ../../../../Library/StdDriver/src/i2c.c:950:29
	strb	r0, [r2]
	add	r2, sp, #20
	.loc	2 950 41                        @ ../../../../Library/StdDriver/src/i2c.c:950:41
	strb	r1, [r2]
	add	r1, sp, #16
	.loc	2 950 54                        @ ../../../../Library/StdDriver/src/i2c.c:950:54
	strb	r0, [r1]
	.loc	2 951 14 is_stmt 1              @ ../../../../Library/StdDriver/src/i2c.c:951:14
	str	r0, [sp, #12]
	.loc	2 951 29 is_stmt 0              @ ../../../../Library/StdDriver/src/i2c.c:951:29
	str	r0, [sp, #8]
	.loc	2 953 22 is_stmt 1              @ ../../../../Library/StdDriver/src/i2c.c:953:22
	ldr	r1, __arm_cp.36_0
	str	r0, [r1]
	.loc	2 955 5                         @ ../../../../Library/StdDriver/src/i2c.c:955:5
	ldr	r0, [sp, #44]
	ldr	r0, [r0]
	movs	r1, #32
	orrs	r0, r1
	movs	r1, #8
	bics	r0, r1
	ldr	r1, [sp, #44]
	str	r0, [r1]
	.loc	2 957 5                         @ ../../../../Library/StdDriver/src/i2c.c:957:5
	b	.LBB36_1
.LBB36_1:                               @ =>This Loop Header: Depth=1
                                        @     Child Loop BB36_5 Depth 2
	.loc	2 0 5 is_stmt 0                 @ ../../../../Library/StdDriver/src/i2c.c:0:5
	add	r0, sp, #28
	.loc	2 957 12                        @ ../../../../Library/StdDriver/src/i2c.c:957:12
	ldrb	r1, [r0]
	movs	r0, #0
	.loc	2 957 22                        @ ../../../../Library/StdDriver/src/i2c.c:957:22
	str	r0, [sp, #4]                    @ 4-byte Spill
	cbz	r1, .LBB36_3
	b	.LBB36_2
.LBB36_2:                               @   in Loop: Header=BB36_1 Depth=1
	.loc	2 0 22                          @ ../../../../Library/StdDriver/src/i2c.c:0:22
	add	r0, sp, #24
	.loc	2 957 26                        @ ../../../../Library/StdDriver/src/i2c.c:957:26
	ldrb	r0, [r0]
	.loc	2 957 32                        @ ../../../../Library/StdDriver/src/i2c.c:957:32
	rsbs	r1, r0, #0
	adcs	r0, r1
	str	r0, [sp, #4]                    @ 4-byte Spill
	b	.LBB36_3
.LBB36_3:                               @   in Loop: Header=BB36_1 Depth=1
	.loc	2 0 0                           @ ../../../../Library/StdDriver/src/i2c.c:0:0
	ldr	r0, [sp, #4]                    @ 4-byte Reload
	.loc	2 957 5                         @ ../../../../Library/StdDriver/src/i2c.c:957:5
	lsls	r0, r0, #31
	cbnz	r0, .LBB36_4
	b	.LBB36_26
.LBB36_4:                               @   in Loop: Header=BB36_1 Depth=1
.Ltmp208:
	.loc	2 959 27 is_stmt 1              @ ../../../../Library/StdDriver/src/i2c.c:959:27
	ldr	r0, __arm_cp.36_1
	ldr	r0, [r0]
	.loc	2 959 25 is_stmt 0              @ ../../../../Library/StdDriver/src/i2c.c:959:25
	str	r0, [sp, #8]
	.loc	2 960 9 is_stmt 1               @ ../../../../Library/StdDriver/src/i2c.c:960:9
	b	.LBB36_5
.LBB36_5:                               @   Parent Loop BB36_1 Depth=1
                                        @ =>  This Inner Loop Header: Depth=2
	ldr	r0, [sp, #44]
	ldr	r0, [r0]
	lsls	r0, r0, #28
	cmp	r0, #0
	bmi	.LBB36_9
	b	.LBB36_6
.LBB36_6:                               @   in Loop: Header=BB36_5 Depth=2
.Ltmp209:
	.loc	2 962 17                        @ ../../../../Library/StdDriver/src/i2c.c:962:17
	ldr	r0, [sp, #8]
	subs	r0, r0, #1
	str	r0, [sp, #8]
.Ltmp210:
	.loc	2 962 17 is_stmt 0              @ ../../../../Library/StdDriver/src/i2c.c:962:17
	cbnz	r0, .LBB36_8
	b	.LBB36_7
.LBB36_7:                               @   in Loop: Header=BB36_1 Depth=1
.Ltmp211:
	.loc	2 964 34 is_stmt 1              @ ../../../../Library/StdDriver/src/i2c.c:964:34
	ldr	r1, __arm_cp.36_0
	movs	r0, #0
	mvns	r0, r0
	str	r0, [r1]
	add	r1, sp, #24
	movs	r0, #1
	.loc	2 965 23                        @ ../../../../Library/StdDriver/src/i2c.c:965:23
	strb	r0, [r1]
	.loc	2 966 17                        @ ../../../../Library/StdDriver/src/i2c.c:966:17
	b	.LBB36_9
.Ltmp212:
.LBB36_8:                               @   in Loop: Header=BB36_5 Depth=2
	.loc	2 960 9                         @ ../../../../Library/StdDriver/src/i2c.c:960:9
	b	.LBB36_5
.LBB36_9:                               @   in Loop: Header=BB36_1 Depth=1
	.loc	2 970 17                        @ ../../../../Library/StdDriver/src/i2c.c:970:17
	ldr	r0, [sp, #44]
	ldr	r0, [r0, #12]
	.loc	2 970 9 is_stmt 0               @ ../../../../Library/StdDriver/src/i2c.c:970:9
	subs	r0, #8
	str	r0, [sp]                        @ 4-byte Spill
	cmp	r0, #48
	bls	.LBB36_10
	b	.LBB36_24
.LBB36_10:                              @   in Loop: Header=BB36_1 Depth=1
	ldr	r1, [sp]                        @ 4-byte Reload
	lsls	r2, r1, #2
	adr	r0, .LJTI36_0
	adds	r0, r0, r2
	mov	pc, r0
@ %bb.11:
	.loc	2 0 9                           @ ../../../../Library/StdDriver/src/i2c.c:0:9
	.p2align	2
.LJTI36_0:
	b.w	.LBB36_12
	b.w	.LBB36_24
	b.w	.LBB36_24
	b.w	.LBB36_24
	b.w	.LBB36_24
	b.w	.LBB36_24
	b.w	.LBB36_24
	b.w	.LBB36_24
	b.w	.LBB36_24
	b.w	.LBB36_24
	b.w	.LBB36_24
	b.w	.LBB36_24
	b.w	.LBB36_24
	b.w	.LBB36_24
	b.w	.LBB36_24
	b.w	.LBB36_24
	b.w	.LBB36_13
	b.w	.LBB36_24
	b.w	.LBB36_24
	b.w	.LBB36_24
	b.w	.LBB36_24
	b.w	.LBB36_24
	b.w	.LBB36_24
	b.w	.LBB36_24
	b.w	.LBB36_14
	b.w	.LBB36_24
	b.w	.LBB36_24
	b.w	.LBB36_24
	b.w	.LBB36_24
	b.w	.LBB36_24
	b.w	.LBB36_24
	b.w	.LBB36_24
	b.w	.LBB36_15
	b.w	.LBB36_24
	b.w	.LBB36_24
	b.w	.LBB36_24
	b.w	.LBB36_24
	b.w	.LBB36_24
	b.w	.LBB36_24
	b.w	.LBB36_24
	b.w	.LBB36_14
	b.w	.LBB36_24
	b.w	.LBB36_24
	b.w	.LBB36_24
	b.w	.LBB36_24
	b.w	.LBB36_24
	b.w	.LBB36_24
	b.w	.LBB36_24
	b.w	.LBB36_23
.LBB36_12:                              @   in Loop: Header=BB36_1 Depth=1
.Ltmp213:
	.loc	2 973 17 is_stmt 1              @ ../../../../Library/StdDriver/src/i2c.c:973:17
	ldr	r0, [sp, #40]
	lsls	r0, r0, #25
	lsrs	r0, r0, #24
	ldr	r1, [sp, #44]
	str	r0, [r1, #8]
	add	r1, sp, #16
	movs	r0, #8
	.loc	2 974 24                        @ ../../../../Library/StdDriver/src/i2c.c:974:24
	strb	r0, [r1]
	.loc	2 975 17                        @ ../../../../Library/StdDriver/src/i2c.c:975:17
	b	.LBB36_25
.LBB36_13:                              @   in Loop: Header=BB36_1 Depth=1
	.loc	2 0 17 is_stmt 0                @ ../../../../Library/StdDriver/src/i2c.c:0:17
	add	r0, sp, #36
	.loc	2 978 17 is_stmt 1              @ ../../../../Library/StdDriver/src/i2c.c:978:17
	ldrb	r0, [r0, #1]
	ldr	r1, [sp, #44]
	str	r0, [r1, #8]
	.loc	2 979 17                        @ ../../../../Library/StdDriver/src/i2c.c:979:17
	b	.LBB36_25
.LBB36_14:                              @   in Loop: Header=BB36_1 Depth=1
	.loc	2 0 17 is_stmt 0                @ ../../../../Library/StdDriver/src/i2c.c:0:17
	add	r1, sp, #16
	movs	r0, #24
	.loc	2 983 24 is_stmt 1              @ ../../../../Library/StdDriver/src/i2c.c:983:24
	strb	r0, [r1]
	add	r1, sp, #24
	movs	r0, #1
	.loc	2 984 23                        @ ../../../../Library/StdDriver/src/i2c.c:984:23
	strb	r0, [r1]
	.loc	2 985 17                        @ ../../../../Library/StdDriver/src/i2c.c:985:17
	b	.LBB36_25
.LBB36_15:                              @   in Loop: Header=BB36_1 Depth=1
	.loc	2 0 17 is_stmt 0                @ ../../../../Library/StdDriver/src/i2c.c:0:17
	add	r0, sp, #20
.Ltmp214:
	.loc	2 988 21 is_stmt 1              @ ../../../../Library/StdDriver/src/i2c.c:988:21
	ldrb	r0, [r0]
.Ltmp215:
	.loc	2 988 21 is_stmt 0              @ ../../../../Library/StdDriver/src/i2c.c:988:21
	cbz	r0, .LBB36_17
	b	.LBB36_16
.LBB36_16:                              @   in Loop: Header=BB36_1 Depth=1
	.loc	2 0 21                          @ ../../../../Library/StdDriver/src/i2c.c:0:21
	add	r0, sp, #36
.Ltmp216:
	.loc	2 990 21 is_stmt 1              @ ../../../../Library/StdDriver/src/i2c.c:990:21
	ldrb	r0, [r0]
	ldr	r1, [sp, #44]
	str	r0, [r1, #8]
	add	r1, sp, #20
	movs	r0, #0
	.loc	2 991 28                        @ ../../../../Library/StdDriver/src/i2c.c:991:28
	strb	r0, [r1]
	.loc	2 992 17                        @ ../../../../Library/StdDriver/src/i2c.c:992:17
	b	.LBB36_22
.Ltmp217:
.LBB36_17:                              @   in Loop: Header=BB36_1 Depth=1
	.loc	2 993 27                        @ ../../../../Library/StdDriver/src/i2c.c:993:27
	ldr	r0, [sp, #12]
	.loc	2 993 38 is_stmt 0              @ ../../../../Library/StdDriver/src/i2c.c:993:38
	ldr	r1, [sp, #56]
	.loc	2 993 47                        @ ../../../../Library/StdDriver/src/i2c.c:993:47
	cmp	r0, r1
	bhs	.LBB36_20
	b	.LBB36_18
.LBB36_18:                              @   in Loop: Header=BB36_1 Depth=1
	.loc	2 0 47                          @ ../../../../Library/StdDriver/src/i2c.c:0:47
	add	r0, sp, #20
	.loc	2 993 51                        @ ../../../../Library/StdDriver/src/i2c.c:993:51
	ldrb	r0, [r0]
.Ltmp218:
	.loc	2 993 26                        @ ../../../../Library/StdDriver/src/i2c.c:993:26
	cbnz	r0, .LBB36_20
	b	.LBB36_19
.LBB36_19:                              @   in Loop: Header=BB36_1 Depth=1
.Ltmp219:
	.loc	2 995 21 is_stmt 1              @ ../../../../Library/StdDriver/src/i2c.c:995:21
	ldr	r0, [sp, #32]
	ldr	r1, [sp, #12]
	adds	r2, r1, #1
	str	r2, [sp, #12]
	ldrb	r0, [r0, r1]
	ldr	r1, [sp, #44]
	str	r0, [r1, #8]
	.loc	2 996 17                        @ ../../../../Library/StdDriver/src/i2c.c:996:17
	b	.LBB36_21
.Ltmp220:
.LBB36_20:                              @   in Loop: Header=BB36_1 Depth=1
	.loc	2 0 17 is_stmt 0                @ ../../../../Library/StdDriver/src/i2c.c:0:17
	add	r1, sp, #16
	movs	r0, #24
.Ltmp221:
	.loc	2 999 28 is_stmt 1              @ ../../../../Library/StdDriver/src/i2c.c:999:28
	strb	r0, [r1]
	add	r1, sp, #28
	movs	r0, #0
	.loc	2 1000 31                       @ ../../../../Library/StdDriver/src/i2c.c:1000:31
	strb	r0, [r1]
	b	.LBB36_21
.Ltmp222:
.LBB36_21:                              @   in Loop: Header=BB36_1 Depth=1
	.loc	2 0 31 is_stmt 0                @ ../../../../Library/StdDriver/src/i2c.c:0:31
	b	.LBB36_22
.LBB36_22:                              @   in Loop: Header=BB36_1 Depth=1
	.loc	2 1003 17 is_stmt 1             @ ../../../../Library/StdDriver/src/i2c.c:1003:17
	b	.LBB36_25
.LBB36_23:                              @   in Loop: Header=BB36_1 Depth=1
	.loc	2 1005 13                       @ ../../../../Library/StdDriver/src/i2c.c:1005:13
	b	.LBB36_24
.LBB36_24:                              @   in Loop: Header=BB36_1 Depth=1
	.loc	2 1007 17                       @ ../../../../Library/StdDriver/src/i2c.c:1007:17
	ldr	r0, [sp, #44]
	ldr	r0, [r0]
	movs	r1, #24
	orrs	r0, r1
	movs	r1, #36
	bics	r0, r1
	ldr	r1, [sp, #44]
	str	r0, [r1]
	add	r1, sp, #16
	movs	r0, #8
	.loc	2 1008 24                       @ ../../../../Library/StdDriver/src/i2c.c:1008:24
	strb	r0, [r1]
	add	r1, sp, #24
	movs	r0, #1
	.loc	2 1009 23                       @ ../../../../Library/StdDriver/src/i2c.c:1009:23
	strb	r0, [r1]
	.loc	2 1010 17                       @ ../../../../Library/StdDriver/src/i2c.c:1010:17
	b	.LBB36_25
.Ltmp223:
.LBB36_25:                              @   in Loop: Header=BB36_1 Depth=1
	.loc	2 1013 9                        @ ../../../../Library/StdDriver/src/i2c.c:1013:9
	ldr	r0, [sp, #44]
	ldr	r0, [r0]
	movs	r1, #60
	bics	r0, r1
	add	r1, sp, #16
	ldrb	r1, [r1]
	orrs	r0, r1
	ldr	r1, [sp, #44]
	str	r0, [r1]
.Ltmp224:
	.loc	2 957 5                         @ ../../../../Library/StdDriver/src/i2c.c:957:5
	b	.LBB36_1
.LBB36_26:
	.loc	2 1016 23                       @ ../../../../Library/StdDriver/src/i2c.c:1016:23
	ldr	r0, __arm_cp.36_1
	ldr	r0, [r0]
	.loc	2 1016 21 is_stmt 0             @ ../../../../Library/StdDriver/src/i2c.c:1016:21
	str	r0, [sp, #8]
	.loc	2 1018 5 is_stmt 1              @ ../../../../Library/StdDriver/src/i2c.c:1018:5
	b	.LBB36_27
.LBB36_27:                              @ =>This Inner Loop Header: Depth=1
	.loc	2 1018 13 is_stmt 0             @ ../../../../Library/StdDriver/src/i2c.c:1018:13
	ldr	r0, [sp, #44]
	.loc	2 1018 19                       @ ../../../../Library/StdDriver/src/i2c.c:1018:19
	ldr	r0, [r0]
	.loc	2 1018 5                        @ ../../../../Library/StdDriver/src/i2c.c:1018:5
	lsls	r0, r0, #27
	cmp	r0, #0
	bpl	.LBB36_31
	b	.LBB36_28
.LBB36_28:                              @   in Loop: Header=BB36_27 Depth=1
.Ltmp225:
	.loc	2 1020 24 is_stmt 1             @ ../../../../Library/StdDriver/src/i2c.c:1020:24
	ldr	r0, [sp, #8]
	subs	r0, r0, #1
	str	r0, [sp, #8]
.Ltmp226:
	.loc	2 1022 13                       @ ../../../../Library/StdDriver/src/i2c.c:1022:13
	ldr	r0, [sp, #8]
.Ltmp227:
	.loc	2 1022 13 is_stmt 0             @ ../../../../Library/StdDriver/src/i2c.c:1022:13
	cbnz	r0, .LBB36_30
	b	.LBB36_29
.LBB36_29:
.Ltmp228:
	.loc	2 1024 30 is_stmt 1             @ ../../../../Library/StdDriver/src/i2c.c:1024:30
	ldr	r1, __arm_cp.36_0
	movs	r0, #0
	mvns	r0, r0
	str	r0, [r1]
	add	r1, sp, #24
	movs	r0, #1
	.loc	2 1025 19                       @ ../../../../Library/StdDriver/src/i2c.c:1025:19
	strb	r0, [r1]
	.loc	2 1026 13                       @ ../../../../Library/StdDriver/src/i2c.c:1026:13
	b	.LBB36_31
.Ltmp229:
.LBB36_30:                              @   in Loop: Header=BB36_27 Depth=1
	.loc	2 1018 5                        @ ../../../../Library/StdDriver/src/i2c.c:1018:5
	b	.LBB36_27
.LBB36_31:
	.loc	2 1030 12                       @ ../../../../Library/StdDriver/src/i2c.c:1030:12
	ldr	r0, [sp, #12]
	.loc	2 1030 5 epilogue_begin is_stmt 0 @ ../../../../Library/StdDriver/src/i2c.c:1030:5
	add	sp, #48
	pop	{r4, pc}
.Ltmp230:
	.p2align	2
@ %bb.32:
	.loc	2 0 5                           @ ../../../../Library/StdDriver/src/i2c.c:0:5
__arm_cp.36_0:
	.long	g_I2C_i32ErrCode
.Lcpi_end13:
	.size	__arm_cp.36_0, .Lcpi_end13-__arm_cp.36_0
__arm_cp.36_1:
	.long	SystemCoreClock
.Lcpi_end14:
	.size	__arm_cp.36_1, .Lcpi_end14-__arm_cp.36_1
.Lfunc_end36:
	.size	I2C_WriteMultiBytesTwoRegs, .Lfunc_end36-I2C_WriteMultiBytesTwoRegs
	.cfi_endproc
	.cantunwind
	.fnend
                                        @ -- End function
	.section	.text.I2C_ReadByte,"ax",%progbits
	.hidden	I2C_ReadByte                    @ -- Begin function I2C_ReadByte
	.globl	I2C_ReadByte
	.p2align	1
	.type	I2C_ReadByte,%function
	.code	16                              @ @I2C_ReadByte
	.thumb_func
I2C_ReadByte:
.Lfunc_begin37:
	.loc	2 1047 0 is_stmt 1              @ ../../../../Library/StdDriver/src/i2c.c:1047:0
	.fnstart
	.cfi_startproc
@ %bb.0:
	.save	{r7, lr}
	push	{r7, lr}
	.cfi_def_cfa_offset 8
	.cfi_offset lr, -4
	.cfi_offset r7, -8
	.pad	#24
	sub	sp, #24
	.cfi_def_cfa_offset 32
	str	r1, [sp]                        @ 4-byte Spill
	mov	r1, r0
	ldr	r0, [sp]                        @ 4-byte Reload
                                        @ kill: def $r2 killed $r0
	str	r1, [sp, #16]
	add	r1, sp, #12
	strb	r0, [r1]
.Ltmp231:
	.loc	2 1050 44 prologue_end          @ ../../../../Library/StdDriver/src/i2c.c:1050:44
	ldr	r0, [sp, #16]
	.loc	2 1050 49 is_stmt 0             @ ../../../../Library/StdDriver/src/i2c.c:1050:49
	ldrb	r1, [r1]
	add	r2, sp, #8
	movs	r3, #1
	.loc	2 1050 25                       @ ../../../../Library/StdDriver/src/i2c.c:1050:25
	bl	I2C_ReadMultiBytes
	.loc	2 1050 14                       @ ../../../../Library/StdDriver/src/i2c.c:1050:14
	str	r0, [sp, #4]
.Ltmp232:
	.loc	2 1052 9 is_stmt 1              @ ../../../../Library/StdDriver/src/i2c.c:1052:9
	ldr	r0, [sp, #4]
.Ltmp233:
	.loc	2 1052 9 is_stmt 0              @ ../../../../Library/StdDriver/src/i2c.c:1052:9
	cmp	r0, #1
	bne	.LBB37_2
	b	.LBB37_1
.LBB37_1:
.Ltmp234:
	.loc	2 1054 16 is_stmt 1             @ ../../../../Library/StdDriver/src/i2c.c:1054:16
	ldr	r0, [sp, #8]
	add	r1, sp, #20
	.loc	2 1054 9 is_stmt 0              @ ../../../../Library/StdDriver/src/i2c.c:1054:9
	strb	r0, [r1]
	b	.LBB37_3
.Ltmp235:
.LBB37_2:
	.loc	2 0 9                           @ ../../../../Library/StdDriver/src/i2c.c:0:9
	add	r1, sp, #20
	movs	r0, #0
.Ltmp236:
	.loc	2 1058 9 is_stmt 1              @ ../../../../Library/StdDriver/src/i2c.c:1058:9
	strb	r0, [r1]
	b	.LBB37_3
.Ltmp237:
.LBB37_3:
	.loc	2 0 9 is_stmt 0                 @ ../../../../Library/StdDriver/src/i2c.c:0:9
	add	r0, sp, #20
	.loc	2 1060 1 is_stmt 1              @ ../../../../Library/StdDriver/src/i2c.c:1060:1
	ldrb	r0, [r0]
	.loc	2 1060 1 epilogue_begin is_stmt 0 @ ../../../../Library/StdDriver/src/i2c.c:1060:1
	add	sp, #24
	pop	{r7, pc}
.Ltmp238:
.Lfunc_end37:
	.size	I2C_ReadByte, .Lfunc_end37-I2C_ReadByte
	.cfi_endproc
	.cantunwind
	.fnend
                                        @ -- End function
	.section	.text.I2C_ReadMultiBytes,"ax",%progbits
	.hidden	I2C_ReadMultiBytes              @ -- Begin function I2C_ReadMultiBytes
	.globl	I2C_ReadMultiBytes
	.p2align	2
	.type	I2C_ReadMultiBytes,%function
	.code	16                              @ @I2C_ReadMultiBytes
	.thumb_func
I2C_ReadMultiBytes:
.Lfunc_begin38:
	.loc	2 1079 0 is_stmt 1              @ ../../../../Library/StdDriver/src/i2c.c:1079:0
	.fnstart
	.cfi_startproc
@ %bb.0:
	.save	{r4, lr}
	push	{r4, lr}
	.cfi_def_cfa_offset 8
	.cfi_offset lr, -4
	.cfi_offset r4, -8
	.pad	#44
	sub	sp, #44
	.cfi_def_cfa_offset 52
                                        @ kill: def $r4 killed $r1
	str	r0, [sp, #40]
	add	r0, sp, #36
	strb	r1, [r0]
	str	r2, [sp, #32]
	str	r3, [sp, #28]
	add	r1, sp, #24
	movs	r0, #1
.Ltmp239:
	.loc	2 1080 13 prologue_end          @ ../../../../Library/StdDriver/src/i2c.c:1080:13
	strb	r0, [r1]
	add	r1, sp, #20
	movs	r0, #0
	.loc	2 1080 29 is_stmt 0             @ ../../../../Library/StdDriver/src/i2c.c:1080:29
	strb	r0, [r1]
	add	r1, sp, #16
	.loc	2 1080 41                       @ ../../../../Library/StdDriver/src/i2c.c:1080:41
	strb	r0, [r1]
	.loc	2 1081 14 is_stmt 1             @ ../../../../Library/StdDriver/src/i2c.c:1081:14
	str	r0, [sp, #12]
	.loc	2 1081 29 is_stmt 0             @ ../../../../Library/StdDriver/src/i2c.c:1081:29
	str	r0, [sp, #8]
	.loc	2 1083 22 is_stmt 1             @ ../../../../Library/StdDriver/src/i2c.c:1083:22
	ldr	r1, __arm_cp.38_0
	str	r0, [r1]
	.loc	2 1085 5                        @ ../../../../Library/StdDriver/src/i2c.c:1085:5
	ldr	r0, [sp, #40]
	ldr	r0, [r0]
	movs	r1, #32
	orrs	r0, r1
	movs	r1, #8
	bics	r0, r1
	ldr	r1, [sp, #40]
	str	r0, [r1]
	.loc	2 1087 5                        @ ../../../../Library/StdDriver/src/i2c.c:1087:5
	b	.LBB38_1
.LBB38_1:                               @ =>This Loop Header: Depth=1
                                        @     Child Loop BB38_5 Depth 2
	.loc	2 0 5 is_stmt 0                 @ ../../../../Library/StdDriver/src/i2c.c:0:5
	add	r0, sp, #24
	.loc	2 1087 12                       @ ../../../../Library/StdDriver/src/i2c.c:1087:12
	ldrb	r1, [r0]
	movs	r0, #0
	.loc	2 1087 22                       @ ../../../../Library/StdDriver/src/i2c.c:1087:22
	str	r0, [sp, #4]                    @ 4-byte Spill
	cbz	r1, .LBB38_3
	b	.LBB38_2
.LBB38_2:                               @   in Loop: Header=BB38_1 Depth=1
	.loc	2 0 22                          @ ../../../../Library/StdDriver/src/i2c.c:0:22
	add	r0, sp, #20
	.loc	2 1087 26                       @ ../../../../Library/StdDriver/src/i2c.c:1087:26
	ldrb	r0, [r0]
	.loc	2 1087 32                       @ ../../../../Library/StdDriver/src/i2c.c:1087:32
	rsbs	r1, r0, #0
	adcs	r0, r1
	str	r0, [sp, #4]                    @ 4-byte Spill
	b	.LBB38_3
.LBB38_3:                               @   in Loop: Header=BB38_1 Depth=1
	.loc	2 0 0                           @ ../../../../Library/StdDriver/src/i2c.c:0:0
	ldr	r0, [sp, #4]                    @ 4-byte Reload
	.loc	2 1087 5                        @ ../../../../Library/StdDriver/src/i2c.c:1087:5
	lsls	r0, r0, #31
	cbnz	r0, .LBB38_4
	b	.LBB38_29
.LBB38_4:                               @   in Loop: Header=BB38_1 Depth=1
.Ltmp240:
	.loc	2 1089 27 is_stmt 1             @ ../../../../Library/StdDriver/src/i2c.c:1089:27
	ldr	r0, __arm_cp.38_1
	ldr	r0, [r0]
	.loc	2 1089 25 is_stmt 0             @ ../../../../Library/StdDriver/src/i2c.c:1089:25
	str	r0, [sp, #8]
	.loc	2 1090 9 is_stmt 1              @ ../../../../Library/StdDriver/src/i2c.c:1090:9
	b	.LBB38_5
.LBB38_5:                               @   Parent Loop BB38_1 Depth=1
                                        @ =>  This Inner Loop Header: Depth=2
	ldr	r0, [sp, #40]
	ldr	r0, [r0]
	lsls	r0, r0, #28
	cmp	r0, #0
	bmi	.LBB38_9
	b	.LBB38_6
.LBB38_6:                               @   in Loop: Header=BB38_5 Depth=2
.Ltmp241:
	.loc	2 1092 17                       @ ../../../../Library/StdDriver/src/i2c.c:1092:17
	ldr	r0, [sp, #8]
	subs	r0, r0, #1
	str	r0, [sp, #8]
.Ltmp242:
	.loc	2 1092 17 is_stmt 0             @ ../../../../Library/StdDriver/src/i2c.c:1092:17
	cbnz	r0, .LBB38_8
	b	.LBB38_7
.LBB38_7:                               @   in Loop: Header=BB38_1 Depth=1
.Ltmp243:
	.loc	2 1094 34 is_stmt 1             @ ../../../../Library/StdDriver/src/i2c.c:1094:34
	ldr	r1, __arm_cp.38_0
	movs	r0, #0
	mvns	r0, r0
	str	r0, [r1]
	add	r1, sp, #20
	movs	r0, #1
	.loc	2 1095 23                       @ ../../../../Library/StdDriver/src/i2c.c:1095:23
	strb	r0, [r1]
	.loc	2 1096 17                       @ ../../../../Library/StdDriver/src/i2c.c:1096:17
	b	.LBB38_9
.Ltmp244:
.LBB38_8:                               @   in Loop: Header=BB38_5 Depth=2
	.loc	2 1090 9                        @ ../../../../Library/StdDriver/src/i2c.c:1090:9
	b	.LBB38_5
.LBB38_9:                               @   in Loop: Header=BB38_1 Depth=1
	.loc	2 1100 17                       @ ../../../../Library/StdDriver/src/i2c.c:1100:17
	ldr	r0, [sp, #40]
	ldr	r0, [r0, #12]
	.loc	2 1100 9 is_stmt 0              @ ../../../../Library/StdDriver/src/i2c.c:1100:9
	str	r0, [sp]                        @ 4-byte Spill
	cmp	r0, #8
	beq	.LBB38_15
	b	.LBB38_10
.LBB38_10:                              @   in Loop: Header=BB38_1 Depth=1
	ldr	r0, [sp]                        @ 4-byte Reload
	cmp	r0, #56
	beq	.LBB38_26
	b	.LBB38_11
.LBB38_11:                              @   in Loop: Header=BB38_1 Depth=1
	ldr	r0, [sp]                        @ 4-byte Reload
	cmp	r0, #64
	beq	.LBB38_16
	b	.LBB38_12
.LBB38_12:                              @   in Loop: Header=BB38_1 Depth=1
	ldr	r0, [sp]                        @ 4-byte Reload
	cmp	r0, #72
	beq	.LBB38_20
	b	.LBB38_13
.LBB38_13:                              @   in Loop: Header=BB38_1 Depth=1
	ldr	r0, [sp]                        @ 4-byte Reload
	cmp	r0, #80
	beq	.LBB38_21
	b	.LBB38_14
.LBB38_14:                              @   in Loop: Header=BB38_1 Depth=1
	ldr	r0, [sp]                        @ 4-byte Reload
	cmp	r0, #88
	beq	.LBB38_25
	b	.LBB38_27
.LBB38_15:                              @   in Loop: Header=BB38_1 Depth=1
.Ltmp245:
	.loc	2 1103 17 is_stmt 1             @ ../../../../Library/StdDriver/src/i2c.c:1103:17
	ldr	r0, [sp, #36]
	lsls	r0, r0, #1
	adds	r0, r0, #1
	uxtb	r0, r0
	ldr	r1, [sp, #40]
	str	r0, [r1, #8]
	add	r1, sp, #16
	movs	r0, #8
	.loc	2 1104 24                       @ ../../../../Library/StdDriver/src/i2c.c:1104:24
	strb	r0, [r1]
	.loc	2 1105 17                       @ ../../../../Library/StdDriver/src/i2c.c:1105:17
	b	.LBB38_28
.LBB38_16:                              @   in Loop: Header=BB38_1 Depth=1
.Ltmp246:
	.loc	2 1108 21                       @ ../../../../Library/StdDriver/src/i2c.c:1108:21
	ldr	r0, [sp, #28]
.Ltmp247:
	.loc	2 1108 21 is_stmt 0             @ ../../../../Library/StdDriver/src/i2c.c:1108:21
	cmp	r0, #1
	bne	.LBB38_18
	b	.LBB38_17
.LBB38_17:                              @   in Loop: Header=BB38_1 Depth=1
	.loc	2 0 21                          @ ../../../../Library/StdDriver/src/i2c.c:0:21
	add	r1, sp, #16
	movs	r0, #8
.Ltmp248:
	.loc	2 1110 28 is_stmt 1             @ ../../../../Library/StdDriver/src/i2c.c:1110:28
	strb	r0, [r1]
	.loc	2 1111 17                       @ ../../../../Library/StdDriver/src/i2c.c:1111:17
	b	.LBB38_19
.Ltmp249:
.LBB38_18:                              @   in Loop: Header=BB38_1 Depth=1
	.loc	2 0 17 is_stmt 0                @ ../../../../Library/StdDriver/src/i2c.c:0:17
	add	r1, sp, #16
	movs	r0, #12
.Ltmp250:
	.loc	2 1114 28 is_stmt 1             @ ../../../../Library/StdDriver/src/i2c.c:1114:28
	strb	r0, [r1]
	b	.LBB38_19
.Ltmp251:
.LBB38_19:                              @   in Loop: Header=BB38_1 Depth=1
	.loc	2 1117 17                       @ ../../../../Library/StdDriver/src/i2c.c:1117:17
	b	.LBB38_28
.LBB38_20:                              @   in Loop: Header=BB38_1 Depth=1
	.loc	2 0 17 is_stmt 0                @ ../../../../Library/StdDriver/src/i2c.c:0:17
	add	r1, sp, #16
	movs	r0, #24
	.loc	2 1120 24 is_stmt 1             @ ../../../../Library/StdDriver/src/i2c.c:1120:24
	strb	r0, [r1]
	add	r1, sp, #20
	movs	r0, #1
	.loc	2 1121 23                       @ ../../../../Library/StdDriver/src/i2c.c:1121:23
	strb	r0, [r1]
	.loc	2 1122 17                       @ ../../../../Library/StdDriver/src/i2c.c:1122:17
	b	.LBB38_28
.LBB38_21:                              @   in Loop: Header=BB38_1 Depth=1
	.loc	2 1125 53                       @ ../../../../Library/StdDriver/src/i2c.c:1125:53
	ldr	r0, [sp, #40]
	ldr	r0, [r0, #8]
	.loc	2 1125 17 is_stmt 0             @ ../../../../Library/StdDriver/src/i2c.c:1125:17
	ldr	r1, [sp, #32]
	.loc	2 1125 31                       @ ../../../../Library/StdDriver/src/i2c.c:1125:31
	ldr	r2, [sp, #12]
	adds	r3, r2, #1
	str	r3, [sp, #12]
	.loc	2 1125 35                       @ ../../../../Library/StdDriver/src/i2c.c:1125:35
	strb	r0, [r1, r2]
.Ltmp252:
	.loc	2 1127 21 is_stmt 1             @ ../../../../Library/StdDriver/src/i2c.c:1127:21
	ldr	r0, [sp, #12]
	.loc	2 1127 33 is_stmt 0             @ ../../../../Library/StdDriver/src/i2c.c:1127:33
	ldr	r1, [sp, #28]
	.loc	2 1127 41                       @ ../../../../Library/StdDriver/src/i2c.c:1127:41
	subs	r1, r1, #1
.Ltmp253:
	.loc	2 1127 21                       @ ../../../../Library/StdDriver/src/i2c.c:1127:21
	cmp	r0, r1
	bhs	.LBB38_23
	b	.LBB38_22
.LBB38_22:                              @   in Loop: Header=BB38_1 Depth=1
	.loc	2 0 21                          @ ../../../../Library/StdDriver/src/i2c.c:0:21
	add	r1, sp, #16
	movs	r0, #12
.Ltmp254:
	.loc	2 1129 28 is_stmt 1             @ ../../../../Library/StdDriver/src/i2c.c:1129:28
	strb	r0, [r1]
	.loc	2 1130 17                       @ ../../../../Library/StdDriver/src/i2c.c:1130:17
	b	.LBB38_24
.Ltmp255:
.LBB38_23:                              @   in Loop: Header=BB38_1 Depth=1
	.loc	2 0 17 is_stmt 0                @ ../../../../Library/StdDriver/src/i2c.c:0:17
	add	r1, sp, #16
	movs	r0, #8
.Ltmp256:
	.loc	2 1133 28 is_stmt 1             @ ../../../../Library/StdDriver/src/i2c.c:1133:28
	strb	r0, [r1]
	b	.LBB38_24
.Ltmp257:
.LBB38_24:                              @   in Loop: Header=BB38_1 Depth=1
	.loc	2 1136 17                       @ ../../../../Library/StdDriver/src/i2c.c:1136:17
	b	.LBB38_28
.LBB38_25:                              @   in Loop: Header=BB38_1 Depth=1
	.loc	2 1139 53                       @ ../../../../Library/StdDriver/src/i2c.c:1139:53
	ldr	r0, [sp, #40]
	ldr	r0, [r0, #8]
	.loc	2 1139 17 is_stmt 0             @ ../../../../Library/StdDriver/src/i2c.c:1139:17
	ldr	r1, [sp, #32]
	.loc	2 1139 31                       @ ../../../../Library/StdDriver/src/i2c.c:1139:31
	ldr	r2, [sp, #12]
	adds	r3, r2, #1
	str	r3, [sp, #12]
	.loc	2 1139 35                       @ ../../../../Library/StdDriver/src/i2c.c:1139:35
	strb	r0, [r1, r2]
	add	r1, sp, #16
	movs	r0, #24
	.loc	2 1140 24 is_stmt 1             @ ../../../../Library/StdDriver/src/i2c.c:1140:24
	strb	r0, [r1]
	add	r1, sp, #24
	movs	r0, #0
	.loc	2 1141 27                       @ ../../../../Library/StdDriver/src/i2c.c:1141:27
	strb	r0, [r1]
	.loc	2 1142 17                       @ ../../../../Library/StdDriver/src/i2c.c:1142:17
	b	.LBB38_28
.LBB38_26:                              @   in Loop: Header=BB38_1 Depth=1
	.loc	2 1144 13                       @ ../../../../Library/StdDriver/src/i2c.c:1144:13
	b	.LBB38_27
.LBB38_27:                              @   in Loop: Header=BB38_1 Depth=1
	.loc	2 1146 17                       @ ../../../../Library/StdDriver/src/i2c.c:1146:17
	ldr	r0, [sp, #40]
	ldr	r0, [r0]
	movs	r1, #24
	orrs	r0, r1
	movs	r1, #36
	bics	r0, r1
	ldr	r1, [sp, #40]
	str	r0, [r1]
	add	r1, sp, #16
	movs	r0, #8
	.loc	2 1147 24                       @ ../../../../Library/StdDriver/src/i2c.c:1147:24
	strb	r0, [r1]
	add	r1, sp, #20
	movs	r0, #1
	.loc	2 1148 23                       @ ../../../../Library/StdDriver/src/i2c.c:1148:23
	strb	r0, [r1]
	.loc	2 1149 17                       @ ../../../../Library/StdDriver/src/i2c.c:1149:17
	b	.LBB38_28
.Ltmp258:
.LBB38_28:                              @   in Loop: Header=BB38_1 Depth=1
	.loc	2 1152 9                        @ ../../../../Library/StdDriver/src/i2c.c:1152:9
	ldr	r0, [sp, #40]
	ldr	r0, [r0]
	movs	r1, #60
	bics	r0, r1
	add	r1, sp, #16
	ldrb	r1, [r1]
	orrs	r0, r1
	ldr	r1, [sp, #40]
	str	r0, [r1]
.Ltmp259:
	.loc	2 1087 5                        @ ../../../../Library/StdDriver/src/i2c.c:1087:5
	b	.LBB38_1
.LBB38_29:
	.loc	2 1155 23                       @ ../../../../Library/StdDriver/src/i2c.c:1155:23
	ldr	r0, __arm_cp.38_1
	ldr	r0, [r0]
	.loc	2 1155 21 is_stmt 0             @ ../../../../Library/StdDriver/src/i2c.c:1155:21
	str	r0, [sp, #8]
	.loc	2 1157 5 is_stmt 1              @ ../../../../Library/StdDriver/src/i2c.c:1157:5
	b	.LBB38_30
.LBB38_30:                              @ =>This Inner Loop Header: Depth=1
	.loc	2 1157 13 is_stmt 0             @ ../../../../Library/StdDriver/src/i2c.c:1157:13
	ldr	r0, [sp, #40]
	.loc	2 1157 19                       @ ../../../../Library/StdDriver/src/i2c.c:1157:19
	ldr	r0, [r0]
	.loc	2 1157 5                        @ ../../../../Library/StdDriver/src/i2c.c:1157:5
	lsls	r0, r0, #27
	cmp	r0, #0
	bpl	.LBB38_34
	b	.LBB38_31
.LBB38_31:                              @   in Loop: Header=BB38_30 Depth=1
.Ltmp260:
	.loc	2 1159 24 is_stmt 1             @ ../../../../Library/StdDriver/src/i2c.c:1159:24
	ldr	r0, [sp, #8]
	subs	r0, r0, #1
	str	r0, [sp, #8]
.Ltmp261:
	.loc	2 1161 13                       @ ../../../../Library/StdDriver/src/i2c.c:1161:13
	ldr	r0, [sp, #8]
.Ltmp262:
	.loc	2 1161 13 is_stmt 0             @ ../../../../Library/StdDriver/src/i2c.c:1161:13
	cbnz	r0, .LBB38_33
	b	.LBB38_32
.LBB38_32:
.Ltmp263:
	.loc	2 1163 30 is_stmt 1             @ ../../../../Library/StdDriver/src/i2c.c:1163:30
	ldr	r1, __arm_cp.38_0
	movs	r0, #0
	mvns	r0, r0
	str	r0, [r1]
	add	r1, sp, #20
	movs	r0, #1
	.loc	2 1164 19                       @ ../../../../Library/StdDriver/src/i2c.c:1164:19
	strb	r0, [r1]
	.loc	2 1165 13                       @ ../../../../Library/StdDriver/src/i2c.c:1165:13
	b	.LBB38_34
.Ltmp264:
.LBB38_33:                              @   in Loop: Header=BB38_30 Depth=1
	.loc	2 1157 5                        @ ../../../../Library/StdDriver/src/i2c.c:1157:5
	b	.LBB38_30
.LBB38_34:
	.loc	2 1169 12                       @ ../../../../Library/StdDriver/src/i2c.c:1169:12
	ldr	r0, [sp, #12]
	.loc	2 1169 5 epilogue_begin is_stmt 0 @ ../../../../Library/StdDriver/src/i2c.c:1169:5
	add	sp, #44
	pop	{r4, pc}
.Ltmp265:
	.p2align	2
@ %bb.35:
	.loc	2 0 5                           @ ../../../../Library/StdDriver/src/i2c.c:0:5
__arm_cp.38_0:
	.long	g_I2C_i32ErrCode
.Lcpi_end15:
	.size	__arm_cp.38_0, .Lcpi_end15-__arm_cp.38_0
__arm_cp.38_1:
	.long	SystemCoreClock
.Lcpi_end16:
	.size	__arm_cp.38_1, .Lcpi_end16-__arm_cp.38_1
.Lfunc_end38:
	.size	I2C_ReadMultiBytes, .Lfunc_end38-I2C_ReadMultiBytes
	.cfi_endproc
	.cantunwind
	.fnend
                                        @ -- End function
	.section	.text.I2C_ReadByteOneReg,"ax",%progbits
	.hidden	I2C_ReadByteOneReg              @ -- Begin function I2C_ReadByteOneReg
	.globl	I2C_ReadByteOneReg
	.p2align	1
	.type	I2C_ReadByteOneReg,%function
	.code	16                              @ @I2C_ReadByteOneReg
	.thumb_func
I2C_ReadByteOneReg:
.Lfunc_begin39:
	.loc	2 1188 0 is_stmt 1              @ ../../../../Library/StdDriver/src/i2c.c:1188:0
	.fnstart
	.cfi_startproc
@ %bb.0:
	.save	{r7, lr}
	push	{r7, lr}
	.cfi_def_cfa_offset 8
	.cfi_offset lr, -4
	.cfi_offset r7, -8
	.pad	#32
	sub	sp, #32
	.cfi_def_cfa_offset 40
	str	r2, [sp, #4]                    @ 4-byte Spill
	mov	r2, r1
	mov	r1, r0
	ldr	r0, [sp, #4]                    @ 4-byte Reload
                                        @ kill: def $r3 killed $r0
                                        @ kill: def $r3 killed $r2
	str	r1, [sp, #24]
	add	r1, sp, #20
	strb	r2, [r1]
	add	r2, sp, #16
	strb	r0, [r2]
.Ltmp266:
	.loc	2 1191 50 prologue_end          @ ../../../../Library/StdDriver/src/i2c.c:1191:50
	ldr	r0, [sp, #24]
	.loc	2 1191 55 is_stmt 0             @ ../../../../Library/StdDriver/src/i2c.c:1191:55
	ldrb	r1, [r1]
	.loc	2 1191 68                       @ ../../../../Library/StdDriver/src/i2c.c:1191:68
	ldrb	r2, [r2]
	movs	r3, #1
	.loc	2 1191 25                       @ ../../../../Library/StdDriver/src/i2c.c:1191:25
	str	r3, [sp]
	add	r3, sp, #12
	bl	I2C_ReadMultiBytesOneReg
	.loc	2 1191 14                       @ ../../../../Library/StdDriver/src/i2c.c:1191:14
	str	r0, [sp, #8]
.Ltmp267:
	.loc	2 1193 9 is_stmt 1              @ ../../../../Library/StdDriver/src/i2c.c:1193:9
	ldr	r0, [sp, #8]
.Ltmp268:
	.loc	2 1193 9 is_stmt 0              @ ../../../../Library/StdDriver/src/i2c.c:1193:9
	cmp	r0, #1
	bne	.LBB39_2
	b	.LBB39_1
.LBB39_1:
.Ltmp269:
	.loc	2 1195 16 is_stmt 1             @ ../../../../Library/StdDriver/src/i2c.c:1195:16
	ldr	r0, [sp, #12]
	add	r1, sp, #28
	.loc	2 1195 9 is_stmt 0              @ ../../../../Library/StdDriver/src/i2c.c:1195:9
	strb	r0, [r1]
	b	.LBB39_3
.Ltmp270:
.LBB39_2:
	.loc	2 0 9                           @ ../../../../Library/StdDriver/src/i2c.c:0:9
	add	r1, sp, #28
	movs	r0, #0
.Ltmp271:
	.loc	2 1199 9 is_stmt 1              @ ../../../../Library/StdDriver/src/i2c.c:1199:9
	strb	r0, [r1]
	b	.LBB39_3
.Ltmp272:
.LBB39_3:
	.loc	2 0 9 is_stmt 0                 @ ../../../../Library/StdDriver/src/i2c.c:0:9
	add	r0, sp, #28
	.loc	2 1201 1 is_stmt 1              @ ../../../../Library/StdDriver/src/i2c.c:1201:1
	ldrb	r0, [r0]
	.loc	2 1201 1 epilogue_begin is_stmt 0 @ ../../../../Library/StdDriver/src/i2c.c:1201:1
	add	sp, #32
	pop	{r7, pc}
.Ltmp273:
.Lfunc_end39:
	.size	I2C_ReadByteOneReg, .Lfunc_end39-I2C_ReadByteOneReg
	.cfi_endproc
	.cantunwind
	.fnend
                                        @ -- End function
	.section	.text.I2C_ReadMultiBytesOneReg,"ax",%progbits
	.hidden	I2C_ReadMultiBytesOneReg        @ -- Begin function I2C_ReadMultiBytesOneReg
	.globl	I2C_ReadMultiBytesOneReg
	.p2align	2
	.type	I2C_ReadMultiBytesOneReg,%function
	.code	16                              @ @I2C_ReadMultiBytesOneReg
	.thumb_func
I2C_ReadMultiBytesOneReg:
.Lfunc_begin40:
	.loc	2 1220 0 is_stmt 1              @ ../../../../Library/StdDriver/src/i2c.c:1220:0
	.fnstart
	.cfi_startproc
@ %bb.0:
	.save	{r4, lr}
	push	{r4, lr}
	.cfi_def_cfa_offset 8
	.cfi_offset lr, -4
	.cfi_offset r4, -8
	.pad	#44
	sub	sp, #44
	.cfi_def_cfa_offset 52
	ldr	r4, [sp, #52]
                                        @ kill: def $r4 killed $r2
                                        @ kill: def $r4 killed $r1
	str	r0, [sp, #40]
	add	r0, sp, #36
	strb	r1, [r0]
	add	r0, sp, #32
	strb	r2, [r0]
	str	r3, [sp, #28]
	add	r1, sp, #24
	movs	r0, #1
.Ltmp274:
	.loc	2 1221 13 prologue_end          @ ../../../../Library/StdDriver/src/i2c.c:1221:13
	strb	r0, [r1]
	add	r1, sp, #20
	movs	r0, #0
	.loc	2 1221 29 is_stmt 0             @ ../../../../Library/StdDriver/src/i2c.c:1221:29
	strb	r0, [r1]
	add	r1, sp, #16
	.loc	2 1221 41                       @ ../../../../Library/StdDriver/src/i2c.c:1221:41
	strb	r0, [r1]
	.loc	2 1222 14 is_stmt 1             @ ../../../../Library/StdDriver/src/i2c.c:1222:14
	str	r0, [sp, #12]
	.loc	2 1222 29 is_stmt 0             @ ../../../../Library/StdDriver/src/i2c.c:1222:29
	str	r0, [sp, #8]
	.loc	2 1224 22 is_stmt 1             @ ../../../../Library/StdDriver/src/i2c.c:1224:22
	ldr	r1, __arm_cp.40_0
	str	r0, [r1]
	.loc	2 1226 5                        @ ../../../../Library/StdDriver/src/i2c.c:1226:5
	ldr	r0, [sp, #40]
	ldr	r0, [r0]
	movs	r1, #32
	orrs	r0, r1
	movs	r1, #8
	bics	r0, r1
	ldr	r1, [sp, #40]
	str	r0, [r1]
	.loc	2 1228 5                        @ ../../../../Library/StdDriver/src/i2c.c:1228:5
	b	.LBB40_1
.LBB40_1:                               @ =>This Loop Header: Depth=1
                                        @     Child Loop BB40_5 Depth 2
	.loc	2 0 5 is_stmt 0                 @ ../../../../Library/StdDriver/src/i2c.c:0:5
	add	r0, sp, #24
	.loc	2 1228 12                       @ ../../../../Library/StdDriver/src/i2c.c:1228:12
	ldrb	r1, [r0]
	movs	r0, #0
	.loc	2 1228 22                       @ ../../../../Library/StdDriver/src/i2c.c:1228:22
	str	r0, [sp, #4]                    @ 4-byte Spill
	cbz	r1, .LBB40_3
	b	.LBB40_2
.LBB40_2:                               @   in Loop: Header=BB40_1 Depth=1
	.loc	2 0 22                          @ ../../../../Library/StdDriver/src/i2c.c:0:22
	add	r0, sp, #20
	.loc	2 1228 26                       @ ../../../../Library/StdDriver/src/i2c.c:1228:26
	ldrb	r0, [r0]
	.loc	2 1228 32                       @ ../../../../Library/StdDriver/src/i2c.c:1228:32
	rsbs	r1, r0, #0
	adcs	r0, r1
	str	r0, [sp, #4]                    @ 4-byte Spill
	b	.LBB40_3
.LBB40_3:                               @   in Loop: Header=BB40_1 Depth=1
	.loc	2 0 0                           @ ../../../../Library/StdDriver/src/i2c.c:0:0
	ldr	r0, [sp, #4]                    @ 4-byte Reload
	.loc	2 1228 5                        @ ../../../../Library/StdDriver/src/i2c.c:1228:5
	lsls	r0, r0, #31
	cbnz	r0, .LBB40_4
	b	.LBB40_30
.LBB40_4:                               @   in Loop: Header=BB40_1 Depth=1
.Ltmp275:
	.loc	2 1230 27 is_stmt 1             @ ../../../../Library/StdDriver/src/i2c.c:1230:27
	ldr	r0, __arm_cp.40_1
	ldr	r0, [r0]
	.loc	2 1230 25 is_stmt 0             @ ../../../../Library/StdDriver/src/i2c.c:1230:25
	str	r0, [sp, #8]
	.loc	2 1231 9 is_stmt 1              @ ../../../../Library/StdDriver/src/i2c.c:1231:9
	b	.LBB40_5
.LBB40_5:                               @   Parent Loop BB40_1 Depth=1
                                        @ =>  This Inner Loop Header: Depth=2
	ldr	r0, [sp, #40]
	ldr	r0, [r0]
	lsls	r0, r0, #28
	cmp	r0, #0
	bmi	.LBB40_9
	b	.LBB40_6
.LBB40_6:                               @   in Loop: Header=BB40_5 Depth=2
.Ltmp276:
	.loc	2 1233 17                       @ ../../../../Library/StdDriver/src/i2c.c:1233:17
	ldr	r0, [sp, #8]
	subs	r0, r0, #1
	str	r0, [sp, #8]
.Ltmp277:
	.loc	2 1233 17 is_stmt 0             @ ../../../../Library/StdDriver/src/i2c.c:1233:17
	cbnz	r0, .LBB40_8
	b	.LBB40_7
.LBB40_7:                               @   in Loop: Header=BB40_1 Depth=1
.Ltmp278:
	.loc	2 1235 34 is_stmt 1             @ ../../../../Library/StdDriver/src/i2c.c:1235:34
	ldr	r1, __arm_cp.40_0
	movs	r0, #0
	mvns	r0, r0
	str	r0, [r1]
	add	r1, sp, #20
	movs	r0, #1
	.loc	2 1236 23                       @ ../../../../Library/StdDriver/src/i2c.c:1236:23
	strb	r0, [r1]
	.loc	2 1237 17                       @ ../../../../Library/StdDriver/src/i2c.c:1237:17
	b	.LBB40_9
.Ltmp279:
.LBB40_8:                               @   in Loop: Header=BB40_5 Depth=2
	.loc	2 1231 9                        @ ../../../../Library/StdDriver/src/i2c.c:1231:9
	b	.LBB40_5
.LBB40_9:                               @   in Loop: Header=BB40_1 Depth=1
	.loc	2 1241 17                       @ ../../../../Library/StdDriver/src/i2c.c:1241:17
	ldr	r0, [sp, #40]
	ldr	r0, [r0, #12]
	.loc	2 1241 9 is_stmt 0              @ ../../../../Library/StdDriver/src/i2c.c:1241:9
	subs	r0, #8
	str	r0, [sp]                        @ 4-byte Spill
	cmp	r0, #80
	bls	.LBB40_10
	b	.LBB40_28
.LBB40_10:                              @   in Loop: Header=BB40_1 Depth=1
	ldr	r1, [sp]                        @ 4-byte Reload
	lsls	r2, r1, #2
	adr	r0, .LJTI40_0
	adds	r0, r0, r2
	mov	pc, r0
@ %bb.11:
	.loc	2 0 9                           @ ../../../../Library/StdDriver/src/i2c.c:0:9
	.p2align	2
.LJTI40_0:
	b.w	.LBB40_12
	b.w	.LBB40_28
	b.w	.LBB40_28
	b.w	.LBB40_28
	b.w	.LBB40_28
	b.w	.LBB40_28
	b.w	.LBB40_28
	b.w	.LBB40_28
	b.w	.LBB40_16
	b.w	.LBB40_28
	b.w	.LBB40_28
	b.w	.LBB40_28
	b.w	.LBB40_28
	b.w	.LBB40_28
	b.w	.LBB40_28
	b.w	.LBB40_28
	b.w	.LBB40_13
	b.w	.LBB40_28
	b.w	.LBB40_28
	b.w	.LBB40_28
	b.w	.LBB40_28
	b.w	.LBB40_28
	b.w	.LBB40_28
	b.w	.LBB40_28
	b.w	.LBB40_14
	b.w	.LBB40_28
	b.w	.LBB40_28
	b.w	.LBB40_28
	b.w	.LBB40_28
	b.w	.LBB40_28
	b.w	.LBB40_28
	b.w	.LBB40_28
	b.w	.LBB40_15
	b.w	.LBB40_28
	b.w	.LBB40_28
	b.w	.LBB40_28
	b.w	.LBB40_28
	b.w	.LBB40_28
	b.w	.LBB40_28
	b.w	.LBB40_28
	b.w	.LBB40_14
	b.w	.LBB40_28
	b.w	.LBB40_28
	b.w	.LBB40_28
	b.w	.LBB40_28
	b.w	.LBB40_28
	b.w	.LBB40_28
	b.w	.LBB40_28
	b.w	.LBB40_27
	b.w	.LBB40_28
	b.w	.LBB40_28
	b.w	.LBB40_28
	b.w	.LBB40_28
	b.w	.LBB40_28
	b.w	.LBB40_28
	b.w	.LBB40_28
	b.w	.LBB40_17
	b.w	.LBB40_28
	b.w	.LBB40_28
	b.w	.LBB40_28
	b.w	.LBB40_28
	b.w	.LBB40_28
	b.w	.LBB40_28
	b.w	.LBB40_28
	b.w	.LBB40_21
	b.w	.LBB40_28
	b.w	.LBB40_28
	b.w	.LBB40_28
	b.w	.LBB40_28
	b.w	.LBB40_28
	b.w	.LBB40_28
	b.w	.LBB40_28
	b.w	.LBB40_22
	b.w	.LBB40_28
	b.w	.LBB40_28
	b.w	.LBB40_28
	b.w	.LBB40_28
	b.w	.LBB40_28
	b.w	.LBB40_28
	b.w	.LBB40_28
	b.w	.LBB40_26
.LBB40_12:                              @   in Loop: Header=BB40_1 Depth=1
.Ltmp280:
	.loc	2 1244 17 is_stmt 1             @ ../../../../Library/StdDriver/src/i2c.c:1244:17
	ldr	r0, [sp, #36]
	lsls	r0, r0, #25
	lsrs	r0, r0, #24
	ldr	r1, [sp, #40]
	str	r0, [r1, #8]
	add	r1, sp, #16
	movs	r0, #8
	.loc	2 1245 24                       @ ../../../../Library/StdDriver/src/i2c.c:1245:24
	strb	r0, [r1]
	.loc	2 1246 17                       @ ../../../../Library/StdDriver/src/i2c.c:1246:17
	b	.LBB40_29
.LBB40_13:                              @   in Loop: Header=BB40_1 Depth=1
	.loc	2 0 17 is_stmt 0                @ ../../../../Library/StdDriver/src/i2c.c:0:17
	add	r0, sp, #32
	.loc	2 1249 17 is_stmt 1             @ ../../../../Library/StdDriver/src/i2c.c:1249:17
	ldrb	r0, [r0]
	ldr	r1, [sp, #40]
	str	r0, [r1, #8]
	.loc	2 1250 17                       @ ../../../../Library/StdDriver/src/i2c.c:1250:17
	b	.LBB40_29
.LBB40_14:                              @   in Loop: Header=BB40_1 Depth=1
	.loc	2 0 17 is_stmt 0                @ ../../../../Library/StdDriver/src/i2c.c:0:17
	add	r1, sp, #16
	movs	r0, #24
	.loc	2 1254 24 is_stmt 1             @ ../../../../Library/StdDriver/src/i2c.c:1254:24
	strb	r0, [r1]
	add	r1, sp, #20
	movs	r0, #1
	.loc	2 1255 23                       @ ../../../../Library/StdDriver/src/i2c.c:1255:23
	strb	r0, [r1]
	.loc	2 1256 17                       @ ../../../../Library/StdDriver/src/i2c.c:1256:17
	b	.LBB40_29
.LBB40_15:                              @   in Loop: Header=BB40_1 Depth=1
	.loc	2 0 17 is_stmt 0                @ ../../../../Library/StdDriver/src/i2c.c:0:17
	add	r1, sp, #16
	movs	r0, #40
	.loc	2 1259 24 is_stmt 1             @ ../../../../Library/StdDriver/src/i2c.c:1259:24
	strb	r0, [r1]
	.loc	2 1260 17                       @ ../../../../Library/StdDriver/src/i2c.c:1260:17
	b	.LBB40_29
.LBB40_16:                              @   in Loop: Header=BB40_1 Depth=1
	.loc	2 1263 17                       @ ../../../../Library/StdDriver/src/i2c.c:1263:17
	ldr	r0, [sp, #36]
	lsls	r0, r0, #1
	adds	r0, r0, #1
	uxtb	r0, r0
	ldr	r1, [sp, #40]
	str	r0, [r1, #8]
	add	r1, sp, #16
	movs	r0, #8
	.loc	2 1264 24                       @ ../../../../Library/StdDriver/src/i2c.c:1264:24
	strb	r0, [r1]
	.loc	2 1265 17                       @ ../../../../Library/StdDriver/src/i2c.c:1265:17
	b	.LBB40_29
.LBB40_17:                              @   in Loop: Header=BB40_1 Depth=1
.Ltmp281:
	.loc	2 1268 21                       @ ../../../../Library/StdDriver/src/i2c.c:1268:21
	ldr	r0, [sp, #52]
.Ltmp282:
	.loc	2 1268 21 is_stmt 0             @ ../../../../Library/StdDriver/src/i2c.c:1268:21
	cmp	r0, #1
	bne	.LBB40_19
	b	.LBB40_18
.LBB40_18:                              @   in Loop: Header=BB40_1 Depth=1
	.loc	2 0 21                          @ ../../../../Library/StdDriver/src/i2c.c:0:21
	add	r1, sp, #16
	movs	r0, #8
.Ltmp283:
	.loc	2 1270 28 is_stmt 1             @ ../../../../Library/StdDriver/src/i2c.c:1270:28
	strb	r0, [r1]
	.loc	2 1271 17                       @ ../../../../Library/StdDriver/src/i2c.c:1271:17
	b	.LBB40_20
.Ltmp284:
.LBB40_19:                              @   in Loop: Header=BB40_1 Depth=1
	.loc	2 0 17 is_stmt 0                @ ../../../../Library/StdDriver/src/i2c.c:0:17
	add	r1, sp, #16
	movs	r0, #12
.Ltmp285:
	.loc	2 1274 28 is_stmt 1             @ ../../../../Library/StdDriver/src/i2c.c:1274:28
	strb	r0, [r1]
	b	.LBB40_20
.Ltmp286:
.LBB40_20:                              @   in Loop: Header=BB40_1 Depth=1
	.loc	2 1277 17                       @ ../../../../Library/StdDriver/src/i2c.c:1277:17
	b	.LBB40_29
.LBB40_21:                              @   in Loop: Header=BB40_1 Depth=1
	.loc	2 0 17 is_stmt 0                @ ../../../../Library/StdDriver/src/i2c.c:0:17
	add	r1, sp, #16
	movs	r0, #24
	.loc	2 1280 24 is_stmt 1             @ ../../../../Library/StdDriver/src/i2c.c:1280:24
	strb	r0, [r1]
	add	r1, sp, #20
	movs	r0, #1
	.loc	2 1281 23                       @ ../../../../Library/StdDriver/src/i2c.c:1281:23
	strb	r0, [r1]
	.loc	2 1282 17                       @ ../../../../Library/StdDriver/src/i2c.c:1282:17
	b	.LBB40_29
.LBB40_22:                              @   in Loop: Header=BB40_1 Depth=1
	.loc	2 1285 47                       @ ../../../../Library/StdDriver/src/i2c.c:1285:47
	ldr	r0, [sp, #40]
	ldr	r0, [r0, #8]
	.loc	2 1285 17 is_stmt 0             @ ../../../../Library/StdDriver/src/i2c.c:1285:17
	ldr	r1, [sp, #28]
	.loc	2 1285 31                       @ ../../../../Library/StdDriver/src/i2c.c:1285:31
	ldr	r2, [sp, #12]
	adds	r3, r2, #1
	str	r3, [sp, #12]
	.loc	2 1285 35                       @ ../../../../Library/StdDriver/src/i2c.c:1285:35
	strb	r0, [r1, r2]
.Ltmp287:
	.loc	2 1287 21 is_stmt 1             @ ../../../../Library/StdDriver/src/i2c.c:1287:21
	ldr	r0, [sp, #12]
	.loc	2 1287 33 is_stmt 0             @ ../../../../Library/StdDriver/src/i2c.c:1287:33
	ldr	r1, [sp, #52]
	.loc	2 1287 41                       @ ../../../../Library/StdDriver/src/i2c.c:1287:41
	subs	r1, r1, #1
.Ltmp288:
	.loc	2 1287 21                       @ ../../../../Library/StdDriver/src/i2c.c:1287:21
	cmp	r0, r1
	bhs	.LBB40_24
	b	.LBB40_23
.LBB40_23:                              @   in Loop: Header=BB40_1 Depth=1
	.loc	2 0 21                          @ ../../../../Library/StdDriver/src/i2c.c:0:21
	add	r1, sp, #16
	movs	r0, #12
.Ltmp289:
	.loc	2 1289 28 is_stmt 1             @ ../../../../Library/StdDriver/src/i2c.c:1289:28
	strb	r0, [r1]
	.loc	2 1290 17                       @ ../../../../Library/StdDriver/src/i2c.c:1290:17
	b	.LBB40_25
.Ltmp290:
.LBB40_24:                              @   in Loop: Header=BB40_1 Depth=1
	.loc	2 0 17 is_stmt 0                @ ../../../../Library/StdDriver/src/i2c.c:0:17
	add	r1, sp, #16
	movs	r0, #8
.Ltmp291:
	.loc	2 1293 28 is_stmt 1             @ ../../../../Library/StdDriver/src/i2c.c:1293:28
	strb	r0, [r1]
	b	.LBB40_25
.Ltmp292:
.LBB40_25:                              @   in Loop: Header=BB40_1 Depth=1
	.loc	2 1296 17                       @ ../../../../Library/StdDriver/src/i2c.c:1296:17
	b	.LBB40_29
.LBB40_26:                              @   in Loop: Header=BB40_1 Depth=1
	.loc	2 1299 47                       @ ../../../../Library/StdDriver/src/i2c.c:1299:47
	ldr	r0, [sp, #40]
	ldr	r0, [r0, #8]
	.loc	2 1299 17 is_stmt 0             @ ../../../../Library/StdDriver/src/i2c.c:1299:17
	ldr	r1, [sp, #28]
	.loc	2 1299 31                       @ ../../../../Library/StdDriver/src/i2c.c:1299:31
	ldr	r2, [sp, #12]
	adds	r3, r2, #1
	str	r3, [sp, #12]
	.loc	2 1299 35                       @ ../../../../Library/StdDriver/src/i2c.c:1299:35
	strb	r0, [r1, r2]
	add	r1, sp, #16
	movs	r0, #24
	.loc	2 1300 24 is_stmt 1             @ ../../../../Library/StdDriver/src/i2c.c:1300:24
	strb	r0, [r1]
	add	r1, sp, #24
	movs	r0, #0
	.loc	2 1301 27                       @ ../../../../Library/StdDriver/src/i2c.c:1301:27
	strb	r0, [r1]
	.loc	2 1302 17                       @ ../../../../Library/StdDriver/src/i2c.c:1302:17
	b	.LBB40_29
.LBB40_27:                              @   in Loop: Header=BB40_1 Depth=1
	.loc	2 1304 13                       @ ../../../../Library/StdDriver/src/i2c.c:1304:13
	b	.LBB40_28
.LBB40_28:                              @   in Loop: Header=BB40_1 Depth=1
	.loc	2 1306 17                       @ ../../../../Library/StdDriver/src/i2c.c:1306:17
	ldr	r0, [sp, #40]
	ldr	r0, [r0]
	movs	r1, #24
	orrs	r0, r1
	movs	r1, #36
	bics	r0, r1
	ldr	r1, [sp, #40]
	str	r0, [r1]
	add	r1, sp, #16
	movs	r0, #8
	.loc	2 1307 24                       @ ../../../../Library/StdDriver/src/i2c.c:1307:24
	strb	r0, [r1]
	add	r1, sp, #20
	movs	r0, #1
	.loc	2 1308 23                       @ ../../../../Library/StdDriver/src/i2c.c:1308:23
	strb	r0, [r1]
	.loc	2 1309 17                       @ ../../../../Library/StdDriver/src/i2c.c:1309:17
	b	.LBB40_29
.Ltmp293:
.LBB40_29:                              @   in Loop: Header=BB40_1 Depth=1
	.loc	2 1312 9                        @ ../../../../Library/StdDriver/src/i2c.c:1312:9
	ldr	r0, [sp, #40]
	ldr	r0, [r0]
	movs	r1, #60
	bics	r0, r1
	add	r1, sp, #16
	ldrb	r1, [r1]
	orrs	r0, r1
	ldr	r1, [sp, #40]
	str	r0, [r1]
.Ltmp294:
	.loc	2 1228 5                        @ ../../../../Library/StdDriver/src/i2c.c:1228:5
	b	.LBB40_1
.LBB40_30:
	.loc	2 1315 23                       @ ../../../../Library/StdDriver/src/i2c.c:1315:23
	ldr	r0, __arm_cp.40_1
	ldr	r0, [r0]
	.loc	2 1315 21 is_stmt 0             @ ../../../../Library/StdDriver/src/i2c.c:1315:21
	str	r0, [sp, #8]
	.loc	2 1317 5 is_stmt 1              @ ../../../../Library/StdDriver/src/i2c.c:1317:5
	b	.LBB40_31
.LBB40_31:                              @ =>This Inner Loop Header: Depth=1
	.loc	2 1317 13 is_stmt 0             @ ../../../../Library/StdDriver/src/i2c.c:1317:13
	ldr	r0, [sp, #40]
	.loc	2 1317 19                       @ ../../../../Library/StdDriver/src/i2c.c:1317:19
	ldr	r0, [r0]
	.loc	2 1317 5                        @ ../../../../Library/StdDriver/src/i2c.c:1317:5
	lsls	r0, r0, #27
	cmp	r0, #0
	bpl	.LBB40_35
	b	.LBB40_32
.LBB40_32:                              @   in Loop: Header=BB40_31 Depth=1
.Ltmp295:
	.loc	2 1319 24 is_stmt 1             @ ../../../../Library/StdDriver/src/i2c.c:1319:24
	ldr	r0, [sp, #8]
	subs	r0, r0, #1
	str	r0, [sp, #8]
.Ltmp296:
	.loc	2 1321 13                       @ ../../../../Library/StdDriver/src/i2c.c:1321:13
	ldr	r0, [sp, #8]
.Ltmp297:
	.loc	2 1321 13 is_stmt 0             @ ../../../../Library/StdDriver/src/i2c.c:1321:13
	cbnz	r0, .LBB40_34
	b	.LBB40_33
.LBB40_33:
.Ltmp298:
	.loc	2 1323 30 is_stmt 1             @ ../../../../Library/StdDriver/src/i2c.c:1323:30
	ldr	r1, __arm_cp.40_0
	movs	r0, #0
	mvns	r0, r0
	str	r0, [r1]
	add	r1, sp, #20
	movs	r0, #1
	.loc	2 1324 19                       @ ../../../../Library/StdDriver/src/i2c.c:1324:19
	strb	r0, [r1]
	.loc	2 1325 13                       @ ../../../../Library/StdDriver/src/i2c.c:1325:13
	b	.LBB40_35
.Ltmp299:
.LBB40_34:                              @   in Loop: Header=BB40_31 Depth=1
	.loc	2 1317 5                        @ ../../../../Library/StdDriver/src/i2c.c:1317:5
	b	.LBB40_31
.LBB40_35:
	.loc	2 1329 12                       @ ../../../../Library/StdDriver/src/i2c.c:1329:12
	ldr	r0, [sp, #12]
	.loc	2 1329 5 epilogue_begin is_stmt 0 @ ../../../../Library/StdDriver/src/i2c.c:1329:5
	add	sp, #44
	pop	{r4, pc}
.Ltmp300:
	.p2align	2
@ %bb.36:
	.loc	2 0 5                           @ ../../../../Library/StdDriver/src/i2c.c:0:5
__arm_cp.40_0:
	.long	g_I2C_i32ErrCode
.Lcpi_end17:
	.size	__arm_cp.40_0, .Lcpi_end17-__arm_cp.40_0
__arm_cp.40_1:
	.long	SystemCoreClock
.Lcpi_end18:
	.size	__arm_cp.40_1, .Lcpi_end18-__arm_cp.40_1
.Lfunc_end40:
	.size	I2C_ReadMultiBytesOneReg, .Lfunc_end40-I2C_ReadMultiBytesOneReg
	.cfi_endproc
	.cantunwind
	.fnend
                                        @ -- End function
	.section	.text.I2C_ReadByteTwoRegs,"ax",%progbits
	.hidden	I2C_ReadByteTwoRegs             @ -- Begin function I2C_ReadByteTwoRegs
	.globl	I2C_ReadByteTwoRegs
	.p2align	1
	.type	I2C_ReadByteTwoRegs,%function
	.code	16                              @ @I2C_ReadByteTwoRegs
	.thumb_func
I2C_ReadByteTwoRegs:
.Lfunc_begin41:
	.loc	2 1347 0 is_stmt 1              @ ../../../../Library/StdDriver/src/i2c.c:1347:0
	.fnstart
	.cfi_startproc
@ %bb.0:
	.save	{r7, lr}
	push	{r7, lr}
	.cfi_def_cfa_offset 8
	.cfi_offset lr, -4
	.cfi_offset r7, -8
	.pad	#32
	sub	sp, #32
	.cfi_def_cfa_offset 40
	str	r2, [sp, #4]                    @ 4-byte Spill
	mov	r2, r1
	mov	r1, r0
	ldr	r0, [sp, #4]                    @ 4-byte Reload
                                        @ kill: def $r3 killed $r0
                                        @ kill: def $r3 killed $r2
	str	r1, [sp, #24]
	add	r1, sp, #20
	strb	r2, [r1]
	add	r2, sp, #16
	strh	r0, [r2]
.Ltmp301:
	.loc	2 1350 51 prologue_end          @ ../../../../Library/StdDriver/src/i2c.c:1350:51
	ldr	r0, [sp, #24]
	.loc	2 1350 56 is_stmt 0             @ ../../../../Library/StdDriver/src/i2c.c:1350:56
	ldrb	r1, [r1]
	.loc	2 1350 69                       @ ../../../../Library/StdDriver/src/i2c.c:1350:69
	ldrh	r2, [r2]
	movs	r3, #1
	.loc	2 1350 25                       @ ../../../../Library/StdDriver/src/i2c.c:1350:25
	str	r3, [sp]
	add	r3, sp, #12
	bl	I2C_ReadMultiBytesTwoRegs
	.loc	2 1350 14                       @ ../../../../Library/StdDriver/src/i2c.c:1350:14
	str	r0, [sp, #8]
.Ltmp302:
	.loc	2 1352 9 is_stmt 1              @ ../../../../Library/StdDriver/src/i2c.c:1352:9
	ldr	r0, [sp, #8]
.Ltmp303:
	.loc	2 1352 9 is_stmt 0              @ ../../../../Library/StdDriver/src/i2c.c:1352:9
	cmp	r0, #1
	bne	.LBB41_2
	b	.LBB41_1
.LBB41_1:
.Ltmp304:
	.loc	2 1354 16 is_stmt 1             @ ../../../../Library/StdDriver/src/i2c.c:1354:16
	ldr	r0, [sp, #12]
	add	r1, sp, #28
	.loc	2 1354 9 is_stmt 0              @ ../../../../Library/StdDriver/src/i2c.c:1354:9
	strb	r0, [r1]
	b	.LBB41_3
.Ltmp305:
.LBB41_2:
	.loc	2 0 9                           @ ../../../../Library/StdDriver/src/i2c.c:0:9
	add	r1, sp, #28
	movs	r0, #0
.Ltmp306:
	.loc	2 1358 9 is_stmt 1              @ ../../../../Library/StdDriver/src/i2c.c:1358:9
	strb	r0, [r1]
	b	.LBB41_3
.Ltmp307:
.LBB41_3:
	.loc	2 0 9 is_stmt 0                 @ ../../../../Library/StdDriver/src/i2c.c:0:9
	add	r0, sp, #28
	.loc	2 1360 1 is_stmt 1              @ ../../../../Library/StdDriver/src/i2c.c:1360:1
	ldrb	r0, [r0]
	.loc	2 1360 1 epilogue_begin is_stmt 0 @ ../../../../Library/StdDriver/src/i2c.c:1360:1
	add	sp, #32
	pop	{r7, pc}
.Ltmp308:
.Lfunc_end41:
	.size	I2C_ReadByteTwoRegs, .Lfunc_end41-I2C_ReadByteTwoRegs
	.cfi_endproc
	.cantunwind
	.fnend
                                        @ -- End function
	.section	.text.I2C_ReadMultiBytesTwoRegs,"ax",%progbits
	.hidden	I2C_ReadMultiBytesTwoRegs       @ -- Begin function I2C_ReadMultiBytesTwoRegs
	.globl	I2C_ReadMultiBytesTwoRegs
	.p2align	2
	.type	I2C_ReadMultiBytesTwoRegs,%function
	.code	16                              @ @I2C_ReadMultiBytesTwoRegs
	.thumb_func
I2C_ReadMultiBytesTwoRegs:
.Lfunc_begin42:
	.loc	2 1379 0 is_stmt 1              @ ../../../../Library/StdDriver/src/i2c.c:1379:0
	.fnstart
	.cfi_startproc
@ %bb.0:
	.save	{r4, lr}
	push	{r4, lr}
	.cfi_def_cfa_offset 8
	.cfi_offset lr, -4
	.cfi_offset r4, -8
	.pad	#48
	sub	sp, #48
	.cfi_def_cfa_offset 56
	ldr	r4, [sp, #56]
                                        @ kill: def $r4 killed $r2
                                        @ kill: def $r4 killed $r1
	str	r0, [sp, #44]
	add	r0, sp, #40
	strb	r1, [r0]
	add	r0, sp, #36
	strh	r2, [r0]
	str	r3, [sp, #32]
	add	r0, sp, #28
	movs	r1, #1
.Ltmp309:
	.loc	2 1380 13 prologue_end          @ ../../../../Library/StdDriver/src/i2c.c:1380:13
	strb	r1, [r0]
	add	r2, sp, #24
	movs	r0, #0
	.loc	2 1380 29 is_stmt 0             @ ../../../../Library/StdDriver/src/i2c.c:1380:29
	strb	r0, [r2]
	add	r2, sp, #20
	.loc	2 1380 41                       @ ../../../../Library/StdDriver/src/i2c.c:1380:41
	strb	r1, [r2]
	add	r1, sp, #16
	.loc	2 1380 54                       @ ../../../../Library/StdDriver/src/i2c.c:1380:54
	strb	r0, [r1]
	.loc	2 1381 14 is_stmt 1             @ ../../../../Library/StdDriver/src/i2c.c:1381:14
	str	r0, [sp, #12]
	.loc	2 1381 29 is_stmt 0             @ ../../../../Library/StdDriver/src/i2c.c:1381:29
	str	r0, [sp, #8]
	.loc	2 1383 22 is_stmt 1             @ ../../../../Library/StdDriver/src/i2c.c:1383:22
	ldr	r1, __arm_cp.42_0
	str	r0, [r1]
	.loc	2 1385 5                        @ ../../../../Library/StdDriver/src/i2c.c:1385:5
	ldr	r0, [sp, #44]
	ldr	r0, [r0]
	movs	r1, #32
	orrs	r0, r1
	movs	r1, #8
	bics	r0, r1
	ldr	r1, [sp, #44]
	str	r0, [r1]
	.loc	2 1387 5                        @ ../../../../Library/StdDriver/src/i2c.c:1387:5
	b	.LBB42_1
.LBB42_1:                               @ =>This Loop Header: Depth=1
                                        @     Child Loop BB42_5 Depth 2
	.loc	2 0 5 is_stmt 0                 @ ../../../../Library/StdDriver/src/i2c.c:0:5
	add	r0, sp, #28
	.loc	2 1387 12                       @ ../../../../Library/StdDriver/src/i2c.c:1387:12
	ldrb	r1, [r0]
	movs	r0, #0
	.loc	2 1387 22                       @ ../../../../Library/StdDriver/src/i2c.c:1387:22
	str	r0, [sp, #4]                    @ 4-byte Spill
	cbz	r1, .LBB42_3
	b	.LBB42_2
.LBB42_2:                               @   in Loop: Header=BB42_1 Depth=1
	.loc	2 0 22                          @ ../../../../Library/StdDriver/src/i2c.c:0:22
	add	r0, sp, #24
	.loc	2 1387 26                       @ ../../../../Library/StdDriver/src/i2c.c:1387:26
	ldrb	r0, [r0]
	.loc	2 1387 32                       @ ../../../../Library/StdDriver/src/i2c.c:1387:32
	rsbs	r1, r0, #0
	adcs	r0, r1
	str	r0, [sp, #4]                    @ 4-byte Spill
	b	.LBB42_3
.LBB42_3:                               @   in Loop: Header=BB42_1 Depth=1
	.loc	2 0 0                           @ ../../../../Library/StdDriver/src/i2c.c:0:0
	ldr	r0, [sp, #4]                    @ 4-byte Reload
	.loc	2 1387 5                        @ ../../../../Library/StdDriver/src/i2c.c:1387:5
	lsls	r0, r0, #31
	cbnz	r0, .LBB42_4
	b	.LBB42_33
.LBB42_4:                               @   in Loop: Header=BB42_1 Depth=1
.Ltmp310:
	.loc	2 1389 27 is_stmt 1             @ ../../../../Library/StdDriver/src/i2c.c:1389:27
	ldr	r0, __arm_cp.42_1
	ldr	r0, [r0]
	.loc	2 1389 25 is_stmt 0             @ ../../../../Library/StdDriver/src/i2c.c:1389:25
	str	r0, [sp, #8]
	.loc	2 1390 9 is_stmt 1              @ ../../../../Library/StdDriver/src/i2c.c:1390:9
	b	.LBB42_5
.LBB42_5:                               @   Parent Loop BB42_1 Depth=1
                                        @ =>  This Inner Loop Header: Depth=2
	ldr	r0, [sp, #44]
	ldr	r0, [r0]
	lsls	r0, r0, #28
	cmp	r0, #0
	bmi	.LBB42_9
	b	.LBB42_6
.LBB42_6:                               @   in Loop: Header=BB42_5 Depth=2
.Ltmp311:
	.loc	2 1392 17                       @ ../../../../Library/StdDriver/src/i2c.c:1392:17
	ldr	r0, [sp, #8]
	subs	r0, r0, #1
	str	r0, [sp, #8]
.Ltmp312:
	.loc	2 1392 17 is_stmt 0             @ ../../../../Library/StdDriver/src/i2c.c:1392:17
	cbnz	r0, .LBB42_8
	b	.LBB42_7
.LBB42_7:                               @   in Loop: Header=BB42_1 Depth=1
.Ltmp313:
	.loc	2 1394 34 is_stmt 1             @ ../../../../Library/StdDriver/src/i2c.c:1394:34
	ldr	r1, __arm_cp.42_0
	movs	r0, #0
	mvns	r0, r0
	str	r0, [r1]
	add	r1, sp, #24
	movs	r0, #1
	.loc	2 1395 23                       @ ../../../../Library/StdDriver/src/i2c.c:1395:23
	strb	r0, [r1]
	.loc	2 1396 17                       @ ../../../../Library/StdDriver/src/i2c.c:1396:17
	b	.LBB42_9
.Ltmp314:
.LBB42_8:                               @   in Loop: Header=BB42_5 Depth=2
	.loc	2 1390 9                        @ ../../../../Library/StdDriver/src/i2c.c:1390:9
	b	.LBB42_5
.LBB42_9:                               @   in Loop: Header=BB42_1 Depth=1
	.loc	2 1400 17                       @ ../../../../Library/StdDriver/src/i2c.c:1400:17
	ldr	r0, [sp, #44]
	ldr	r0, [r0, #12]
	.loc	2 1400 9 is_stmt 0              @ ../../../../Library/StdDriver/src/i2c.c:1400:9
	subs	r0, #8
	str	r0, [sp]                        @ 4-byte Spill
	cmp	r0, #80
	bls	.LBB42_10
	b	.LBB42_31
.LBB42_10:                              @   in Loop: Header=BB42_1 Depth=1
	ldr	r1, [sp]                        @ 4-byte Reload
	lsls	r2, r1, #2
	adr	r0, .LJTI42_0
	adds	r0, r0, r2
	mov	pc, r0
@ %bb.11:
	.loc	2 0 9                           @ ../../../../Library/StdDriver/src/i2c.c:0:9
	.p2align	2
.LJTI42_0:
	b.w	.LBB42_12
	b.w	.LBB42_31
	b.w	.LBB42_31
	b.w	.LBB42_31
	b.w	.LBB42_31
	b.w	.LBB42_31
	b.w	.LBB42_31
	b.w	.LBB42_31
	b.w	.LBB42_19
	b.w	.LBB42_31
	b.w	.LBB42_31
	b.w	.LBB42_31
	b.w	.LBB42_31
	b.w	.LBB42_31
	b.w	.LBB42_31
	b.w	.LBB42_31
	b.w	.LBB42_13
	b.w	.LBB42_31
	b.w	.LBB42_31
	b.w	.LBB42_31
	b.w	.LBB42_31
	b.w	.LBB42_31
	b.w	.LBB42_31
	b.w	.LBB42_31
	b.w	.LBB42_14
	b.w	.LBB42_31
	b.w	.LBB42_31
	b.w	.LBB42_31
	b.w	.LBB42_31
	b.w	.LBB42_31
	b.w	.LBB42_31
	b.w	.LBB42_31
	b.w	.LBB42_15
	b.w	.LBB42_31
	b.w	.LBB42_31
	b.w	.LBB42_31
	b.w	.LBB42_31
	b.w	.LBB42_31
	b.w	.LBB42_31
	b.w	.LBB42_31
	b.w	.LBB42_14
	b.w	.LBB42_31
	b.w	.LBB42_31
	b.w	.LBB42_31
	b.w	.LBB42_31
	b.w	.LBB42_31
	b.w	.LBB42_31
	b.w	.LBB42_31
	b.w	.LBB42_30
	b.w	.LBB42_31
	b.w	.LBB42_31
	b.w	.LBB42_31
	b.w	.LBB42_31
	b.w	.LBB42_31
	b.w	.LBB42_31
	b.w	.LBB42_31
	b.w	.LBB42_20
	b.w	.LBB42_31
	b.w	.LBB42_31
	b.w	.LBB42_31
	b.w	.LBB42_31
	b.w	.LBB42_31
	b.w	.LBB42_31
	b.w	.LBB42_31
	b.w	.LBB42_24
	b.w	.LBB42_31
	b.w	.LBB42_31
	b.w	.LBB42_31
	b.w	.LBB42_31
	b.w	.LBB42_31
	b.w	.LBB42_31
	b.w	.LBB42_31
	b.w	.LBB42_25
	b.w	.LBB42_31
	b.w	.LBB42_31
	b.w	.LBB42_31
	b.w	.LBB42_31
	b.w	.LBB42_31
	b.w	.LBB42_31
	b.w	.LBB42_31
	b.w	.LBB42_29
.LBB42_12:                              @   in Loop: Header=BB42_1 Depth=1
.Ltmp315:
	.loc	2 1403 17 is_stmt 1             @ ../../../../Library/StdDriver/src/i2c.c:1403:17
	ldr	r0, [sp, #40]
	lsls	r0, r0, #25
	lsrs	r0, r0, #24
	ldr	r1, [sp, #44]
	str	r0, [r1, #8]
	add	r1, sp, #16
	movs	r0, #8
	.loc	2 1404 24                       @ ../../../../Library/StdDriver/src/i2c.c:1404:24
	strb	r0, [r1]
	.loc	2 1405 17                       @ ../../../../Library/StdDriver/src/i2c.c:1405:17
	b	.LBB42_32
.LBB42_13:                              @   in Loop: Header=BB42_1 Depth=1
	.loc	2 0 17 is_stmt 0                @ ../../../../Library/StdDriver/src/i2c.c:0:17
	add	r0, sp, #36
	.loc	2 1408 17 is_stmt 1             @ ../../../../Library/StdDriver/src/i2c.c:1408:17
	ldrb	r0, [r0, #1]
	ldr	r1, [sp, #44]
	str	r0, [r1, #8]
	.loc	2 1409 17                       @ ../../../../Library/StdDriver/src/i2c.c:1409:17
	b	.LBB42_32
.LBB42_14:                              @   in Loop: Header=BB42_1 Depth=1
	.loc	2 0 17 is_stmt 0                @ ../../../../Library/StdDriver/src/i2c.c:0:17
	add	r1, sp, #16
	movs	r0, #24
	.loc	2 1413 24 is_stmt 1             @ ../../../../Library/StdDriver/src/i2c.c:1413:24
	strb	r0, [r1]
	add	r1, sp, #24
	movs	r0, #1
	.loc	2 1414 23                       @ ../../../../Library/StdDriver/src/i2c.c:1414:23
	strb	r0, [r1]
	.loc	2 1415 17                       @ ../../../../Library/StdDriver/src/i2c.c:1415:17
	b	.LBB42_32
.LBB42_15:                              @   in Loop: Header=BB42_1 Depth=1
	.loc	2 0 17 is_stmt 0                @ ../../../../Library/StdDriver/src/i2c.c:0:17
	add	r0, sp, #20
.Ltmp316:
	.loc	2 1418 21 is_stmt 1             @ ../../../../Library/StdDriver/src/i2c.c:1418:21
	ldrb	r0, [r0]
.Ltmp317:
	.loc	2 1418 21 is_stmt 0             @ ../../../../Library/StdDriver/src/i2c.c:1418:21
	cbz	r0, .LBB42_17
	b	.LBB42_16
.LBB42_16:                              @   in Loop: Header=BB42_1 Depth=1
	.loc	2 0 21                          @ ../../../../Library/StdDriver/src/i2c.c:0:21
	add	r0, sp, #36
.Ltmp318:
	.loc	2 1420 21 is_stmt 1             @ ../../../../Library/StdDriver/src/i2c.c:1420:21
	ldrb	r0, [r0]
	ldr	r1, [sp, #44]
	str	r0, [r1, #8]
	add	r1, sp, #20
	movs	r0, #0
	.loc	2 1421 28                       @ ../../../../Library/StdDriver/src/i2c.c:1421:28
	strb	r0, [r1]
	.loc	2 1422 17                       @ ../../../../Library/StdDriver/src/i2c.c:1422:17
	b	.LBB42_18
.Ltmp319:
.LBB42_17:                              @   in Loop: Header=BB42_1 Depth=1
	.loc	2 0 17 is_stmt 0                @ ../../../../Library/StdDriver/src/i2c.c:0:17
	add	r1, sp, #16
	movs	r0, #40
.Ltmp320:
	.loc	2 1425 28 is_stmt 1             @ ../../../../Library/StdDriver/src/i2c.c:1425:28
	strb	r0, [r1]
	b	.LBB42_18
.Ltmp321:
.LBB42_18:                              @   in Loop: Header=BB42_1 Depth=1
	.loc	2 1428 17                       @ ../../../../Library/StdDriver/src/i2c.c:1428:17
	b	.LBB42_32
.LBB42_19:                              @   in Loop: Header=BB42_1 Depth=1
	.loc	2 1431 17                       @ ../../../../Library/StdDriver/src/i2c.c:1431:17
	ldr	r0, [sp, #40]
	lsls	r0, r0, #1
	adds	r0, r0, #1
	uxtb	r0, r0
	ldr	r1, [sp, #44]
	str	r0, [r1, #8]
	add	r1, sp, #16
	movs	r0, #8
	.loc	2 1432 24                       @ ../../../../Library/StdDriver/src/i2c.c:1432:24
	strb	r0, [r1]
	.loc	2 1433 17                       @ ../../../../Library/StdDriver/src/i2c.c:1433:17
	b	.LBB42_32
.LBB42_20:                              @   in Loop: Header=BB42_1 Depth=1
.Ltmp322:
	.loc	2 1436 21                       @ ../../../../Library/StdDriver/src/i2c.c:1436:21
	ldr	r0, [sp, #56]
.Ltmp323:
	.loc	2 1436 21 is_stmt 0             @ ../../../../Library/StdDriver/src/i2c.c:1436:21
	cmp	r0, #1
	bne	.LBB42_22
	b	.LBB42_21
.LBB42_21:                              @   in Loop: Header=BB42_1 Depth=1
	.loc	2 0 21                          @ ../../../../Library/StdDriver/src/i2c.c:0:21
	add	r1, sp, #16
	movs	r0, #8
.Ltmp324:
	.loc	2 1438 28 is_stmt 1             @ ../../../../Library/StdDriver/src/i2c.c:1438:28
	strb	r0, [r1]
	.loc	2 1439 17                       @ ../../../../Library/StdDriver/src/i2c.c:1439:17
	b	.LBB42_23
.Ltmp325:
.LBB42_22:                              @   in Loop: Header=BB42_1 Depth=1
	.loc	2 0 17 is_stmt 0                @ ../../../../Library/StdDriver/src/i2c.c:0:17
	add	r1, sp, #16
	movs	r0, #12
.Ltmp326:
	.loc	2 1442 28 is_stmt 1             @ ../../../../Library/StdDriver/src/i2c.c:1442:28
	strb	r0, [r1]
	b	.LBB42_23
.Ltmp327:
.LBB42_23:                              @   in Loop: Header=BB42_1 Depth=1
	.loc	2 1445 17                       @ ../../../../Library/StdDriver/src/i2c.c:1445:17
	b	.LBB42_32
.LBB42_24:                              @   in Loop: Header=BB42_1 Depth=1
	.loc	2 0 17 is_stmt 0                @ ../../../../Library/StdDriver/src/i2c.c:0:17
	add	r1, sp, #16
	movs	r0, #24
	.loc	2 1448 24 is_stmt 1             @ ../../../../Library/StdDriver/src/i2c.c:1448:24
	strb	r0, [r1]
	add	r1, sp, #24
	movs	r0, #1
	.loc	2 1449 23                       @ ../../../../Library/StdDriver/src/i2c.c:1449:23
	strb	r0, [r1]
	.loc	2 1450 17                       @ ../../../../Library/StdDriver/src/i2c.c:1450:17
	b	.LBB42_32
.LBB42_25:                              @   in Loop: Header=BB42_1 Depth=1
	.loc	2 1453 53                       @ ../../../../Library/StdDriver/src/i2c.c:1453:53
	ldr	r0, [sp, #44]
	ldr	r0, [r0, #8]
	.loc	2 1453 17 is_stmt 0             @ ../../../../Library/StdDriver/src/i2c.c:1453:17
	ldr	r1, [sp, #32]
	.loc	2 1453 31                       @ ../../../../Library/StdDriver/src/i2c.c:1453:31
	ldr	r2, [sp, #12]
	adds	r3, r2, #1
	str	r3, [sp, #12]
	.loc	2 1453 35                       @ ../../../../Library/StdDriver/src/i2c.c:1453:35
	strb	r0, [r1, r2]
.Ltmp328:
	.loc	2 1455 21 is_stmt 1             @ ../../../../Library/StdDriver/src/i2c.c:1455:21
	ldr	r0, [sp, #12]
	.loc	2 1455 33 is_stmt 0             @ ../../../../Library/StdDriver/src/i2c.c:1455:33
	ldr	r1, [sp, #56]
	.loc	2 1455 41                       @ ../../../../Library/StdDriver/src/i2c.c:1455:41
	subs	r1, r1, #1
.Ltmp329:
	.loc	2 1455 21                       @ ../../../../Library/StdDriver/src/i2c.c:1455:21
	cmp	r0, r1
	bhs	.LBB42_27
	b	.LBB42_26
.LBB42_26:                              @   in Loop: Header=BB42_1 Depth=1
	.loc	2 0 21                          @ ../../../../Library/StdDriver/src/i2c.c:0:21
	add	r1, sp, #16
	movs	r0, #12
.Ltmp330:
	.loc	2 1457 28 is_stmt 1             @ ../../../../Library/StdDriver/src/i2c.c:1457:28
	strb	r0, [r1]
	.loc	2 1458 17                       @ ../../../../Library/StdDriver/src/i2c.c:1458:17
	b	.LBB42_28
.Ltmp331:
.LBB42_27:                              @   in Loop: Header=BB42_1 Depth=1
	.loc	2 0 17 is_stmt 0                @ ../../../../Library/StdDriver/src/i2c.c:0:17
	add	r1, sp, #16
	movs	r0, #8
.Ltmp332:
	.loc	2 1461 28 is_stmt 1             @ ../../../../Library/StdDriver/src/i2c.c:1461:28
	strb	r0, [r1]
	b	.LBB42_28
.Ltmp333:
.LBB42_28:                              @   in Loop: Header=BB42_1 Depth=1
	.loc	2 1464 17                       @ ../../../../Library/StdDriver/src/i2c.c:1464:17
	b	.LBB42_32
.LBB42_29:                              @   in Loop: Header=BB42_1 Depth=1
	.loc	2 1467 53                       @ ../../../../Library/StdDriver/src/i2c.c:1467:53
	ldr	r0, [sp, #44]
	ldr	r0, [r0, #8]
	.loc	2 1467 17 is_stmt 0             @ ../../../../Library/StdDriver/src/i2c.c:1467:17
	ldr	r1, [sp, #32]
	.loc	2 1467 31                       @ ../../../../Library/StdDriver/src/i2c.c:1467:31
	ldr	r2, [sp, #12]
	adds	r3, r2, #1
	str	r3, [sp, #12]
	.loc	2 1467 35                       @ ../../../../Library/StdDriver/src/i2c.c:1467:35
	strb	r0, [r1, r2]
	add	r1, sp, #16
	movs	r0, #24
	.loc	2 1468 24 is_stmt 1             @ ../../../../Library/StdDriver/src/i2c.c:1468:24
	strb	r0, [r1]
	add	r1, sp, #28
	movs	r0, #0
	.loc	2 1469 27                       @ ../../../../Library/StdDriver/src/i2c.c:1469:27
	strb	r0, [r1]
	.loc	2 1470 17                       @ ../../../../Library/StdDriver/src/i2c.c:1470:17
	b	.LBB42_32
.LBB42_30:                              @   in Loop: Header=BB42_1 Depth=1
	.loc	2 1472 13                       @ ../../../../Library/StdDriver/src/i2c.c:1472:13
	b	.LBB42_31
.LBB42_31:                              @   in Loop: Header=BB42_1 Depth=1
	.loc	2 1474 17                       @ ../../../../Library/StdDriver/src/i2c.c:1474:17
	ldr	r0, [sp, #44]
	ldr	r0, [r0]
	movs	r1, #24
	orrs	r0, r1
	movs	r1, #36
	bics	r0, r1
	ldr	r1, [sp, #44]
	str	r0, [r1]
	add	r1, sp, #16
	movs	r0, #8
	.loc	2 1475 24                       @ ../../../../Library/StdDriver/src/i2c.c:1475:24
	strb	r0, [r1]
	add	r1, sp, #24
	movs	r0, #1
	.loc	2 1476 23                       @ ../../../../Library/StdDriver/src/i2c.c:1476:23
	strb	r0, [r1]
	.loc	2 1477 17                       @ ../../../../Library/StdDriver/src/i2c.c:1477:17
	b	.LBB42_32
.Ltmp334:
.LBB42_32:                              @   in Loop: Header=BB42_1 Depth=1
	.loc	2 1480 9                        @ ../../../../Library/StdDriver/src/i2c.c:1480:9
	ldr	r0, [sp, #44]
	ldr	r0, [r0]
	movs	r1, #60
	bics	r0, r1
	add	r1, sp, #16
	ldrb	r1, [r1]
	orrs	r0, r1
	ldr	r1, [sp, #44]
	str	r0, [r1]
.Ltmp335:
	.loc	2 1387 5                        @ ../../../../Library/StdDriver/src/i2c.c:1387:5
	b	.LBB42_1
.LBB42_33:
	.loc	2 1483 23                       @ ../../../../Library/StdDriver/src/i2c.c:1483:23
	ldr	r0, __arm_cp.42_1
	ldr	r0, [r0]
	.loc	2 1483 21 is_stmt 0             @ ../../../../Library/StdDriver/src/i2c.c:1483:21
	str	r0, [sp, #8]
	.loc	2 1485 5 is_stmt 1              @ ../../../../Library/StdDriver/src/i2c.c:1485:5
	b	.LBB42_34
.LBB42_34:                              @ =>This Inner Loop Header: Depth=1
	.loc	2 1485 13 is_stmt 0             @ ../../../../Library/StdDriver/src/i2c.c:1485:13
	ldr	r0, [sp, #44]
	.loc	2 1485 19                       @ ../../../../Library/StdDriver/src/i2c.c:1485:19
	ldr	r0, [r0]
	.loc	2 1485 5                        @ ../../../../Library/StdDriver/src/i2c.c:1485:5
	lsls	r0, r0, #27
	cmp	r0, #0
	bpl	.LBB42_38
	b	.LBB42_35
.LBB42_35:                              @   in Loop: Header=BB42_34 Depth=1
.Ltmp336:
	.loc	2 1487 24 is_stmt 1             @ ../../../../Library/StdDriver/src/i2c.c:1487:24
	ldr	r0, [sp, #8]
	subs	r0, r0, #1
	str	r0, [sp, #8]
.Ltmp337:
	.loc	2 1489 13                       @ ../../../../Library/StdDriver/src/i2c.c:1489:13
	ldr	r0, [sp, #8]
.Ltmp338:
	.loc	2 1489 13 is_stmt 0             @ ../../../../Library/StdDriver/src/i2c.c:1489:13
	cbnz	r0, .LBB42_37
	b	.LBB42_36
.LBB42_36:
.Ltmp339:
	.loc	2 1491 30 is_stmt 1             @ ../../../../Library/StdDriver/src/i2c.c:1491:30
	ldr	r1, __arm_cp.42_0
	movs	r0, #0
	mvns	r0, r0
	str	r0, [r1]
	add	r1, sp, #24
	movs	r0, #1
	.loc	2 1492 19                       @ ../../../../Library/StdDriver/src/i2c.c:1492:19
	strb	r0, [r1]
	.loc	2 1493 13                       @ ../../../../Library/StdDriver/src/i2c.c:1493:13
	b	.LBB42_38
.Ltmp340:
.LBB42_37:                              @   in Loop: Header=BB42_34 Depth=1
	.loc	2 1485 5                        @ ../../../../Library/StdDriver/src/i2c.c:1485:5
	b	.LBB42_34
.LBB42_38:
	.loc	2 1497 12                       @ ../../../../Library/StdDriver/src/i2c.c:1497:12
	ldr	r0, [sp, #12]
	.loc	2 1497 5 epilogue_begin is_stmt 0 @ ../../../../Library/StdDriver/src/i2c.c:1497:5
	add	sp, #48
	pop	{r4, pc}
.Ltmp341:
	.p2align	2
@ %bb.39:
	.loc	2 0 5                           @ ../../../../Library/StdDriver/src/i2c.c:0:5
__arm_cp.42_0:
	.long	g_I2C_i32ErrCode
.Lcpi_end19:
	.size	__arm_cp.42_0, .Lcpi_end19-__arm_cp.42_0
__arm_cp.42_1:
	.long	SystemCoreClock
.Lcpi_end20:
	.size	__arm_cp.42_1, .Lcpi_end20-__arm_cp.42_1
.Lfunc_end42:
	.size	I2C_ReadMultiBytesTwoRegs, .Lfunc_end42-I2C_ReadMultiBytesTwoRegs
	.cfi_endproc
	.cantunwind
	.fnend
                                        @ -- End function
	.hidden	g_I2C_i32ErrCode                @ @g_I2C_i32ErrCode
	.type	g_I2C_i32ErrCode,%object
	.section	.bss.g_I2C_i32ErrCode,"aw",%nobits
	.globl	g_I2C_i32ErrCode
	.p2align	2, 0x0
g_I2C_i32ErrCode:
	.long	0                               @ 0x0
	.size	g_I2C_i32ErrCode, 4

	.section	".note.GNU-stack","",%progbits
	.eabi_attribute	30, 6	@ Tag_ABI_optimization_goals
	.ARM_attribute	16, 1	@ Tag_AV_eba