	.text
	.syntax unified
	.eabi_attribute	67, "2.09"	@ Tag_conformance
	.cpu	cortex-m23
	.eabi_attribute	6, 16	@ Tag_CPU_arch
	.eabi_attribute	7, 77	@ Tag_CPU_arch_profile
	.eabi_attribute	8, 0	@ Tag_ARM_ISA_use
	.eabi_attribute	9, 3	@ Tag_THUMB_ISA_use
	.eabi_attribute	34, 0	@ Tag_CPU_unaligned_access
	.eabi_attribute	17, 1	@ Tag_ABI_PCS_GOT_use
	.eabi_attribute	20, 2	@ Tag_ABI_FP_denormal
	.eabi_attribute	21, 0	@ Tag_ABI_FP_exceptions
	.eabi_attribute	23, 1	@ Tag_ABI_FP_number_model
	.eabi_attribute	24, 1	@ Tag_ABI_align_needed
	.eabi_attribute	25, 1	@ Tag_ABI_align_preserved
	.eabi_attribute	38, 1	@ Tag_ABI_FP_16bit_format
	.eabi_attribute	18, 2	@ Tag_ABI_PCS_wchar_t
	.eabi_attribute	26, 1	@ Tag_ABI_enum_size
	.eabi_attribute	14, 0	@ Tag_ABI_PCS_R9_use
	.file	"I2C_Control.c"
	.file	1 "C:\\Users\\tester" "AppData\\Local\\Keil_v5\\ARM\\ARMCLANG\\bin\\..\\include\\stdint.h"
	.file	2 "C:\\Users\\tester\\Desktop\\M251 dual eeprom\\SampleCode\\StdDriver\\INA3221_CABLE\\KEIL" "../I2C/I2C_Control.c"
	.file	3 "C:\\Users\\tester\\Desktop\\M251 dual eeprom\\SampleCode\\StdDriver\\INA3221_CABLE\\KEIL" "../../../../Library/Device/Nuvoton/M251/Include\\i2c_reg.h"
	.file	4 "C:\\Users\\tester\\Desktop\\M251 dual eeprom\\SampleCode\\StdDriver\\INA3221_CABLE\\KEIL" "../I2C\\I2C_Control.h"
	.file	5 "C:\\Users\\tester\\Desktop\\M251 dual eeprom\\SampleCode\\StdDriver\\INA3221_CABLE\\KEIL" "../../../../Library/Device/Nuvoton/M251/Include\\M251.h"
	.file	6 "C:\\Users\\tester\\Desktop\\M251 dual eeprom\\SampleCode\\StdDriver\\INA3221_CABLE\\KEIL" "../../../../Library/Device/Nuvoton/M251/Include\\sys_reg.h"
	.file	7 "C:\\Users\\tester\\Desktop\\M251 dual eeprom\\SampleCode\\StdDriver\\INA3221_CABLE\\KEIL" "../../../../Library/Device/Nuvoton/M251/Include\\gpio_reg.h"
	.file	8 "C:\\Users\\tester\\Desktop\\M251 dual eeprom\\SampleCode\\StdDriver\\INA3221_CABLE\\KEIL" "../../../../Library/CMSIS/Core/Include\\core_cm23.h"
	.section	.text.I2C1_IRQHandler,"ax",%progbits
	.hidden	I2C1_IRQHandler                 @ -- Begin function I2C1_IRQHandler
	.globl	I2C1_IRQHandler
	.p2align	2
	.type	I2C1_IRQHandler,%function
	.code	16                              @ @I2C1_IRQHandler
	.thumb_func
I2C1_IRQHandler:
.Lfunc_begin0:
	.loc	2 93 0                          @ ../I2C/I2C_Control.c:93:0
	.fnstart
	.cfi_sections .debug_frame
	.cfi_startproc
@ %bb.0:
	.save	{r7, lr}
	push	{r7, lr}
	.cfi_def_cfa_offset 8
	.cfi_offset lr, -4
	.cfi_offset r7, -8
	.pad	#8
	sub	sp, #8
	.cfi_def_cfa_offset 16
	ldr	r0, __arm_cp.0_0
.Ltmp0:
	.loc	2 96 17 prologue_end            @ ../I2C/I2C_Control.c:96:17
	ldr	r0, [r0]
	.loc	2 96 15 is_stmt 0               @ ../I2C/I2C_Control.c:96:15
	str	r0, [sp, #4]
	ldr	r0, __arm_cp.0_1
.Ltmp1:
	.loc	2 98 9 is_stmt 1                @ ../I2C/I2C_Control.c:98:9
	ldr	r0, [r0]
.Ltmp2:
	.loc	2 98 9 is_stmt 0                @ ../I2C/I2C_Control.c:98:9
	lsls	r0, r0, #31
	cbz	r0, .LBB0_2
	b	.LBB0_1
.LBB0_1:
	.loc	2 0 9                           @ ../I2C/I2C_Control.c:0:9
	movs	r0, #1
.Ltmp3:
	.loc	2 98 9                          @ ../I2C/I2C_Control.c:98:9
	cbnz	r0, .LBB0_3
	b	.LBB0_4
.Ltmp4:
.LBB0_2:
	.loc	2 0 9                           @ ../I2C/I2C_Control.c:0:9
	movs	r0, #1
	.loc	2 98 9                          @ ../I2C/I2C_Control.c:98:9
	cbnz	r0, .LBB0_4
	b	.LBB0_3
.LBB0_3:
	.loc	2 0 9                           @ ../I2C/I2C_Control.c:0:9
	ldr	r0, __arm_cp.0_3
.Ltmp5:
	.loc	2 101 9 is_stmt 1               @ ../I2C/I2C_Control.c:101:9
	str	r0, [sp]                        @ 4-byte Spill
	bl	I2C_ClearTimeoutFlag
	ldr	r0, [sp]                        @ 4-byte Reload
	.loc	2 103 9                         @ ../I2C/I2C_Control.c:103:9
	bl	I2C_Close
	.loc	2 104 9                         @ ../I2C/I2C_Control.c:104:9
	bl	I2C1_Init
	.loc	2 105 5                         @ ../I2C/I2C_Control.c:105:5
	b	.LBB0_7
.Ltmp6:
.LBB0_4:
	.loc	2 108 13                        @ ../I2C/I2C_Control.c:108:13
	ldr	r0, __arm_cp.0_2
	ldr	r0, [r0]
.Ltmp7:
	.loc	2 108 13 is_stmt 0              @ ../I2C/I2C_Control.c:108:13
	cbz	r0, .LBB0_6
	b	.LBB0_5
.LBB0_5:
.Ltmp8:
	.loc	2 109 13 is_stmt 1              @ ../I2C/I2C_Control.c:109:13
	ldr	r0, __arm_cp.0_2
	ldr	r2, [r0]
	.loc	2 109 35 is_stmt 0              @ ../I2C/I2C_Control.c:109:35
	ldr	r1, [sp, #4]
	ldr	r0, __arm_cp.0_3
	.loc	2 109 13                        @ ../I2C/I2C_Control.c:109:13
	blx	r2
	b	.LBB0_6
.Ltmp9:
.LBB0_6:
	.loc	2 0 13                          @ ../I2C/I2C_Control.c:0:13
	b	.LBB0_7
.LBB0_7:
	.loc	2 111 1 epilogue_begin is_stmt 1 @ ../I2C/I2C_Control.c:111:1
	add	sp, #8
	pop	{r7, pc}
.Ltmp10:
	.p2align	2
@ %bb.8:
	.loc	2 0 1 is_stmt 0                 @ ../I2C/I2C_Control.c:0:1
__arm_cp.0_0:
	.long	1074270220                      @ 0x4008100c
.Lcpi_end0:
	.size	__arm_cp.0_0, .Lcpi_end0-__arm_cp.0_0
__arm_cp.0_1:
	.long	1074270228                      @ 0x40081014
.Lcpi_end1:
	.size	__arm_cp.0_1, .Lcpi_end1-__arm_cp.0_1
__arm_cp.0_2:
	.long	s_I2C1HandlerFn
.Lcpi_end2:
	.size	__arm_cp.0_2, .Lcpi_end2-__arm_cp.0_2
__arm_cp.0_3:
	.long	1074270208                      @ 0x40081000
.Lcpi_end3:
	.size	__arm_cp.0_3, .Lcpi_end3-__arm_cp.0_3
.Lfunc_end0:
	.size	I2C1_IRQHandler, .Lfunc_end0-I2C1_IRQHandler
	.cfi_endproc
	.cantunwind
	.fnend
                                        @ -- End function
	.section	.text.I2C1_Init,"ax",%progbits
	.hidden	I2C1_Init                       @ -- Begin function I2C1_Init
	.globl	I2C1_Init
	.p2align	2
	.type	I2C1_Init,%function
	.code	16                              @ @I2C1_Init
	.thumb_func
I2C1_Init:
.Lfunc_begin1:
	.loc	2 330 0 is_stmt 1               @ ../I2C/I2C_Control.c:330:0
	.fnstart
	.cfi_startproc
@ %bb.0:
	.save	{r7, lr}
	push	{r7, lr}
	.cfi_def_cfa_offset 8
	.cfi_offset lr, -4
	.cfi_offset r7, -8
	.pad	#16
	sub	sp, #16
	.cfi_def_cfa_offset 24
.Ltmp11:
	.loc	2 332 5 prologue_end            @ ../I2C/I2C_Control.c:332:5
	bl	SYS_UnlockReg
	ldr	r0, __arm_cp.1_0
	.loc	2 335 5                         @ ../I2C/I2C_Control.c:335:5
	bl	CLK_EnableModuleClock
	ldr	r1, __arm_cp.1_1
	.loc	2 341 27                        @ ../I2C/I2C_Control.c:341:27
	ldr	r0, [r1]
	movw	r2, #65280
	.loc	2 341 36 is_stmt 0              @ ../I2C/I2C_Control.c:341:36
	bics	r0, r2
	movw	r2, #39168
	.loc	2 341 92                        @ ../I2C/I2C_Control.c:341:92
	adds	r0, r0, r2
	.loc	2 341 19                        @ ../I2C/I2C_Control.c:341:19
	str	r0, [r1]
	ldr	r1, __arm_cp.1_2
	.loc	2 343 15 is_stmt 1              @ ../I2C/I2C_Control.c:343:15
	ldr	r0, [r1]
	movs	r2, #12
	str	r2, [sp, #8]                    @ 4-byte Spill
	orrs	r0, r2
	str	r0, [r1]
	ldr	r0, __arm_cp.1_3
	str	r0, [sp, #12]                   @ 4-byte Spill
	ldr	r1, __arm_cp.1_4
	.loc	2 345 5                         @ ../I2C/I2C_Control.c:345:5
	bl	I2C_Open
                                        @ kill: def $r1 killed $r0
	.loc	2 348 5                         @ ../I2C/I2C_Control.c:348:5
	ldr	r0, [sp, #12]                   @ 4-byte Reload
	movs	r2, #77
	movs	r3, #0
	mov	r1, r3
	bl	I2C_SetSlaveAddr
	ldr	r0, [sp, #12]                   @ 4-byte Reload
	.loc	2 351 5                         @ ../I2C/I2C_Control.c:351:5
	bl	I2C_EnableInt
	movs	r0, #39
	.loc	2 352 5                         @ ../I2C/I2C_Control.c:352:5
	str	r0, [sp, #4]                    @ 4-byte Spill
	bl	__NVIC_EnableIRQ
	ldr	r0, [sp, #4]                    @ 4-byte Reload
	movs	r1, #1
	.loc	2 353 5                         @ ../I2C/I2C_Control.c:353:5
	bl	__NVIC_SetPriority
	.loc	2 359 5                         @ ../I2C/I2C_Control.c:359:5
	bl	SYS_LockReg
	ldr	r2, [sp, #8]                    @ 4-byte Reload
	ldr	r1, [sp, #12]                   @ 4-byte Reload
	.loc	2 362 21                        @ ../I2C/I2C_Control.c:362:21
	ldr	r3, __arm_cp.1_5
	ldr	r0, __arm_cp.1_6
	str	r0, [r3]
	.loc	2 365 5                         @ ../I2C/I2C_Control.c:365:5
	ldr	r0, [r1]
	orrs	r0, r2
	movs	r2, #48
	bics	r0, r2
	str	r0, [r1]
	.loc	2 366 1 epilogue_begin          @ ../I2C/I2C_Control.c:366:1
	add	sp, #16
	pop	{r7, pc}
.Ltmp12:
	.p2align	2
@ %bb.1:
	.loc	2 0 1 is_stmt 0                 @ ../I2C/I2C_Control.c:0:1
__arm_cp.1_0:
	.long	1073741833                      @ 0x40000009
.Lcpi_end4:
	.size	__arm_cp.1_0, .Lcpi_end4-__arm_cp.1_0
__arm_cp.1_1:
	.long	1073741872                      @ 0x40000030
.Lcpi_end5:
	.size	__arm_cp.1_1, .Lcpi_end5-__arm_cp.1_1
__arm_cp.1_2:
	.long	1073758244                      @ 0x40004024
.Lcpi_end6:
	.size	__arm_cp.1_2, .Lcpi_end6-__arm_cp.1_2
__arm_cp.1_3:
	.long	1074270208                      @ 0x40081000
.Lcpi_end7:
	.size	__arm_cp.1_3, .Lcpi_end7-__arm_cp.1_3
__arm_cp.1_4:
	.long	100000                          @ 0x186a0
.Lcpi_end8:
	.size	__arm_cp.1_4, .Lcpi_end8-__arm_cp.1_4
__arm_cp.1_5:
	.long	s_I2C1HandlerFn
.Lcpi_end9:
	.size	__arm_cp.1_5, .Lcpi_end9-__arm_cp.1_5
__arm_cp.1_6:
	.long	I2C_SlaveTRx
.Lcpi_end10:
	.size	__arm_cp.1_6, .Lcpi_end10-__arm_cp.1_6
.Lfunc_end1:
	.size	I2C1_Init, .Lfunc_end1-I2C1_Init
	.cfi_endproc
	.cantunwind
	.fnend
                                        @ -- End function
	.section	.text.I2C_SlaveTRx,"ax",%progbits
	.hidden	I2C_SlaveTRx                    @ -- Begin function I2C_SlaveTRx
	.globl	I2C_SlaveTRx
	.p2align	2
	.type	I2C_SlaveTRx,%function
	.code	16                              @ @I2C_SlaveTRx
	.thumb_func
I2C_SlaveTRx:
.Lfunc_begin2:
	.loc	2 117 0 is_stmt 1               @ ../I2C/I2C_Control.c:117:0
	.fnstart
	.cfi_startproc
@ %bb.0:
	.save	{r4, r5, r7, lr}
	push	{r4, r5, r7, lr}
	.cfi_def_cfa_offset 16
	.cfi_offset lr, -4
	.cfi_offset r7, -8
	.cfi_offset r5, -12
	.cfi_offset r4, -16
	.pad	#56
	sub	sp, #56
	.cfi_def_cfa_offset 72
	str	r0, [sp, #52]
	str	r1, [sp, #48]
.Ltmp13:
	.loc	2 121 9 prologue_end            @ ../I2C/I2C_Control.c:121:9
	ldr	r0, [sp, #48]
.Ltmp14:
	.loc	2 121 9 is_stmt 0               @ ../I2C/I2C_Control.c:121:9
	cmp	r0, #96
	bne	.LBB2_2
	b	.LBB2_1
.LBB2_1:
.Ltmp15:
	.loc	2 123 23 is_stmt 1              @ ../I2C/I2C_Control.c:123:23
	ldr	r1, .LCPI2_27
	movs	r0, #0
	strh	r0, [r1]
	.loc	2 124 9                         @ ../I2C/I2C_Control.c:124:9
	ldr	r0, [sp, #52]
	ldr	r0, [r0]
	movs	r1, #12
	orrs	r0, r1
	movs	r1, #48
	bics	r0, r1
	ldr	r1, [sp, #52]
	str	r0, [r1]
	.loc	2 125 5                         @ ../I2C/I2C_Control.c:125:5
	b	.LBB2_81
.Ltmp16:
.LBB2_2:
	.loc	2 126 14                        @ ../I2C/I2C_Control.c:126:14
	ldr	r0, [sp, #48]
.Ltmp17:
	.loc	2 126 14 is_stmt 0              @ ../I2C/I2C_Control.c:126:14
	cmp	r0, #128
	bne	.LBB2_6
	b	.LBB2_3
.LBB2_3:
.Ltmp18:
	.loc	2 129 34 is_stmt 1              @ ../I2C/I2C_Control.c:129:34
	ldr	r0, [sp, #52]
	ldr	r0, [r0, #8]
	add	r1, sp, #44
	.loc	2 129 16 is_stmt 0              @ ../I2C/I2C_Control.c:129:16
	strb	r0, [r1]
.Ltmp19:
	.loc	2 131 13 is_stmt 1              @ ../I2C/I2C_Control.c:131:13
	ldr	r0, .LCPI2_27
	ldrh	r0, [r0]
.Ltmp20:
	.loc	2 131 13 is_stmt 0              @ ../I2C/I2C_Control.c:131:13
	cmp	r0, #255
	bgt	.LBB2_5
	b	.LBB2_4
.LBB2_4:
.Ltmp21:
	.loc	2 133 45 is_stmt 1              @ ../I2C/I2C_Control.c:133:45
	ldr	r0, [sp, #44]
	.loc	2 133 39 is_stmt 0              @ ../I2C/I2C_Control.c:133:39
	ldr	r3, .LCPI2_27
	ldrh	r2, [r3]
	adds	r1, r2, #1
	strh	r1, [r3]
	.loc	2 133 13                        @ ../I2C/I2C_Control.c:133:13
	ldr	r1, .LCPI2_28
	.loc	2 133 43                        @ ../I2C/I2C_Control.c:133:43
	strb	r0, [r1, r2]
	.loc	2 134 9 is_stmt 1               @ ../I2C/I2C_Control.c:134:9
	b	.LBB2_5
.Ltmp22:
.LBB2_5:
	.loc	2 136 9                         @ ../I2C/I2C_Control.c:136:9
	ldr	r0, [sp, #52]
	ldr	r0, [r0]
	movs	r1, #12
	orrs	r0, r1
	movs	r1, #48
	bics	r0, r1
	ldr	r1, [sp, #52]
	str	r0, [r1]
	.loc	2 137 5                         @ ../I2C/I2C_Control.c:137:5
	b	.LBB2_80
.Ltmp23:
.LBB2_6:
	.loc	2 138 14                        @ ../I2C/I2C_Control.c:138:14
	ldr	r0, [sp, #48]
.Ltmp24:
	.loc	2 138 14 is_stmt 0              @ ../I2C/I2C_Control.c:138:14
	cmp	r0, #168
	bne	.LBB2_11
	b	.LBB2_7
.LBB2_7:
.Ltmp25:
	.loc	2 141 13 is_stmt 1              @ ../I2C/I2C_Control.c:141:13
	ldr	r0, .LCPI2_29
	ldrb	r0, [r0]
.Ltmp26:
	.loc	2 141 13 is_stmt 0              @ ../I2C/I2C_Control.c:141:13
	cmp	r0, #1
	bne	.LBB2_9
	b	.LBB2_8
.LBB2_8:
.Ltmp27:
	.loc	2 144 17 is_stmt 1              @ ../I2C/I2C_Control.c:144:17
	ldr	r1, .LCPI2_30
	ldrb	r2, [r1]
	ldr	r0, .LCPI2_31
	ldrb	r0, [r0, r2]
	ldr	r2, [sp, #52]
	str	r0, [r2, #8]
	.loc	2 145 25                        @ ../I2C/I2C_Control.c:145:25
	ldrb	r0, [r1]
	.loc	2 145 32 is_stmt 0              @ ../I2C/I2C_Control.c:145:32
	adds	r0, r0, #1
	.loc	2 145 24                        @ ../I2C/I2C_Control.c:145:24
	strb	r0, [r1]
	.loc	2 146 9 is_stmt 1               @ ../I2C/I2C_Control.c:146:9
	b	.LBB2_10
.Ltmp28:
.LBB2_9:
	.loc	2 149 13                        @ ../I2C/I2C_Control.c:149:13
	ldr	r1, [sp, #52]
	movs	r0, #0
	str	r0, [r1, #8]
	b	.LBB2_10
.Ltmp29:
.LBB2_10:
	.loc	2 152 9                         @ ../I2C/I2C_Control.c:152:9
	ldr	r0, [sp, #52]
	ldr	r0, [r0]
	movs	r1, #12
	orrs	r0, r1
	movs	r1, #48
	bics	r0, r1
	ldr	r1, [sp, #52]
	str	r0, [r1]
	.loc	2 153 5                         @ ../I2C/I2C_Control.c:153:5
	b	.LBB2_79
.Ltmp30:
.LBB2_11:
	.loc	2 154 14                        @ ../I2C/I2C_Control.c:154:14
	ldr	r0, [sp, #48]
.Ltmp31:
	.loc	2 154 14 is_stmt 0              @ ../I2C/I2C_Control.c:154:14
	cmp	r0, #184
	bne	.LBB2_16
	b	.LBB2_12
.LBB2_12:
.Ltmp32:
	.loc	2 157 13 is_stmt 1              @ ../I2C/I2C_Control.c:157:13
	ldr	r0, .LCPI2_29
	ldrb	r0, [r0]
.Ltmp33:
	.loc	2 157 13 is_stmt 0              @ ../I2C/I2C_Control.c:157:13
	cmp	r0, #1
	bne	.LBB2_14
	b	.LBB2_13
.LBB2_13:
.Ltmp34:
	.loc	2 159 17 is_stmt 1              @ ../I2C/I2C_Control.c:159:17
	ldr	r1, .LCPI2_30
	ldrb	r2, [r1]
	ldr	r0, .LCPI2_31
	ldrb	r0, [r0, r2]
	ldr	r2, [sp, #52]
	str	r0, [r2, #8]
	.loc	2 160 25                        @ ../I2C/I2C_Control.c:160:25
	ldrb	r0, [r1]
	.loc	2 160 32 is_stmt 0              @ ../I2C/I2C_Control.c:160:32
	adds	r0, r0, #1
	.loc	2 160 24                        @ ../I2C/I2C_Control.c:160:24
	strb	r0, [r1]
	.loc	2 161 9 is_stmt 1               @ ../I2C/I2C_Control.c:161:9
	b	.LBB2_15
.Ltmp35:
.LBB2_14:
	.loc	2 164 13                        @ ../I2C/I2C_Control.c:164:13
	ldr	r1, [sp, #52]
	movs	r0, #0
	str	r0, [r1, #8]
	b	.LBB2_15
.Ltmp36:
.LBB2_15:
	.loc	2 167 9                         @ ../I2C/I2C_Control.c:167:9
	ldr	r0, [sp, #52]
	ldr	r0, [r0]
	movs	r1, #12
	orrs	r0, r1
	movs	r1, #48
	bics	r0, r1
	ldr	r1, [sp, #52]
	str	r0, [r1]
	.loc	2 168 5                         @ ../I2C/I2C_Control.c:168:5
	b	.LBB2_78
.Ltmp37:
.LBB2_16:
	.loc	2 169 14                        @ ../I2C/I2C_Control.c:169:14
	ldr	r0, [sp, #48]
.Ltmp38:
	.loc	2 169 14 is_stmt 0              @ ../I2C/I2C_Control.c:169:14
	cmp	r0, #192
	bne	.LBB2_18
	b	.LBB2_17
.LBB2_17:
.Ltmp39:
	.loc	2 173 28 is_stmt 1              @ ../I2C/I2C_Control.c:173:28
	ldr	r1, .LCPI2_29
	movs	r0, #0
	strb	r0, [r1]
	.loc	2 175 9                         @ ../I2C/I2C_Control.c:175:9
	ldr	r0, [sp, #52]
	ldr	r0, [r0]
	movs	r1, #12
	orrs	r0, r1
	movs	r1, #48
	bics	r0, r1
	ldr	r1, [sp, #52]
	str	r0, [r1]
	.loc	2 176 5                         @ ../I2C/I2C_Control.c:176:5
	b	.LBB2_77
.Ltmp40:
.LBB2_18:
	.loc	2 177 14                        @ ../I2C/I2C_Control.c:177:14
	ldr	r0, [sp, #48]
.Ltmp41:
	.loc	2 177 14 is_stmt 0              @ ../I2C/I2C_Control.c:177:14
	cmp	r0, #136
	bne	.LBB2_20
	b	.LBB2_19
.LBB2_19:
.Ltmp42:
	.loc	2 180 23 is_stmt 1              @ ../I2C/I2C_Control.c:180:23
	ldr	r1, __arm_cp.2_0
	movs	r0, #0
	strh	r0, [r1]
	.loc	2 181 9                         @ ../I2C/I2C_Control.c:181:9
	ldr	r0, [sp, #52]
	ldr	r0, [r0]
	movs	r1, #12
	orrs	r0, r1
	movs	r1, #48
	bics	r0, r1
	ldr	r1, [sp, #52]
	str	r0, [r1]
	.loc	2 182 5                         @ ../I2C/I2C_Control.c:182:5
	b	.LBB2_76
.Ltmp43:
.LBB2_20:
	.loc	2 183 14                        @ ../I2C/I2C_Control.c:183:14
	ldr	r0, [sp, #48]
.Ltmp44:
	.loc	2 183 14 is_stmt 0              @ ../I2C/I2C_Control.c:183:14
	cmp	r0, #160
	beq	.LBB2_21
	b	.LBB2_68
.LBB2_21:
.Ltmp45:
	.loc	2 188 13 is_stmt 1              @ ../I2C/I2C_Control.c:188:13
	ldr	r0, __arm_cp.2_0
	ldrh	r0, [r0]
.Ltmp46:
	.loc	2 188 13 is_stmt 0              @ ../I2C/I2C_Control.c:188:13
	cmp	r0, #1
	bne	.LBB2_23
	b	.LBB2_22
.LBB2_22:
.Ltmp47:
	.loc	2 191 23 is_stmt 1              @ ../I2C/I2C_Control.c:191:23
	ldr	r0, __arm_cp.2_1
	ldrb	r0, [r0]
	.loc	2 191 21 is_stmt 0              @ ../I2C/I2C_Control.c:191:21
	ldr	r1, __arm_cp.2_26
	strb	r0, [r1]
	.loc	2 193 32 is_stmt 1              @ ../I2C/I2C_Control.c:193:32
	ldr	r1, __arm_cp.2_10
	movs	r0, #1
	strb	r0, [r1]
	.loc	2 195 9                         @ ../I2C/I2C_Control.c:195:9
	b	.LBB2_67
.Ltmp48:
.LBB2_23:
	.loc	2 196 19                        @ ../I2C/I2C_Control.c:196:19
	ldr	r0, __arm_cp.2_0
	ldrh	r0, [r0]
	.loc	2 196 38 is_stmt 0              @ ../I2C/I2C_Control.c:196:38
	cmp	r0, #2
	bne	.LBB2_26
	b	.LBB2_24
.LBB2_24:
	.loc	2 196 41                        @ ../I2C/I2C_Control.c:196:41
	ldr	r0, __arm_cp.2_1
	ldrb	r0, [r0]
.Ltmp49:
	.loc	2 196 18                        @ ../I2C/I2C_Control.c:196:18
	cmp	r0, #15
	bne	.LBB2_26
	b	.LBB2_25
.LBB2_25:
.Ltmp50:
	.loc	2 198 37 is_stmt 1              @ ../I2C/I2C_Control.c:198:37
	ldr	r0, __arm_cp.2_1
	ldrb	r0, [r0, #1]
	.loc	2 198 36 is_stmt 0              @ ../I2C/I2C_Control.c:198:36
	ldr	r1, __arm_cp.2_13
	strb	r0, [r1, #15]
	.loc	2 199 30 is_stmt 1              @ ../I2C/I2C_Control.c:199:30
	ldr	r1, __arm_cp.2_25
	movs	r0, #1
	strb	r0, [r1]
	.loc	2 201 9                         @ ../I2C/I2C_Control.c:201:9
	b	.LBB2_66
.Ltmp51:
.LBB2_26:
	.loc	2 204 19                        @ ../I2C/I2C_Control.c:204:19
	ldr	r0, __arm_cp.2_0
	ldrh	r0, [r0]
	.loc	2 204 49 is_stmt 0              @ ../I2C/I2C_Control.c:204:49
	cmp	r0, #7
	bne	.LBB2_29
	b	.LBB2_27
.LBB2_27:
	.loc	2 204 53                        @ ../I2C/I2C_Control.c:204:53
	ldr	r0, __arm_cp.2_1
	ldr	r1, __arm_cp.2_2
	movs	r2, #7
	bl	memcmp
.Ltmp52:
	.loc	2 204 18                        @ ../I2C/I2C_Control.c:204:18
	cbnz	r0, .LBB2_29
	b	.LBB2_28
.LBB2_28:
.Ltmp53:
	.loc	2 207 29 is_stmt 1              @ ../I2C/I2C_Control.c:207:29
	ldr	r1, __arm_cp.2_24
	movs	r0, #1
	strb	r0, [r1]
	.loc	2 210 32                        @ ../I2C/I2C_Control.c:210:32
	ldr	r1, __arm_cp.2_10
	movs	r0, #0
	strb	r0, [r1]
	.loc	2 211 9                         @ ../I2C/I2C_Control.c:211:9
	b	.LBB2_65
.Ltmp54:
.LBB2_29:
	.loc	2 217 19                        @ ../I2C/I2C_Control.c:217:19
	ldr	r0, __arm_cp.2_0
	ldrh	r0, [r0]
	.loc	2 217 72 is_stmt 0              @ ../I2C/I2C_Control.c:217:72
	cmp	r0, #8
	bne	.LBB2_32
	b	.LBB2_30
.LBB2_30:
	.loc	2 217 76                        @ ../I2C/I2C_Control.c:217:76
	ldr	r0, __arm_cp.2_1
	ldrb	r2, [r0]
	ldrb	r1, [r0, #1]
	lsls	r1, r1, #8
	adds	r1, r1, r2
	ldrb	r2, [r0, #2]
	lsls	r2, r2, #16
	ldrb	r0, [r0, #3]
	lsls	r0, r0, #24
	adds	r0, r0, r2
	adds	r0, r0, r1
	ldr	r1, __arm_cp.2_3
.Ltmp55:
	.loc	2 217 18                        @ ../I2C/I2C_Control.c:217:18
	cmp	r0, r1
	bne	.LBB2_32
	b	.LBB2_31
.LBB2_31:
.Ltmp56:
	.loc	2 220 24 is_stmt 1              @ ../I2C/I2C_Control.c:220:24
	ldr	r1, __arm_cp.2_23
	movs	r0, #1
	strb	r0, [r1]
	.loc	2 221 13                        @ ../I2C/I2C_Control.c:221:13
	ldr	r1, __arm_cp.2_1
	ldrb	r2, [r1, #7]
	ldr	r0, __arm_cp.2_21
	str	r0, [sp, #32]                   @ 4-byte Spill
	strb	r2, [r0, #7]
	ldrb	r2, [r1, #6]
	strb	r2, [r0, #6]
	ldrb	r2, [r1, #5]
	strb	r2, [r0, #5]
	ldrb	r1, [r1, #4]
	strb	r1, [r0, #4]
	.loc	2 222 13                        @ ../I2C/I2C_Control.c:222:13
	ldrb	r2, [r0, #7]
	ldr	r1, __arm_cp.2_13
	strb	r2, [r1, #7]
	ldrb	r2, [r0, #6]
	strb	r2, [r1, #6]
	ldrb	r2, [r0, #5]
	strb	r2, [r1, #5]
	ldrb	r0, [r0, #4]
	strb	r0, [r1, #4]
	.loc	2 225 32                        @ ../I2C/I2C_Control.c:225:32
	ldr	r1, __arm_cp.2_10
	movs	r0, #0
	strb	r0, [r1]
	.loc	2 226 9                         @ ../I2C/I2C_Control.c:226:9
	b	.LBB2_64
.Ltmp57:
.LBB2_32:
	.loc	2 230 19                        @ ../I2C/I2C_Control.c:230:19
	ldr	r0, __arm_cp.2_0
	ldrh	r0, [r0]
	.loc	2 230 72 is_stmt 0              @ ../I2C/I2C_Control.c:230:72
	cmp	r0, #8
	bne	.LBB2_35
	b	.LBB2_33
.LBB2_33:
	.loc	2 230 76                        @ ../I2C/I2C_Control.c:230:76
	ldr	r0, __arm_cp.2_1
	ldrb	r2, [r0]
	ldrb	r1, [r0, #1]
	lsls	r1, r1, #8
	adds	r1, r1, r2
	ldrb	r2, [r0, #2]
	lsls	r2, r2, #16
	ldrb	r0, [r0, #3]
	lsls	r0, r0, #24
	adds	r0, r0, r2
	adds	r0, r0, r1
	ldr	r1, __arm_cp.2_4
.Ltmp58:
	.loc	2 230 18                        @ ../I2C/I2C_Control.c:230:18
	cmp	r0, r1
	bne	.LBB2_35
	b	.LBB2_34
.LBB2_34:
.Ltmp59:
	.loc	2 233 24 is_stmt 1              @ ../I2C/I2C_Control.c:233:24
	ldr	r1, __arm_cp.2_22
	movs	r0, #1
	strb	r0, [r1]
	.loc	2 235 13                        @ ../I2C/I2C_Control.c:235:13
	ldr	r1, __arm_cp.2_1
	ldrb	r2, [r1, #7]
	ldr	r0, __arm_cp.2_21
	str	r0, [sp, #28]                   @ 4-byte Spill
	strb	r2, [r0, #11]
	ldrb	r2, [r1, #6]
	strb	r2, [r0, #10]
	ldrb	r2, [r1, #5]
	strb	r2, [r0, #9]
	ldrb	r1, [r1, #4]
	strb	r1, [r0, #8]
	.loc	2 237 13                        @ ../I2C/I2C_Control.c:237:13
	ldrb	r2, [r0, #11]
	ldr	r1, __arm_cp.2_13
	strb	r2, [r1, #11]
	ldrb	r2, [r0, #10]
	strb	r2, [r1, #10]
	ldrb	r2, [r0, #9]
	strb	r2, [r1, #9]
	ldrb	r0, [r0, #8]
	strb	r0, [r1, #8]
	.loc	2 239 32                        @ ../I2C/I2C_Control.c:239:32
	ldr	r1, __arm_cp.2_10
	movs	r0, #0
	strb	r0, [r1]
	.loc	2 240 9                         @ ../I2C/I2C_Control.c:240:9
	b	.LBB2_63
.Ltmp60:
.LBB2_35:
	.loc	2 243 19                        @ ../I2C/I2C_Control.c:243:19
	ldr	r0, __arm_cp.2_0
	ldrh	r0, [r0]
	.loc	2 243 71 is_stmt 0              @ ../I2C/I2C_Control.c:243:71
	cmp	r0, #5
	bne	.LBB2_38
	b	.LBB2_36
.LBB2_36:
	.loc	2 243 75                        @ ../I2C/I2C_Control.c:243:75
	ldr	r0, __arm_cp.2_1
	ldrb	r2, [r0]
	ldrb	r1, [r0, #1]
	lsls	r1, r1, #8
	adds	r1, r1, r2
	ldrb	r2, [r0, #2]
	lsls	r2, r2, #16
	ldrb	r0, [r0, #3]
	lsls	r0, r0, #24
	adds	r0, r0, r2
	adds	r0, r0, r1
	ldr	r1, __arm_cp.2_5
.Ltmp61:
	.loc	2 243 18                        @ ../I2C/I2C_Control.c:243:18
	cmp	r0, r1
	bne	.LBB2_38
	b	.LBB2_37
.LBB2_37:
.Ltmp62:
	.loc	2 246 24 is_stmt 1              @ ../I2C/I2C_Control.c:246:24
	ldr	r1, __arm_cp.2_20
	movs	r0, #1
	strb	r0, [r1]
	.loc	2 249 40                        @ ../I2C/I2C_Control.c:249:40
	ldr	r0, __arm_cp.2_1
	ldrb	r1, [r0, #4]
	.loc	2 249 38 is_stmt 0              @ ../I2C/I2C_Control.c:249:38
	ldr	r0, __arm_cp.2_21
	strb	r1, [r0, #12]
	.loc	2 250 61 is_stmt 1              @ ../I2C/I2C_Control.c:250:61
	ldrb	r0, [r0, #12]
	.loc	2 250 47 is_stmt 0              @ ../I2C/I2C_Control.c:250:47
	ldr	r1, __arm_cp.2_13
	strb	r0, [r1, #12]
	.loc	2 252 32 is_stmt 1              @ ../I2C/I2C_Control.c:252:32
	ldr	r1, __arm_cp.2_10
	movs	r0, #0
	strb	r0, [r1]
	.loc	2 253 9                         @ ../I2C/I2C_Control.c:253:9
	b	.LBB2_62
.Ltmp63:
.LBB2_38:
	.loc	2 256 19                        @ ../I2C/I2C_Control.c:256:19
	ldr	r0, __arm_cp.2_0
	ldrh	r0, [r0]
	.loc	2 256 63 is_stmt 0              @ ../I2C/I2C_Control.c:256:63
	cmp	r0, #9
	bne	.LBB2_43
	b	.LBB2_39
.LBB2_39:
	.loc	2 256 67                        @ ../I2C/I2C_Control.c:256:67
	ldr	r0, __arm_cp.2_1
	ldrb	r2, [r0]
	ldrb	r1, [r0, #1]
	lsls	r1, r1, #8
	adds	r1, r1, r2
	ldrb	r2, [r0, #2]
	lsls	r2, r2, #16
	ldrb	r0, [r0, #3]
	lsls	r0, r0, #24
	adds	r0, r0, r2
	adds	r0, r0, r1
	ldr	r1, __arm_cp.2_6
.Ltmp64:
	.loc	2 256 18                        @ ../I2C/I2C_Control.c:256:18
	cmp	r0, r1
	bne	.LBB2_43
	b	.LBB2_40
.LBB2_40:
.Ltmp65:
	.loc	2 258 30 is_stmt 1              @ ../I2C/I2C_Control.c:258:30
	ldr	r0, __arm_cp.2_1
	ldrb	r1, [r0, #4]
	add	r0, sp, #40
	.loc	2 258 21 is_stmt 0              @ ../I2C/I2C_Control.c:258:21
	strb	r1, [r0]
.Ltmp66:
	.loc	2 259 17 is_stmt 1              @ ../I2C/I2C_Control.c:259:17
	ldrb	r0, [r0]
.Ltmp67:
	.loc	2 259 17 is_stmt 0              @ ../I2C/I2C_Control.c:259:17
	cmp	r0, #5
	bgt	.LBB2_42
	b	.LBB2_41
.LBB2_41:
.Ltmp68:
	.loc	2 262 28 is_stmt 1              @ ../I2C/I2C_Control.c:262:28
	ldr	r1, __arm_cp.2_18
	movs	r0, #1
	strb	r0, [r1]
	.loc	2 265 57                        @ ../I2C/I2C_Control.c:265:57
	ldr	r3, __arm_cp.2_1
	ldrb	r0, [r3, #6]
	.loc	2 265 73 is_stmt 0              @ ../I2C/I2C_Control.c:265:73
	lsls	r0, r0, #8
	.loc	2 265 81                        @ ../I2C/I2C_Control.c:265:81
	ldrb	r1, [r3, #5]
	.loc	2 265 79                        @ ../I2C/I2C_Control.c:265:79
	adds	r1, r0, r1
	add	r0, sp, #40
	.loc	2 265 38                        @ ../I2C/I2C_Control.c:265:38
	ldrb	r2, [r0]
	.loc	2 265 17                        @ ../I2C/I2C_Control.c:265:17
	lsls	r4, r2, #2
	ldr	r2, __arm_cp.2_19
	.loc	2 265 54                        @ ../I2C/I2C_Control.c:265:54
	strh	r1, [r2, r4]
	.loc	2 266 59 is_stmt 1              @ ../I2C/I2C_Control.c:266:59
	ldrb	r1, [r3, #8]
	.loc	2 266 75 is_stmt 0              @ ../I2C/I2C_Control.c:266:75
	lsls	r1, r1, #8
	.loc	2 266 83                        @ ../I2C/I2C_Control.c:266:83
	ldrb	r3, [r3, #7]
	.loc	2 266 81                        @ ../I2C/I2C_Control.c:266:81
	adds	r1, r1, r3
	.loc	2 266 38                        @ ../I2C/I2C_Control.c:266:38
	ldrb	r3, [r0]
	.loc	2 266 17                        @ ../I2C/I2C_Control.c:266:17
	lsls	r3, r3, #2
	adds	r3, r2, r3
	.loc	2 266 56                        @ ../I2C/I2C_Control.c:266:56
	strh	r1, [r3, #2]
	.loc	2 269 63 is_stmt 1              @ ../I2C/I2C_Control.c:269:63
	ldrb	r1, [r0]
	.loc	2 269 70 is_stmt 0              @ ../I2C/I2C_Control.c:269:70
	lsls	r3, r1, #2
	.loc	2 269 60                        @ ../I2C/I2C_Control.c:269:60
	adds	r3, #16
	add	r1, sp, #36
	.loc	2 269 26                        @ ../I2C/I2C_Control.c:269:26
	strh	r3, [r1]
	.loc	2 270 44 is_stmt 1              @ ../I2C/I2C_Control.c:270:44
	ldrh	r4, [r1]
	.loc	2 270 33 is_stmt 0              @ ../I2C/I2C_Control.c:270:33
	ldr	r3, __arm_cp.2_13
	adds	r1, r3, r4
	.loc	2 270 79                        @ ../I2C/I2C_Control.c:270:79
	ldrb	r0, [r0]
	.loc	2 270 58                        @ ../I2C/I2C_Control.c:270:58
	lsls	r5, r0, #2
	adds	r0, r2, r5
	.loc	2 270 17                        @ ../I2C/I2C_Control.c:270:17
	ldrb	r2, [r2, r5]
	strb	r2, [r3, r4]
	ldrb	r2, [r0, #3]
	strb	r2, [r1, #3]
	ldrb	r2, [r0, #2]
	strb	r2, [r1, #2]
	ldrb	r0, [r0, #1]
	strb	r0, [r1, #1]
	.loc	2 271 13 is_stmt 1              @ ../I2C/I2C_Control.c:271:13
	b	.LBB2_42
.Ltmp69:
.LBB2_42:
	.loc	2 272 32                        @ ../I2C/I2C_Control.c:272:32
	ldr	r1, __arm_cp.2_10
	movs	r0, #0
	strb	r0, [r1]
	.loc	2 273 9                         @ ../I2C/I2C_Control.c:273:9
	b	.LBB2_61
.Ltmp70:
.LBB2_43:
	.loc	2 276 19                        @ ../I2C/I2C_Control.c:276:19
	ldr	r0, __arm_cp.2_0
	ldrh	r0, [r0]
	.loc	2 276 56 is_stmt 0              @ ../I2C/I2C_Control.c:276:56
	cmp	r0, #20
	bne	.LBB2_46
	b	.LBB2_44
.LBB2_44:
	.loc	2 276 60                        @ ../I2C/I2C_Control.c:276:60
	ldr	r0, __arm_cp.2_1
	ldrb	r2, [r0]
	ldrb	r1, [r0, #1]
	lsls	r1, r1, #8
	adds	r1, r1, r2
	ldrb	r2, [r0, #2]
	lsls	r2, r2, #16
	ldrb	r0, [r0, #3]
	lsls	r0, r0, #24
	adds	r0, r0, r2
	adds	r0, r0, r1
	ldr	r1, __arm_cp.2_7
.Ltmp71:
	.loc	2 276 18                        @ ../I2C/I2C_Control.c:276:18
	cmp	r0, r1
	bne	.LBB2_46
	b	.LBB2_45
.LBB2_45:
.Ltmp72:
	.loc	2 278 24 is_stmt 1              @ ../I2C/I2C_Control.c:278:24
	ldr	r1, __arm_cp.2_16
	movs	r0, #1
	strb	r0, [r1]
	.loc	2 279 13                        @ ../I2C/I2C_Control.c:279:13
	ldr	r0, __arm_cp.2_1
	adds	r1, r0, #4
	ldr	r0, __arm_cp.2_17
	str	r0, [sp, #20]                   @ 4-byte Spill
	movs	r2, #16
	str	r2, [sp, #24]                   @ 4-byte Spill
	bl	__aeabi_memcpy
	ldr	r1, [sp, #20]                   @ 4-byte Reload
	ldr	r2, [sp, #24]                   @ 4-byte Reload
	.loc	2 280 13                        @ ../I2C/I2C_Control.c:280:13
	ldr	r0, __arm_cp.2_13
	adds	r0, #192
	bl	__aeabi_memcpy
	.loc	2 281 32                        @ ../I2C/I2C_Control.c:281:32
	ldr	r1, __arm_cp.2_10
	movs	r0, #0
	strb	r0, [r1]
	.loc	2 282 9                         @ ../I2C/I2C_Control.c:282:9
	b	.LBB2_60
.Ltmp73:
.LBB2_46:
	.loc	2 285 19                        @ ../I2C/I2C_Control.c:285:19
	ldr	r0, __arm_cp.2_0
	ldrh	r0, [r0]
	.loc	2 285 56 is_stmt 0              @ ../I2C/I2C_Control.c:285:56
	cmp	r0, #20
	bne	.LBB2_49
	b	.LBB2_47
.LBB2_47:
	.loc	2 285 60                        @ ../I2C/I2C_Control.c:285:60
	ldr	r0, __arm_cp.2_1
	ldrb	r2, [r0]
	ldrb	r1, [r0, #1]
	lsls	r1, r1, #8
	adds	r1, r1, r2
	ldrb	r2, [r0, #2]
	lsls	r2, r2, #16
	ldrb	r0, [r0, #3]
	lsls	r0, r0, #24
	adds	r0, r0, r2
	adds	r0, r0, r1
	ldr	r1, __arm_cp.2_8
.Ltmp74:
	.loc	2 285 18                        @ ../I2C/I2C_Control.c:285:18
	cmp	r0, r1
	bne	.LBB2_49
	b	.LBB2_48
.LBB2_48:
.Ltmp75:
	.loc	2 287 24 is_stmt 1              @ ../I2C/I2C_Control.c:287:24
	ldr	r1, __arm_cp.2_14
	movs	r0, #1
	strb	r0, [r1]
	.loc	2 288 13                        @ ../I2C/I2C_Control.c:288:13
	ldr	r0, __arm_cp.2_1
	adds	r1, r0, #4
	ldr	r0, __arm_cp.2_15
	str	r0, [sp, #12]                   @ 4-byte Spill
	movs	r2, #16
	str	r2, [sp, #16]                   @ 4-byte Spill
	bl	__aeabi_memcpy
	ldr	r1, [sp, #12]                   @ 4-byte Reload
	ldr	r2, [sp, #16]                   @ 4-byte Reload
	.loc	2 289 13                        @ ../I2C/I2C_Control.c:289:13
	ldr	r0, __arm_cp.2_13
	adds	r0, #208
	bl	__aeabi_memcpy
	.loc	2 290 32                        @ ../I2C/I2C_Control.c:290:32
	ldr	r1, __arm_cp.2_10
	movs	r0, #0
	strb	r0, [r1]
	.loc	2 291 9                         @ ../I2C/I2C_Control.c:291:9
	b	.LBB2_59
.Ltmp76:
.LBB2_49:
	.loc	2 294 19                        @ ../I2C/I2C_Control.c:294:19
	ldr	r0, __arm_cp.2_0
	ldrh	r0, [r0]
	.loc	2 294 56 is_stmt 0              @ ../I2C/I2C_Control.c:294:56
	cmp	r0, #20
	bne	.LBB2_57
	b	.LBB2_50
.LBB2_50:
	.loc	2 294 60                        @ ../I2C/I2C_Control.c:294:60
	ldr	r0, __arm_cp.2_1
	ldrb	r2, [r0]
	ldrb	r1, [r0, #1]
	lsls	r1, r1, #8
	adds	r1, r1, r2
	ldrb	r2, [r0, #2]
	lsls	r2, r2, #16
	ldrb	r0, [r0, #3]
	lsls	r0, r0, #24
	adds	r0, r0, r2
	adds	r0, r0, r1
	ldr	r1, __arm_cp.2_9
.Ltmp77:
	.loc	2 294 18                        @ ../I2C/I2C_Control.c:294:18
	cmp	r0, r1
	bne	.LBB2_57
	b	.LBB2_56
	.p2align	2
@ %bb.51:
	.loc	2 0 18                          @ ../I2C/I2C_Control.c:0:18
.LCPI2_27:
	.long	u16SlvDataLen
	.p2align	2
@ %bb.52:
.LCPI2_28:
	.long	au8SlvRxData
	.p2align	2
@ %bb.53:
.LCPI2_29:
	.long	u8ReportEEPROMFlag
	.p2align	2
@ %bb.54:
.LCPI2_30:
	.long	u8RxPtr
	.p2align	2
@ %bb.55:
.LCPI2_31:
	.long	eeprom_ram
	.p2align	1
.LBB2_56:
.Ltmp78:
	.loc	2 296 24 is_stmt 1              @ ../I2C/I2C_Control.c:296:24
	ldr	r1, __arm_cp.2_11
	movs	r0, #1
	strb	r0, [r1]
	.loc	2 297 13                        @ ../I2C/I2C_Control.c:297:13
	ldr	r0, __arm_cp.2_1
	adds	r1, r0, #4
	ldr	r0, __arm_cp.2_12
	str	r0, [sp, #4]                    @ 4-byte Spill
	movs	r2, #16
	str	r2, [sp, #8]                    @ 4-byte Spill
	bl	__aeabi_memcpy
	ldr	r1, [sp, #4]                    @ 4-byte Reload
	ldr	r2, [sp, #8]                    @ 4-byte Reload
	.loc	2 298 13                        @ ../I2C/I2C_Control.c:298:13
	ldr	r0, __arm_cp.2_13
	adds	r0, #224
	bl	__aeabi_memcpy
	.loc	2 299 32                        @ ../I2C/I2C_Control.c:299:32
	ldr	r1, __arm_cp.2_10
	movs	r0, #0
	strb	r0, [r1]
	.loc	2 300 9                         @ ../I2C/I2C_Control.c:300:9
	b	.LBB2_58
.Ltmp79:
.LBB2_57:
	.loc	2 305 32                        @ ../I2C/I2C_Control.c:305:32
	ldr	r1, __arm_cp.2_10
	movs	r0, #0
	strb	r0, [r1]
	b	.LBB2_58
.Ltmp80:
.LBB2_58:
	.loc	2 0 32 is_stmt 0                @ ../I2C/I2C_Control.c:0:32
	b	.LBB2_59
.LBB2_59:
	b	.LBB2_60
.LBB2_60:
	b	.LBB2_61
.LBB2_61:
	b	.LBB2_62
.LBB2_62:
	b	.LBB2_63
.LBB2_63:
	b	.LBB2_64
.LBB2_64:
	b	.LBB2_65
.LBB2_65:
	b	.LBB2_66
.LBB2_66:
	b	.LBB2_67
.LBB2_67:
	.loc	2 308 23 is_stmt 1              @ ../I2C/I2C_Control.c:308:23
	ldr	r1, __arm_cp.2_0
	movs	r0, #0
	strh	r0, [r1]
	.loc	2 309 9                         @ ../I2C/I2C_Control.c:309:9
	ldr	r0, [sp, #52]
	ldr	r0, [r0]
	movs	r1, #12
	orrs	r0, r1
	movs	r1, #48
	bics	r0, r1
	ldr	r1, [sp, #52]
	str	r0, [r1]
	.loc	2 310 5                         @ ../I2C/I2C_Control.c:310:5
	b	.LBB2_75
.Ltmp81:
.LBB2_68:
	.loc	2 313 13                        @ ../I2C/I2C_Control.c:313:13
	ldr	r0, [sp, #48]
.Ltmp82:
	.loc	2 313 13 is_stmt 0              @ ../I2C/I2C_Control.c:313:13
	cmp	r0, #104
	bne	.LBB2_70
	b	.LBB2_69
.LBB2_69:
.Ltmp83:
	.loc	2 315 13 is_stmt 1              @ ../I2C/I2C_Control.c:315:13
	ldr	r0, [sp, #52]
	ldr	r0, [r0]
	movs	r1, #12
	orrs	r0, r1
	movs	r1, #48
	bics	r0, r1
	ldr	r1, [sp, #52]
	str	r0, [r1]
	.loc	2 316 9                         @ ../I2C/I2C_Control.c:316:9
	b	.LBB2_74
.Ltmp84:
.LBB2_70:
	.loc	2 317 18                        @ ../I2C/I2C_Control.c:317:18
	ldr	r0, [sp, #48]
.Ltmp85:
	.loc	2 317 18 is_stmt 0              @ ../I2C/I2C_Control.c:317:18
	cmp	r0, #176
	bne	.LBB2_72
	b	.LBB2_71
.LBB2_71:
.Ltmp86:
	.loc	2 319 13 is_stmt 1              @ ../I2C/I2C_Control.c:319:13
	ldr	r0, [sp, #52]
	ldr	r0, [r0]
	movs	r1, #12
	orrs	r0, r1
	movs	r1, #48
	bics	r0, r1
	ldr	r1, [sp, #52]
	str	r0, [r1]
	.loc	2 320 9                         @ ../I2C/I2C_Control.c:320:9
	b	.LBB2_73
.Ltmp87:
.LBB2_72:
	.loc	2 323 13                        @ ../I2C/I2C_Control.c:323:13
	ldr	r0, [sp, #52]
	ldr	r0, [r0]
	movs	r1, #24
	orrs	r0, r1
	movs	r1, #36
	bics	r0, r1
	ldr	r1, [sp, #52]
	str	r0, [r1]
	.loc	2 324 13                        @ ../I2C/I2C_Control.c:324:13
	ldr	r0, [sp, #52]
	ldr	r0, [r0]
	movs	r1, #8
	orrs	r0, r1
	movs	r1, #52
	bics	r0, r1
	ldr	r1, [sp, #52]
	str	r0, [r1]
	b	.LBB2_73
.Ltmp88:
.LBB2_73:
	.loc	2 0 13 is_stmt 0                @ ../I2C/I2C_Control.c:0:13
	b	.LBB2_74
.LBB2_74:
	b	.LBB2_75
.LBB2_75:
	b	.LBB2_76
.LBB2_76:
	b	.LBB2_77
.LBB2_77:
	b	.LBB2_78
.LBB2_78:
	b	.LBB2_79
.LBB2_79:
	b	.LBB2_80
.LBB2_80:
	b	.LBB2_81
.LBB2_81:
	.loc	2 327 1 epilogue_begin is_stmt 1 @ ../I2C/I2C_Control.c:327:1
	add	sp, #56
	pop	{r4, r5, r7, pc}
.Ltmp89:
	.p2align	2
@ %bb.82:
	.loc	2 0 1 is_stmt 0                 @ ../I2C/I2C_Control.c:0:1
__arm_cp.2_0:
	.long	u16SlvDataLen
.Lcpi_end11:
	.size	__arm_cp.2_0, .Lcpi_end11-__arm_cp.2_0
__arm_cp.2_1:
	.long	au8SlvRxData
.Lcpi_end12:
	.size	__arm_cp.2_1, .Lcpi_end12-__arm_cp.2_1
__arm_cp.2_2:
	.long	CMD_ISP
.Lcpi_end13:
	.size	__arm_cp.2_2, .Lcpi_end13-__arm_cp.2_2
__arm_cp.2_3:
	.long	1414090837                      @ 0x54495055
.Lcpi_end14:
	.size	__arm_cp.2_3, .Lcpi_end14-__arm_cp.2_3
__arm_cp.2_4:
	.long	1145262165                      @ 0x44435055
.Lcpi_end15:
	.size	__arm_cp.2_4, .Lcpi_end15-__arm_cp.2_4
__arm_cp.2_5:
	.long	1128552275                      @ 0x43445753
.Lcpi_end16:
	.size	__arm_cp.2_5, .Lcpi_end16-__arm_cp.2_5
__arm_cp.2_6:
	.long	1094930517                      @ 0x41435055
.Lcpi_end17:
	.size	__arm_cp.2_6, .Lcpi_end17-__arm_cp.2_6
__arm_cp.2_7:
	.long	1179471957                      @ 0x464d5055
.Lcpi_end18:
	.size	__arm_cp.2_7, .Lcpi_end18-__arm_cp.2_7
__arm_cp.2_8:
	.long	1414287445                      @ 0x544c5055
.Lcpi_end19:
	.size	__arm_cp.2_8, .Lcpi_end19-__arm_cp.2_8
__arm_cp.2_9:
	.long	1314082901                      @ 0x4e535055
.Lcpi_end20:
	.size	__arm_cp.2_9, .Lcpi_end20-__arm_cp.2_9
__arm_cp.2_10:
	.long	u8ReportEEPROMFlag
.Lcpi_end21:
	.size	__arm_cp.2_10, .Lcpi_end21-__arm_cp.2_10
__arm_cp.2_11:
	.long	u8UPSNFlag
.Lcpi_end22:
	.size	__arm_cp.2_11, .Lcpi_end22-__arm_cp.2_11
__arm_cp.2_12:
	.long	g_au8SerialNumber
.Lcpi_end23:
	.size	__arm_cp.2_12, .Lcpi_end23-__arm_cp.2_12
__arm_cp.2_13:
	.long	eeprom_ram
.Lcpi_end24:
	.size	__arm_cp.2_13, .Lcpi_end24-__arm_cp.2_13
__arm_cp.2_14:
	.long	u8UPLTFlag
.Lcpi_end25:
	.size	__arm_cp.2_14, .Lcpi_end25-__arm_cp.2_14
__arm_cp.2_15:
	.long	g_au8LotID
.Lcpi_end26:
	.size	__arm_cp.2_15, .Lcpi_end26-__arm_cp.2_15
__arm_cp.2_16:
	.long	u8UPMFFlag
.Lcpi_end27:
	.size	__arm_cp.2_16, .Lcpi_end27-__arm_cp.2_16
__arm_cp.2_17:
	.long	g_au8MFGDate
.Lcpi_end28:
	.size	__arm_cp.2_17, .Lcpi_end28-__arm_cp.2_17
__arm_cp.2_18:
	.long	u8UPCAFlag
.Lcpi_end29:
	.size	__arm_cp.2_18, .Lcpi_end29-__arm_cp.2_18
__arm_cp.2_19:
	.long	g_CalibData
.Lcpi_end30:
	.size	__arm_cp.2_19, .Lcpi_end30-__arm_cp.2_19
__arm_cp.2_20:
	.long	u8UPDCFlag
.Lcpi_end31:
	.size	__arm_cp.2_20, .Lcpi_end31-__arm_cp.2_20
__arm_cp.2_21:
	.long	g_AppConfig
.Lcpi_end32:
	.size	__arm_cp.2_21, .Lcpi_end32-__arm_cp.2_21
__arm_cp.2_22:
	.long	u8UPCDFlag
.Lcpi_end33:
	.size	__arm_cp.2_22, .Lcpi_end33-__arm_cp.2_22
__arm_cp.2_23:
	.long	u8UPITFlag
.Lcpi_end34:
	.size	__arm_cp.2_23, .Lcpi_end34-__arm_cp.2_23
__arm_cp.2_24:
	.long	u8UpdateISPFlag
.Lcpi_end35:
	.size	__arm_cp.2_24, .Lcpi_end35-__arm_cp.2_24
__arm_cp.2_25:
	.long	u8EVEN_INDEX_FLAG
.Lcpi_end36:
	.size	__arm_cp.2_25, .Lcpi_end36-__arm_cp.2_25
__arm_cp.2_26:
	.long	u8RxPtr
.Lcpi_end37:
	.size	__arm_cp.2_26, .Lcpi_end37-__arm_cp.2_26
.Lfunc_end2:
	.size	I2C_SlaveTRx, .Lfunc_end2-I2C_SlaveTRx
	.cfi_endproc
	.cantunwind
	.fnend
                                        @ -- End function
	.section	.text.SYS_UnlockReg,"ax",%progbits
	.p2align	2                               @ -- Begin function SYS_UnlockReg
	.type	SYS_UnlockReg,%function
	.code	16                              @ @SYS_UnlockReg
	.thumb_func
SYS_UnlockReg:
.Lfunc_begin3:
	.fnstart
	.cfi_startproc
@ %bb.0:
	.file	9 "C:\\Users\\tester\\Desktop\\M251 dual eeprom\\SampleCode\\StdDriver\\INA3221_CABLE\\KEIL" "../../../../Library/StdDriver/inc\\sys.h"
	.loc	9 1314 5 prologue_end is_stmt 1 @ ../../../../Library/StdDriver/inc\sys.h:1314:5
	b	.LBB3_1
.LBB3_1:                                @ =>This Inner Loop Header: Depth=1
	.loc	9 0 5 is_stmt 0                 @ ../../../../Library/StdDriver/inc\sys.h:0:5
	ldr	r1, __arm_cp.3_0
	movs	r0, #89
.Ltmp90:
	.loc	9 1316 22 is_stmt 1             @ ../../../../Library/StdDriver/inc\sys.h:1316:22
	str	r0, [r1]
	movs	r0, #22
	.loc	9 1317 22                       @ ../../../../Library/StdDriver/inc\sys.h:1317:22
	str	r0, [r1]
	movs	r0, #136
	.loc	9 1318 22                       @ ../../../../Library/StdDriver/inc\sys.h:1318:22
	str	r0, [r1]
	.loc	9 1319 5                        @ ../../../../Library/StdDriver/inc\sys.h:1319:5
	b	.LBB3_2
.Ltmp91:
.LBB3_2:                                @   in Loop: Header=BB3_1 Depth=1
	.loc	9 0 5 is_stmt 0                 @ ../../../../Library/StdDriver/inc\sys.h:0:5
	ldr	r0, __arm_cp.3_0
	.loc	9 1319 19                       @ ../../../../Library/StdDriver/inc\sys.h:1319:19
	ldr	r0, [r0]
.Ltmp92:
	.loc	9 1319 5                        @ ../../../../Library/StdDriver/inc\sys.h:1319:5
	cmp	r0, #0
	beq	.LBB3_1
	b	.LBB3_3
.Ltmp93:
.LBB3_3:
	.loc	9 1320 1 is_stmt 1              @ ../../../../Library/StdDriver/inc\sys.h:1320:1
	bx	lr
.Ltmp94:
	.p2align	2
@ %bb.4:
	.loc	9 0 1 is_stmt 0                 @ ../../../../Library/StdDriver/inc\sys.h:0:1
__arm_cp.3_0:
	.long	1073742080                      @ 0x40000100
.Lcpi_end38:
	.size	__arm_cp.3_0, .Lcpi_end38-__arm_cp.3_0
.Lfunc_end3:
	.size	SYS_UnlockReg, .Lfunc_end3-SYS_UnlockReg
	.cfi_endproc
	.cantunwind
	.fnend
                                        @ -- End function
	.section	.text.__NVIC_EnableIRQ,"ax",%progbits
	.p2align	2                               @ -- Begin function __NVIC_EnableIRQ
	.type	__NVIC_EnableIRQ,%function
	.code	16                              @ @__NVIC_EnableIRQ
	.thumb_func
__NVIC_EnableIRQ:
.Lfunc_begin4:
	.loc	8 1481 0 is_stmt 1              @ ../../../../Library/CMSIS/Core/Include\core_cm23.h:1481:0
	.fnstart
	.cfi_startproc
@ %bb.0:
	.pad	#4
	sub	sp, #4
	.cfi_def_cfa_offset 4
	mov	r1, r0
                                        @ kill: def $r0 killed $r1
	mov	r0, sp
	strb	r1, [r0]
.Ltmp95:
	.loc	8 1482 17 prologue_end          @ ../../../../Library/CMSIS/Core/Include\core_cm23.h:1482:17
	movs	r1, #0
	ldrsb	r0, [r0, r1]
.Ltmp96:
	.loc	8 1482 7 is_stmt 0              @ ../../../../Library/CMSIS/Core/Include\core_cm23.h:1482:7
	cmp	r0, #0
	bmi	.LBB4_2
	b	.LBB4_1
.LBB4_1:
.Ltmp97:
	.loc	8 1484 5 is_stmt 1              @ ../../../../Library/CMSIS/Core/Include\core_cm23.h:1484:5
	@APP
	@NO_APP
	.loc	8 1485 75                       @ ../../../../Library/CMSIS/Core/Include\core_cm23.h:1485:75
	movs	r1, #0
	mov	r0, sp
	ldrsb	r1, [r0, r1]
	movs	r0, #31
	.loc	8 1485 81 is_stmt 0             @ ../../../../Library/CMSIS/Core/Include\core_cm23.h:1485:81
	mov	r2, r1
	ands	r2, r0
	movs	r0, #1
	.loc	8 1485 60                       @ ../../../../Library/CMSIS/Core/Include\core_cm23.h:1485:60
	lsls	r0, r2
	.loc	8 1485 5                        @ ../../../../Library/CMSIS/Core/Include\core_cm23.h:1485:5
	lsrs	r1, r1, #5
	lsls	r1, r1, #2
	ldr	r2, __arm_cp.4_0
	.loc	8 1485 43                       @ ../../../../Library/CMSIS/Core/Include\core_cm23.h:1485:43
	str	r0, [r1, r2]
	.loc	8 1486 5 is_stmt 1              @ ../../../../Library/CMSIS/Core/Include\core_cm23.h:1486:5
	@APP
	@NO_APP
	.loc	8 1487 3                        @ ../../../../Library/CMSIS/Core/Include\core_cm23.h:1487:3
	b	.LBB4_2
.Ltmp98:
.LBB4_2:
	.loc	8 1488 1 epilogue_begin         @ ../../../../Library/CMSIS/Core/Include\core_cm23.h:1488:1
	add	sp, #4
	bx	lr
.Ltmp99:
	.p2align	2
@ %bb.3:
	.loc	8 0 1 is_stmt 0                 @ ../../../../Library/CMSIS/Core/Include\core_cm23.h:0:1
__arm_cp.4_0:
	.long	3758153984                      @ 0xe000e100
.Lcpi_end39:
	.size	__arm_cp.4_0, .Lcpi_end39-__arm_cp.4_0
.Lfunc_end4:
	.size	__NVIC_EnableIRQ, .Lfunc_end4-__NVIC_EnableIRQ
	.cfi_endproc
	.cantunwind
	.fnend
                                        @ -- End function
	.section	.text.__NVIC_SetPriority,"ax",%progbits
	.p2align	2                               @ -- Begin function __NVIC_SetPriority
	.type	__NVIC_SetPriority,%function
	.code	16                              @ @__NVIC_SetPriority
	.thumb_func
__NVIC_SetPriority:
.Lfunc_begin5:
	.loc	8 1678 0 is_stmt 1              @ ../../../../Library/CMSIS/Core/Include\core_cm23.h:1678:0
	.fnstart
	.cfi_startproc
@ %bb.0:
	.save	{r4, r5, r6, lr}
	push	{r4, r5, r6, lr}
	.cfi_def_cfa_offset 16
	.cfi_offset lr, -4
	.cfi_offset r6, -8
	.cfi_offset r5, -12
	.cfi_offset r4, -16
	.pad	#8
	sub	sp, #8
	.cfi_def_cfa_offset 24
	mov	r2, r0
                                        @ kill: def $r0 killed $r2
	add	r0, sp, #4
	strb	r2, [r0]
	str	r1, [sp]
.Ltmp100:
	.loc	8 1679 17 prologue_end          @ ../../../../Library/CMSIS/Core/Include\core_cm23.h:1679:17
	movs	r1, #0
	ldrsb	r0, [r0, r1]
.Ltmp101:
	.loc	8 1679 7 is_stmt 0              @ ../../../../Library/CMSIS/Core/Include\core_cm23.h:1679:7
	cmp	r0, #0
	bmi	.LBB5_2
	b	.LBB5_1
.LBB5_1:
.Ltmp102:
	.loc	8 1681 55 is_stmt 1             @ ../../../../Library/CMSIS/Core/Include\core_cm23.h:1681:55
	movs	r4, #0
	add	r1, sp, #4
	ldrsb	r0, [r1, r4]
	movs	r2, #3
	mvns	r3, r2
	.loc	8 1681 45 is_stmt 0             @ ../../../../Library/CMSIS/Core/Include\core_cm23.h:1681:45
	ands	r0, r3
	ldr	r2, __arm_cp.5_1
	ldr	r0, [r0, r2]
	.loc	8 1681 85                       @ ../../../../Library/CMSIS/Core/Include\core_cm23.h:1681:85
	ldrsb	r1, [r1, r4]
	lsls	r4, r1, #30
	lsrs	r5, r4, #27
	movs	r4, #255
	.loc	8 1681 82                       @ ../../../../Library/CMSIS/Core/Include\core_cm23.h:1681:82
	lsls	r4, r5
	.loc	8 1681 71                       @ ../../../../Library/CMSIS/Core/Include\core_cm23.h:1681:71
	bics	r0, r4
	.loc	8 1682 11 is_stmt 1             @ ../../../../Library/CMSIS/Core/Include\core_cm23.h:1682:11
	ldr	r4, [sp]
	.loc	8 1682 20 is_stmt 0             @ ../../../../Library/CMSIS/Core/Include\core_cm23.h:1682:20
	lsls	r4, r4, #6
	.loc	8 1682 48                       @ ../../../../Library/CMSIS/Core/Include\core_cm23.h:1682:48
	uxtb	r4, r4
	.loc	8 1682 68                       @ ../../../../Library/CMSIS/Core/Include\core_cm23.h:1682:68
	lsls	r4, r5
	.loc	8 1681 104 is_stmt 1            @ ../../../../Library/CMSIS/Core/Include\core_cm23.h:1681:104
	orrs	r0, r4
	.loc	8 1681 5 is_stmt 0              @ ../../../../Library/CMSIS/Core/Include\core_cm23.h:1681:5
	ands	r1, r3
	.loc	8 1681 31                       @ ../../../../Library/CMSIS/Core/Include\core_cm23.h:1681:31
	str	r0, [r1, r2]
	.loc	8 1683 3 is_stmt 1              @ ../../../../Library/CMSIS/Core/Include\core_cm23.h:1683:3
	b	.LBB5_3
.Ltmp103:
.LBB5_2:
	.loc	8 0 3 is_stmt 0                 @ ../../../../Library/CMSIS/Core/Include\core_cm23.h:0:3
	add	r1, sp, #4
.Ltmp104:
	.loc	8 1686 55 is_stmt 1             @ ../../../../Library/CMSIS/Core/Include\core_cm23.h:1686:55
	ldrb	r0, [r1]
	movs	r4, #15
	ands	r0, r4
	subs	r0, #8
	movs	r2, #3
	mvns	r3, r2
	.loc	8 1686 45 is_stmt 0             @ ../../../../Library/CMSIS/Core/Include\core_cm23.h:1686:45
	ands	r0, r3
	ldr	r2, __arm_cp.5_0
	ldr	r0, [r0, r2]
	.loc	8 1686 85                       @ ../../../../Library/CMSIS/Core/Include\core_cm23.h:1686:85
	movs	r5, #0
	ldrsb	r1, [r1, r5]
	lsls	r5, r1, #30
	lsrs	r6, r5, #27
	movs	r5, #255
	.loc	8 1686 82                       @ ../../../../Library/CMSIS/Core/Include\core_cm23.h:1686:82
	lsls	r5, r6
	.loc	8 1686 71                       @ ../../../../Library/CMSIS/Core/Include\core_cm23.h:1686:71
	bics	r0, r5
	.loc	8 1687 11 is_stmt 1             @ ../../../../Library/CMSIS/Core/Include\core_cm23.h:1687:11
	ldr	r5, [sp]
	.loc	8 1687 20 is_stmt 0             @ ../../../../Library/CMSIS/Core/Include\core_cm23.h:1687:20
	lsls	r5, r5, #6
	.loc	8 1687 48                       @ ../../../../Library/CMSIS/Core/Include\core_cm23.h:1687:48
	uxtb	r5, r5
	.loc	8 1687 68                       @ ../../../../Library/CMSIS/Core/Include\core_cm23.h:1687:68
	lsls	r5, r6
	.loc	8 1686 104 is_stmt 1            @ ../../../../Library/CMSIS/Core/Include\core_cm23.h:1686:104
	orrs	r0, r5
	.loc	8 1686 15 is_stmt 0             @ ../../../../Library/CMSIS/Core/Include\core_cm23.h:1686:15
	ands	r1, r4
	subs	r1, #8
	.loc	8 1686 5                        @ ../../../../Library/CMSIS/Core/Include\core_cm23.h:1686:5
	ands	r1, r3
	.loc	8 1686 31                       @ ../../../../Library/CMSIS/Core/Include\core_cm23.h:1686:31
	str	r0, [r1, r2]
	b	.LBB5_3
.Ltmp105:
.LBB5_3:
	.loc	8 1689 1 epilogue_begin is_stmt 1 @ ../../../../Library/CMSIS/Core/Include\core_cm23.h:1689:1
	add	sp, #8
	pop	{r4, r5, r6, pc}
.Ltmp106:
	.p2align	2
@ %bb.4:
	.loc	8 0 1 is_stmt 0                 @ ../../../../Library/CMSIS/Core/Include\core_cm23.h:0:1
__arm_cp.5_0:
	.long	3758157084                      @ 0xe000ed1c
.Lcpi_end40:
	.size	__arm_cp.5_0, .Lcpi_end40-__arm_cp.5_0
__arm_cp.5_1:
	.long	3758154752                      @ 0xe000e400
.Lcpi_end41:
	.size	__arm_cp.5_1, .Lcpi_end41-__arm_cp.5_1
.Lfunc_end5:
	.size	__NVIC_SetPriority, .Lfunc_end5-__NVIC_SetPriority
	.cfi_endproc
	.cantunwind
	.fnend
                                        @ -- End function
	.section	.text.SYS_LockReg,"ax",%progbits
	.p2align	2                               @ -- Begin function SYS_LockReg
	.type	SYS_LockReg,%function
	.code	16                              @ @SYS_LockReg
	.thumb_func
SYS_LockReg:
.Lfunc_begin6:
	.loc	9 1328 0 is_stmt 1              @ ../../../../Library/StdDriver/inc\sys.h:1328:0
	.fnstart
	.cfi_startproc
@ %bb.0:
	ldr	r1, __arm_cp.6_0
	movs	r0, #0
.Ltmp107:
	.loc	9 1329 18 prologue_end          @ ../../../../Library/StdDriver/inc\sys.h:1329:18
	str	r0, [r1]
	.loc	9 1330 1                        @ ../../../../Library/StdDriver/inc\sys.h:1330:1
	bx	lr
.Ltmp108:
	.p2align	2
@ %bb.1:
	.loc	9 0 1 is_stmt 0                 @ ../../../../Library/StdDriver/inc\sys.h:0:1
__arm_cp.6_0:
	.long	1073742080                      @ 0x40000100
.Lcpi_end42:
	.size	__arm_cp.6_0, .Lcpi_end42-__arm_cp.6_0
.Lfunc_end6:
	.size	SYS_LockReg, .Lfunc_end6-SYS_LockReg
	.cfi_endproc
	.cantunwind
	.fnend
                                        @ -- End function
	.hidden	u8RxPtr                         @ @u8RxPtr
	.type	u8RxPtr,%object
	.section	.bss.u8RxPtr,"aw",%nobits
	.globl	u8RxPtr
u8RxPtr:
	.byte	0                               @ 0x0
	.size	u8RxPtr, 1

	.hidden	u8ReportEEPROMFlag              @ @u8ReportEEPROMFlag
	.type	u8ReportEEPROMFlag,%object
	.section	.bss.u8ReportEEPROMFlag,"aw",%nobits
	.globl	u8ReportEEPROMFlag
u8ReportEEPROMFlag:
	.byte	0                               @ 0x0
	.size	u8ReportEEPROMFlag, 1

	.hidden	u8UpdateFRUDataFlag             @ @u8UpdateFRUDataFlag
	.type	u8UpdateFRUDataFlag,%object
	.section	.bss.u8UpdateFRUDataFlag,"aw",%nobits
	.globl	u8UpdateFRUDataFlag
u8UpdateFRUDataFlag:
	.byte	0                               @ 0x0
	.size	u8UpdateFRUDataFlag, 1

	.hidden	u32UpdateTargetAddress          @ @u32UpdateTargetAddress
	.type	u32UpdateTargetAddress,%object
	.section	.bss.u32UpdateTargetAddress,"aw",%nobits
	.globl	u32UpdateTargetAddress
	.p2align	2, 0x0
u32UpdateTargetAddress:
	.long	0                               @ 0x0
	.size	u32UpdateTargetAddress, 4

	.hidden	u8UpdateTargetOffset            @ @u8UpdateTargetOffset
	.type	u8UpdateTargetOffset,%object
	.section	.bss.u8UpdateTargetOffset,"aw",%nobits
	.globl	u8UpdateTargetOffset
u8UpdateTargetOffset:
	.byte	0                               @ 0x0
	.size	u8UpdateTargetOffset, 1

	.hidden	u8UpdateTargetSize              @ @u8UpdateTargetSize
	.type	u8UpdateTargetSize,%object
	.section	.bss.u8UpdateTargetSize,"aw",%nobits
	.globl	u8UpdateTargetSize
u8UpdateTargetSize:
	.byte	0                               @ 0x0
	.size	u8UpdateTargetSize, 1

	.hidden	u8UpdateISPFlag                 @ @u8UpdateISPFlag
	.type	u8UpdateISPFlag,%object
	.section	.bss.u8UpdateISPFlag,"aw",%nobits
	.globl	u8UpdateISPFlag
u8UpdateISPFlag:
	.byte	0                               @ 0x0
	.size	u8UpdateISPFlag, 1

	.hidden	u8UPITFlag                      @ @u8UPITFlag
	.type	u8UPITFlag,%object
	.section	.bss.u8UPITFlag,"aw",%nobits
	.globl	u8UPITFlag
u8UPITFlag:
	.byte	0                               @ 0x0
	.size	u8UPITFlag, 1

	.hidden	u8UPCDFlag                      @ @u8UPCDFlag
	.type	u8UPCDFlag,%object
	.section	.bss.u8UPCDFlag,"aw",%nobits
	.globl	u8UPCDFlag
u8UPCDFlag:
	.byte	0                               @ 0x0
	.size	u8UPCDFlag, 1

	.hidden	u8UPDCFlag                      @ @u8UPDCFlag
	.type	u8UPDCFlag,%object
	.section	.bss.u8UPDCFlag,"aw",%nobits
	.globl	u8UPDCFlag
u8UPDCFlag:
	.byte	0                               @ 0x0
	.size	u8UPDCFlag, 1

	.hidden	u8UPCAFlag                      @ @u8UPCAFlag
	.type	u8UPCAFlag,%object
	.section	.bss.u8UPCAFlag,"aw",%nobits
	.globl	u8UPCAFlag
u8UPCAFlag:
	.byte	0                               @ 0x0
	.size	u8UPCAFlag, 1

	.hidden	u8UPMFFlag                      @ @u8UPMFFlag
	.type	u8UPMFFlag,%object
	.section	.bss.u8UPMFFlag,"aw",%nobits
	.globl	u8UPMFFlag
u8UPMFFlag:
	.byte	0                               @ 0x0
	.size	u8UPMFFlag, 1

	.hidden	u8UPLTFlag                      @ @u8UPLTFlag
	.type	u8UPLTFlag,%object
	.section	.bss.u8UPLTFlag,"aw",%nobits
	.globl	u8UPLTFlag
u8UPLTFlag:
	.byte	0                               @ 0x0
	.size	u8UPLTFlag, 1

	.hidden	u8UPSNFlag                      @ @u8UPSNFlag
	.type	u8UPSNFlag,%object
	.section	.bss.u8UPSNFlag,"aw",%nobits
	.globl	u8UPSNFlag
u8UPSNFlag:
	.byte	0                               @ 0x0
	.size	u8UPSNFlag, 1

	.hidden	u8RxLen                         @ @u8RxLen
	.type	u8RxLen,%object
	.section	.bss.u8RxLen,"aw",%nobits
	.globl	u8RxLen
u8RxLen:
	.byte	0                               @ 0x0
	.size	u8RxLen, 1

	.hidden	eeprom_ram                      @ @eeprom_ram
	.type	eeprom_ram,%object
	.section	.bss.eeprom_ram,"aw",%nobits
	.globl	eeprom_ram
eeprom_ram:
	.zero	256
	.size	eeprom_ram, 256

	.hidden	u8EVEN_INDEX_FLAG               @ @u8EVEN_INDEX_FLAG
	.type	u8EVEN_INDEX_FLAG,%object
	.section	.bss.u8EVEN_INDEX_FLAG,"aw",%nobits
	.globl	u8EVEN_INDEX_FLAG
u8EVEN_INDEX_FLAG:
	.byte	0                               @ 0x0
	.size	u8EVEN_INDEX_FLAG, 1

	.hidden	CMD_ISP                         @ @CMD_ISP
	.type	CMD_ISP,%object
	.section	.rodata.CMD_ISP,"a",%progbits
	.globl	CMD_ISP
CMD_ISP:
	.ascii	"N\005JMPLD"
	.size	CMD_ISP, 7

	.hidden	CMD_UPIT                        @ @CMD_UPIT
	.type	CMD_UPIT,%object
	.section	.rodata.CMD_UPIT,"a",%progbits
	.globl	CMD_UPIT
CMD_UPIT:
	.ascii	"UPIT"
	.size	CMD_UPIT, 4

	.hidden	CMD_UPCD                        @ @CMD_UPCD
	.type	CMD_UPCD,%object
	.section	.rodata.CMD_UPCD,"a",%progbits
	.globl	CMD_UPCD
CMD_UPCD:
	.ascii	"UPCD"
	.size	CMD_UPCD, 4

	.hidden	CMD_SWDC                        @ @CMD_SWDC
	.type	CMD_SWDC,%object
	.section	.rodata.CMD_SWDC,"a",%progbits
	.globl	CMD_SWDC
CMD_SWDC:
	.ascii	"SWDC"
	.size	CMD_SWDC, 4

	.hidden	CMD_UPCA                        @ @CMD_UPCA
	.type	CMD_UPCA,%object
	.section	.rodata.CMD_UPCA,"a",%progbits
	.globl	CMD_UPCA
CMD_UPCA:
	.ascii	"UPCA"
	.size	CMD_UPCA, 4

	.hidden	CMD_UPMF                        @ @CMD_UPMF
	.type	CMD_UPMF,%object
	.section	.rodata.CMD_UPMF,"a",%progbits
	.globl	CMD_UPMF
CMD_UPMF:
	.ascii	"UPMF"
	.size	CMD_UPMF, 4

	.hidden	CMD_UPLT                        @ @CMD_UPLT
	.type	CMD_UPLT,%object
	.section	.rodata.CMD_UPLT,"a",%progbits
	.globl	CMD_UPLT
CMD_UPLT:
	.ascii	"UPLT"
	.size	CMD_UPLT, 4

	.hidden	CMD_UPSN                        @ @CMD_UPSN
	.type	CMD_UPSN,%object
	.section	.rodata.CMD_UPSN,"a",%progbits
	.globl	CMD_UPSN
CMD_UPSN:
	.ascii	"UPSN"
	.size	CMD_UPSN, 4

	.hidden	Data_Get_Power_Info             @ @Data_Get_Power_Info
	.type	Data_Get_Power_Info,%object
	.section	.data.Data_Get_Power_Info,"aw",%progbits
	.globl	Data_Get_Power_Info
Data_Get_Power_Info:
	.byte	15                              @ 0xf
	.byte	7                               @ 0x7
	.byte	31                              @ 0x1f
	.zero	13
	.size	Data_Get_Power_Info, 16

	.type	s_I2C1HandlerFn,%object         @ @s_I2C1HandlerFn
	.section	.bss.s_I2C1HandlerFn,"aw",%nobits
	.p2align	2, 0x0
s_I2C1HandlerFn:
	.long	0
	.size	s_I2C1HandlerFn, 4

	.hidden	u16SlvDataLen                   @ @u16SlvDataLen
	.type	u16SlvDataLen,%object
	.section	.bss.u16SlvDataLen,"aw",%nobits
	.globl	u16SlvDataLen
	.p2align	1, 0x0
u16SlvDataLen:
	.short	0                               @ 0x0
	.size	u16SlvDataLen, 2

	.hidden	au8SlvRxData                    @ @au8SlvRxData
	.type	au8SlvRxData,%object
	.section	.bss.au8SlvRxData,"aw",%nobits
	.globl	au8SlvRxData
au8SlvRxData:
	.zero	256
	.size	au8SlvRxData, 256

	.hidden	au8UpdateData                   @ @au8UpdateData
	.type	au8UpdateData,%object
	.section	.bss.au8UpdateData,"aw",%nobits
	.globl	au8UpdateData
au8UpdateData:
	.zero	256
	.size	au8UpdateData, 256

	.section	".note.GNU-stack","",%progbits
	.eabi_attribute	30, 6	@ Tag_ABI_optimization_goals
	.ARM_attribute	16, 1	@ Tag_AV_eba