	.text
	.syntax unified
	.eabi_attribute	67, "2.09"	@ Tag_conformance
	.cpu	cortex-m23
	.eabi_attribute	6, 16	@ Tag_CPU_arch
	.eabi_attribute	7, 77	@ Tag_CPU_arch_profile
	.eabi_attribute	8, 0	@ Tag_ARM_ISA_use
	.eabi_attribute	9, 3	@ Tag_THUMB_ISA_use
	.eabi_attribute	34, 0	@ Tag_CPU_unaligned_access
	.eabi_attribute	17, 1	@ Tag_ABI_PCS_GOT_use
	.eabi_attribute	20, 2	@ Tag_ABI_FP_denormal
	.eabi_attribute	21, 0	@ Tag_ABI_FP_exceptions
	.eabi_attribute	23, 1	@ Tag_ABI_FP_number_model
	.eabi_attribute	24, 1	@ Tag_ABI_align_needed
	.eabi_attribute	25, 1	@ Tag_ABI_align_preserved
	.eabi_attribute	38, 1	@ Tag_ABI_FP_16bit_format
	.eabi_attribute	18, 2	@ Tag_ABI_PCS_wchar_t
	.eabi_attribute	26, 1	@ Tag_ABI_enum_size
	.eabi_attribute	14, 0	@ Tag_ABI_PCS_R9_use
	.file	"main.c"
	.file	1 "C:\\Users\\tester" "AppData\\Local\\Keil_v5\\ARM\\ARMCLANG\\bin\\..\\include\\stdint.h"
	.file	2 "C:\\Users\\tester\\Desktop\\M251 dual eeprom\\SampleCode\\StdDriver\\INA3221_CABLE\\KEIL" "../main.c"
	.file	3 "C:\\Users\\tester\\Desktop\\M251 dual eeprom\\SampleCode\\StdDriver\\INA3221_CABLE\\KEIL" "../EEPROM\\eeprom_sim.h"
	.file	4 "C:\\Users\\tester\\Desktop\\M251 dual eeprom\\SampleCode\\StdDriver\\INA3221_CABLE\\KEIL" "..\\i2c_eeprom_sim.h"
	.file	5 "C:\\Users\\tester\\Desktop\\M251 dual eeprom\\SampleCode\\StdDriver\\INA3221_CABLE\\KEIL" "../../../../Library/Device/Nuvoton/M251/Include\\M251.h"
	.file	6 "C:\\Users\\tester\\Desktop\\M251 dual eeprom\\SampleCode\\StdDriver\\INA3221_CABLE\\KEIL" "../../../../Library/StdDriver/inc\\fmc.h"
	.file	7 "C:\\Users\\tester\\Desktop\\M251 dual eeprom\\SampleCode\\StdDriver\\INA3221_CABLE\\KEIL" "../../../../Library/CMSIS/Core/Include\\core_cm23.h"
	.file	8 "C:\\Users\\tester\\Desktop\\M251 dual eeprom\\SampleCode\\StdDriver\\INA3221_CABLE\\KEIL" "../../../../Library/Device/Nuvoton/M251/Include\\gpio_reg.h"
	.file	9 "C:\\Users\\tester\\Desktop\\M251 dual eeprom\\SampleCode\\StdDriver\\INA3221_CABLE\\KEIL" "../../../../Library/Device/Nuvoton/M251/Include\\sys_reg.h"
	.file	10 "C:\\Users\\tester\\Desktop\\M251 dual eeprom\\SampleCode\\StdDriver\\INA3221_CABLE\\KEIL" "../../../../Library/Device/Nuvoton/M251/Include\\fmc_reg.h"
	.section	.text.SYS_Init,"ax",%progbits
	.hidden	SYS_Init                        @ -- Begin function SYS_Init
	.globl	SYS_Init
	.p2align	2
	.type	SYS_Init,%function
	.code	16                              @ @SYS_Init
	.thumb_func
SYS_Init:
.Lfunc_begin0:
	.loc	2 61 0                          @ ../main.c:61:0
	.fnstart
	.cfi_sections .debug_frame
	.cfi_startproc
@ %bb.0:
	.save	{r7, lr}
	push	{r7, lr}
	.cfi_def_cfa_offset 8
	.cfi_offset lr, -4
	.cfi_offset r7, -8
	movs	r0, #4
.Ltmp0:
	.loc	2 66 5 prologue_end             @ ../main.c:66:5
	bl	CLK_EnableXtalRC
	movs	r0, #16
	.loc	2 69 5                          @ ../main.c:69:5
	bl	CLK_WaitClockReady
	ldr	r0, __arm_cp.0_0
	.loc	2 72 5                          @ ../main.c:72:5
	bl	CLK_SetCoreClock
	.loc	2 75 5                          @ ../main.c:75:5
	bl	SystemCoreClockUpdate
	.loc	2 76 1 epilogue_begin           @ ../main.c:76:1
	pop	{r7, pc}
.Ltmp1:
	.p2align	2
@ %bb.1:
	.loc	2 0 1 is_stmt 0                 @ ../main.c:0:1
__arm_cp.0_0:
	.long	48000000                        @ 0x2dc6c00
.Lcpi_end0:
	.size	__arm_cp.0_0, .Lcpi_end0-__arm_cp.0_0
.Lfunc_end0:
	.size	SYS_Init, .Lfunc_end0-SYS_Init
	.cfi_endproc
	.cantunwind
	.fnend
                                        @ -- End function
	.section	.text.SysTick_Initial,"ax",%progbits
	.hidden	SysTick_Initial                 @ -- Begin function SysTick_Initial
	.globl	SysTick_Initial
	.p2align	2
	.type	SysTick_Initial,%function
	.code	16                              @ @SysTick_Initial
	.thumb_func
SysTick_Initial:
.Lfunc_begin1:
	.loc	2 79 0 is_stmt 1                @ ../main.c:79:0
	.fnstart
	.cfi_startproc
@ %bb.0:
	.save	{r7, lr}
	push	{r7, lr}
	.cfi_def_cfa_offset 8
	.cfi_offset lr, -4
	.cfi_offset r7, -8
	.pad	#8
	sub	sp, #8
	.cfi_def_cfa_offset 16
	ldr	r2, __arm_cp.1_0
	movs	r0, #4
.Ltmp2:
	.loc	2 81 19 prologue_end            @ ../main.c:81:19
	str	r0, [r2]
	ldr	r1, __arm_cp.1_1
	ldr	r0, __arm_cp.1_2
	.loc	2 84 19                         @ ../main.c:84:19
	str	r0, [r1]
	ldr	r1, __arm_cp.1_3
	movs	r0, #0
	.loc	2 87 18                         @ ../main.c:87:18
	str	r0, [r1]
	.loc	2 90 19                         @ ../main.c:90:19
	ldr	r1, [r2]
	movs	r3, #2
	str	r3, [sp, #4]                    @ 4-byte Spill
	orrs	r1, r3
	str	r1, [r2]
	mvns	r0, r0
	.loc	2 93 5                          @ ../main.c:93:5
	str	r0, [sp]                        @ 4-byte Spill
	bl	__NVIC_EnableIRQ
	ldr	r0, [sp]                        @ 4-byte Reload
	ldr	r1, [sp, #4]                    @ 4-byte Reload
	.loc	2 95 5                          @ ../main.c:95:5
	bl	__NVIC_SetPriority
	.loc	2 96 1 epilogue_begin           @ ../main.c:96:1
	add	sp, #8
	pop	{r7, pc}
.Ltmp3:
	.p2align	2
@ %bb.1:
	.loc	2 0 1 is_stmt 0                 @ ../main.c:0:1
__arm_cp.1_0:
	.long	3758153744                      @ 0xe000e010
.Lcpi_end1:
	.size	__arm_cp.1_0, .Lcpi_end1-__arm_cp.1_0
__arm_cp.1_1:
	.long	3758153748                      @ 0xe000e014
.Lcpi_end2:
	.size	__arm_cp.1_1, .Lcpi_end2-__arm_cp.1_1
__arm_cp.1_2:
	.long	48000                           @ 0xbb80
.Lcpi_end3:
	.size	__arm_cp.1_2, .Lcpi_end3-__arm_cp.1_2
__arm_cp.1_3:
	.long	3758153752                      @ 0xe000e018
.Lcpi_end4:
	.size	__arm_cp.1_3, .Lcpi_end4-__arm_cp.1_3
.Lfunc_end1:
	.size	SysTick_Initial, .Lfunc_end1-SysTick_Initial
	.cfi_endproc
	.cantunwind
	.fnend
                                        @ -- End function
	.section	.text.__NVIC_EnableIRQ,"ax",%progbits
	.p2align	2                               @ -- Begin function __NVIC_EnableIRQ
	.type	__NVIC_EnableIRQ,%function
	.code	16                              @ @__NVIC_EnableIRQ
	.thumb_func
__NVIC_EnableIRQ:
.Lfunc_begin2:
	.loc	7 1481 0 is_stmt 1              @ ../../../../Library/CMSIS/Core/Include\core_cm23.h:1481:0
	.fnstart
	.cfi_startproc
@ %bb.0:
	.pad	#4
	sub	sp, #4
	.cfi_def_cfa_offset 4
	mov	r1, r0
                                        @ kill: def $r0 killed $r1
	mov	r0, sp
	strb	r1, [r0]
.Ltmp4:
	.loc	7 1482 17 prologue_end          @ ../../../../Library/CMSIS/Core/Include\core_cm23.h:1482:17
	movs	r1, #0
	ldrsb	r0, [r0, r1]
.Ltmp5:
	.loc	7 1482 7 is_stmt 0              @ ../../../../Library/CMSIS/Core/Include\core_cm23.h:1482:7
	cmp	r0, #0
	bmi	.LBB2_2
	b	.LBB2_1
.LBB2_1:
.Ltmp6:
	.loc	7 1484 5 is_stmt 1              @ ../../../../Library/CMSIS/Core/Include\core_cm23.h:1484:5
	@APP
	@NO_APP
	.loc	7 1485 75                       @ ../../../../Library/CMSIS/Core/Include\core_cm23.h:1485:75
	movs	r1, #0
	mov	r0, sp
	ldrsb	r1, [r0, r1]
	movs	r0, #31
	.loc	7 1485 81 is_stmt 0             @ ../../../../Library/CMSIS/Core/Include\core_cm23.h:1485:81
	mov	r2, r1
	ands	r2, r0
	movs	r0, #1
	.loc	7 1485 60                       @ ../../../../Library/CMSIS/Core/Include\core_cm23.h:1485:60
	lsls	r0, r2
	.loc	7 1485 5                        @ ../../../../Library/CMSIS/Core/Include\core_cm23.h:1485:5
	lsrs	r1, r1, #5
	lsls	r1, r1, #2
	ldr	r2, __arm_cp.2_0
	.loc	7 1485 43                       @ ../../../../Library/CMSIS/Core/Include\core_cm23.h:1485:43
	str	r0, [r1, r2]
	.loc	7 1486 5 is_stmt 1              @ ../../../../Library/CMSIS/Core/Include\core_cm23.h:1486:5
	@APP
	@NO_APP
	.loc	7 1487 3                        @ ../../../../Library/CMSIS/Core/Include\core_cm23.h:1487:3
	b	.LBB2_2
.Ltmp7:
.LBB2_2:
	.loc	7 1488 1 epilogue_begin         @ ../../../../Library/CMSIS/Core/Include\core_cm23.h:1488:1
	add	sp, #4
	bx	lr
.Ltmp8:
	.p2align	2
@ %bb.3:
	.loc	7 0 1 is_stmt 0                 @ ../../../../Library/CMSIS/Core/Include\core_cm23.h:0:1
__arm_cp.2_0:
	.long	3758153984                      @ 0xe000e100
.Lcpi_end5:
	.size	__arm_cp.2_0, .Lcpi_end5-__arm_cp.2_0
.Lfunc_end2:
	.size	__NVIC_EnableIRQ, .Lfunc_end2-__NVIC_EnableIRQ
	.cfi_endproc
	.cantunwind
	.fnend
                                        @ -- End function
	.section	.text.__NVIC_SetPriority,"ax",%progbits
	.p2align	2                               @ -- Begin function __NVIC_SetPriority
	.type	__NVIC_SetPriority,%function
	.code	16                              @ @__NVIC_SetPriority
	.thumb_func
__NVIC_SetPriority:
.Lfunc_begin3:
	.loc	7 1678 0 is_stmt 1              @ ../../../../Library/CMSIS/Core/Include\core_cm23.h:1678:0
	.fnstart
	.cfi_startproc
@ %bb.0:
	.save	{r4, r5, r6, lr}
	push	{r4, r5, r6, lr}
	.cfi_def_cfa_offset 16
	.cfi_offset lr, -4
	.cfi_offset r6, -8
	.cfi_offset r5, -12
	.cfi_offset r4, -16
	.pad	#8
	sub	sp, #8
	.cfi_def_cfa_offset 24
	mov	r2, r0
                                        @ kill: def $r0 killed $r2
	add	r0, sp, #4
	strb	r2, [r0]
	str	r1, [sp]
.Ltmp9:
	.loc	7 1679 17 prologue_end          @ ../../../../Library/CMSIS/Core/Include\core_cm23.h:1679:17
	movs	r1, #0
	ldrsb	r0, [r0, r1]
.Ltmp10:
	.loc	7 1679 7 is_stmt 0              @ ../../../../Library/CMSIS/Core/Include\core_cm23.h:1679:7
	cmp	r0, #0
	bmi	.LBB3_2
	b	.LBB3_1
.LBB3_1:
.Ltmp11:
	.loc	7 1681 55 is_stmt 1             @ ../../../../Library/CMSIS/Core/Include\core_cm23.h:1681:55
	movs	r4, #0
	add	r1, sp, #4
	ldrsb	r0, [r1, r4]
	movs	r2, #3
	mvns	r3, r2
	.loc	7 1681 45 is_stmt 0             @ ../../../../Library/CMSIS/Core/Include\core_cm23.h:1681:45
	ands	r0, r3
	ldr	r2, __arm_cp.3_1
	ldr	r0, [r0, r2]
	.loc	7 1681 85                       @ ../../../../Library/CMSIS/Core/Include\core_cm23.h:1681:85
	ldrsb	r1, [r1, r4]
	lsls	r4, r1, #30
	lsrs	r5, r4, #27
	movs	r4, #255
	.loc	7 1681 82                       @ ../../../../Library/CMSIS/Core/Include\core_cm23.h:1681:82
	lsls	r4, r5
	.loc	7 1681 71                       @ ../../../../Library/CMSIS/Core/Include\core_cm23.h:1681:71
	bics	r0, r4
	.loc	7 1682 11 is_stmt 1             @ ../../../../Library/CMSIS/Core/Include\core_cm23.h:1682:11
	ldr	r4, [sp]
	.loc	7 1682 20 is_stmt 0             @ ../../../../Library/CMSIS/Core/Include\core_cm23.h:1682:20
	lsls	r4, r4, #6
	.loc	7 1682 48                       @ ../../../../Library/CMSIS/Core/Include\core_cm23.h:1682:48
	uxtb	r4, r4
	.loc	7 1682 68                       @ ../../../../Library/CMSIS/Core/Include\core_cm23.h:1682:68
	lsls	r4, r5
	.loc	7 1681 104 is_stmt 1            @ ../../../../Library/CMSIS/Core/Include\core_cm23.h:1681:104
	orrs	r0, r4
	.loc	7 1681 5 is_stmt 0              @ ../../../../Library/CMSIS/Core/Include\core_cm23.h:1681:5
	ands	r1, r3
	.loc	7 1681 31                       @ ../../../../Library/CMSIS/Core/Include\core_cm23.h:1681:31
	str	r0, [r1, r2]
	.loc	7 1683 3 is_stmt 1              @ ../../../../Library/CMSIS/Core/Include\core_cm23.h:1683:3
	b	.LBB3_3
.Ltmp12:
.LBB3_2:
	.loc	7 0 3 is_stmt 0                 @ ../../../../Library/CMSIS/Core/Include\core_cm23.h:0:3
	add	r1, sp, #4
.Ltmp13:
	.loc	7 1686 55 is_stmt 1             @ ../../../../Library/CMSIS/Core/Include\core_cm23.h:1686:55
	ldrb	r0, [r1]
	movs	r4, #15
	ands	r0, r4
	subs	r0, #8
	movs	r2, #3
	mvns	r3, r2
	.loc	7 1686 45 is_stmt 0             @ ../../../../Library/CMSIS/Core/Include\core_cm23.h:1686:45
	ands	r0, r3
	ldr	r2, __arm_cp.3_0
	ldr	r0, [r0, r2]
	.loc	7 1686 85                       @ ../../../../Library/CMSIS/Core/Include\core_cm23.h:1686:85
	movs	r5, #0
	ldrsb	r1, [r1, r5]
	lsls	r5, r1, #30
	lsrs	r6, r5, #27
	movs	r5, #255
	.loc	7 1686 82                       @ ../../../../Library/CMSIS/Core/Include\core_cm23.h:1686:82
	lsls	r5, r6
	.loc	7 1686 71                       @ ../../../../Library/CMSIS/Core/Include\core_cm23.h:1686:71
	bics	r0, r5
	.loc	7 1687 11 is_stmt 1             @ ../../../../Library/CMSIS/Core/Include\core_cm23.h:1687:11
	ldr	r5, [sp]
	.loc	7 1687 20 is_stmt 0             @ ../../../../Library/CMSIS/Core/Include\core_cm23.h:1687:20
	lsls	r5, r5, #6
	.loc	7 1687 48                       @ ../../../../Library/CMSIS/Core/Include\core_cm23.h:1687:48
	uxtb	r5, r5
	.loc	7 1687 68                       @ ../../../../Library/CMSIS/Core/Include\core_cm23.h:1687:68
	lsls	r5, r6
	.loc	7 1686 104 is_stmt 1            @ ../../../../Library/CMSIS/Core/Include\core_cm23.h:1686:104
	orrs	r0, r5
	.loc	7 1686 15 is_stmt 0             @ ../../../../Library/CMSIS/Core/Include\core_cm23.h:1686:15
	ands	r1, r4
	subs	r1, #8
	.loc	7 1686 5                        @ ../../../../Library/CMSIS/Core/Include\core_cm23.h:1686:5
	ands	r1, r3
	.loc	7 1686 31                       @ ../../../../Library/CMSIS/Core/Include\core_cm23.h:1686:31
	str	r0, [r1, r2]
	b	.LBB3_3
.Ltmp14:
.LBB3_3:
	.loc	7 1689 1 epilogue_begin is_stmt 1 @ ../../../../Library/CMSIS/Core/Include\core_cm23.h:1689:1
	add	sp, #8
	pop	{r4, r5, r6, pc}
.Ltmp15:
	.p2align	2
@ %bb.4:
	.loc	7 0 1 is_stmt 0                 @ ../../../../Library/CMSIS/Core/Include\core_cm23.h:0:1
__arm_cp.3_0:
	.long	3758157084                      @ 0xe000ed1c
.Lcpi_end6:
	.size	__arm_cp.3_0, .Lcpi_end6-__arm_cp.3_0
__arm_cp.3_1:
	.long	3758154752                      @ 0xe000e400
.Lcpi_end7:
	.size	__arm_cp.3_1, .Lcpi_end7-__arm_cp.3_1
.Lfunc_end3:
	.size	__NVIC_SetPriority, .Lfunc_end3-__NVIC_SetPriority
	.cfi_endproc
	.cantunwind
	.fnend
                                        @ -- End function
	.section	.text.SysTick_Handler,"ax",%progbits
	.hidden	SysTick_Handler                 @ -- Begin function SysTick_Handler
	.globl	SysTick_Handler
	.p2align	2
	.type	SysTick_Handler,%function
	.code	16                              @ @SysTick_Handler
	.thumb_func
SysTick_Handler:
.Lfunc_begin4:
	.loc	2 102 0 is_stmt 1               @ ../main.c:102:0
	.fnstart
	.cfi_startproc
@ %bb.0:
	ldr	r1, __arm_cp.4_0
	movs	r0, #0
.Ltmp16:
	.loc	2 104 18 prologue_end           @ ../main.c:104:18
	str	r0, [r1]
.Ltmp17:
	.loc	2 107 9                         @ ../main.c:107:9
	ldr	r0, __arm_cp.4_1
	ldr	r0, [r0]
.Ltmp18:
	.loc	2 107 9 is_stmt 0               @ ../main.c:107:9
	cmp	r0, #0
	beq	.LBB4_18
	b	.LBB4_1
.LBB4_1:
.Ltmp19:
	.loc	2 109 32 is_stmt 1              @ ../main.c:109:32
	ldr	r1, __arm_cp.4_1
	ldr	r0, [r1]
	subs	r0, r0, #1
	str	r0, [r1]
.Ltmp20:
	.loc	2 110 13                        @ ../main.c:110:13
	ldr	r0, __arm_cp.4_3
	ldrb	r0, [r0]
.Ltmp21:
	.loc	2 110 13 is_stmt 0              @ ../main.c:110:13
	cmp	r0, #1
	bne	.LBB4_6
	b	.LBB4_2
.LBB4_2:
.Ltmp22:
	.loc	2 112 18 is_stmt 1              @ ../main.c:112:18
	ldr	r0, __arm_cp.4_1
	ldr	r0, [r0]
	movw	r1, #1000
	.loc	2 112 42 is_stmt 0              @ ../main.c:112:42
	udiv	r2, r0, r1
	muls	r1, r2, r1
	subs	r0, r0, r1
.Ltmp23:
	.loc	2 112 17                        @ ../main.c:112:17
	lsrs	r0, r0, #2
	cmp	r0, #124
	bhi	.LBB4_4
	b	.LBB4_3
.LBB4_3:
	.loc	2 0 17                          @ ../main.c:0:17
	ldr	r1, __arm_cp.4_2
.Ltmp24:
	.loc	2 114 35 is_stmt 1              @ ../main.c:114:35
	ldr	r0, [r1]
	movs	r2, #8
	orrs	r0, r2
	str	r0, [r1]
	.loc	2 115 13                        @ ../main.c:115:13
	b	.LBB4_5
.Ltmp25:
.LBB4_4:
	.loc	2 0 13 is_stmt 0                @ ../main.c:0:13
	ldr	r1, __arm_cp.4_2
.Ltmp26:
	.loc	2 118 35 is_stmt 1              @ ../main.c:118:35
	ldr	r0, [r1]
	movs	r2, #8
	bics	r0, r2
	str	r0, [r1]
	b	.LBB4_5
.Ltmp27:
.LBB4_5:
	.loc	2 120 9                         @ ../main.c:120:9
	b	.LBB4_13
.Ltmp28:
.LBB4_6:
	.loc	2 121 18                        @ ../main.c:121:18
	ldr	r0, __arm_cp.4_3
	ldrb	r0, [r0]
.Ltmp29:
	.loc	2 121 18 is_stmt 0              @ ../main.c:121:18
	cmp	r0, #2
	bne	.LBB4_11
	b	.LBB4_7
.LBB4_7:
.Ltmp30:
	.loc	2 123 18 is_stmt 1              @ ../main.c:123:18
	ldr	r0, __arm_cp.4_1
	ldr	r0, [r0]
	movw	r1, #500
	.loc	2 123 42 is_stmt 0              @ ../main.c:123:42
	udiv	r2, r0, r1
	muls	r1, r2, r1
	subs	r0, r0, r1
.Ltmp31:
	.loc	2 123 17                        @ ../main.c:123:17
	cmp	r0, #249
	bhi	.LBB4_9
	b	.LBB4_8
.LBB4_8:
	.loc	2 0 17                          @ ../main.c:0:17
	ldr	r1, __arm_cp.4_2
.Ltmp32:
	.loc	2 125 35 is_stmt 1              @ ../main.c:125:35
	ldr	r0, [r1]
	movs	r2, #8
	orrs	r0, r2
	str	r0, [r1]
	.loc	2 126 13                        @ ../main.c:126:13
	b	.LBB4_10
.Ltmp33:
.LBB4_9:
	.loc	2 0 13 is_stmt 0                @ ../main.c:0:13
	ldr	r1, __arm_cp.4_2
.Ltmp34:
	.loc	2 129 35 is_stmt 1              @ ../main.c:129:35
	ldr	r0, [r1]
	movs	r2, #8
	bics	r0, r2
	str	r0, [r1]
	b	.LBB4_10
.Ltmp35:
.LBB4_10:
	.loc	2 131 9                         @ ../main.c:131:9
	b	.LBB4_12
.Ltmp36:
.LBB4_11:
	.loc	2 0 9 is_stmt 0                 @ ../main.c:0:9
	ldr	r1, __arm_cp.4_2
.Ltmp37:
	.loc	2 134 31 is_stmt 1              @ ../main.c:134:31
	ldr	r0, [r1]
	movs	r2, #8
	bics	r0, r2
	str	r0, [r1]
	b	.LBB4_12
.Ltmp38:
.LBB4_12:
	.loc	2 0 31 is_stmt 0                @ ../main.c:0:31
	b	.LBB4_13
.LBB4_13:
.Ltmp39:
	.loc	2 137 13 is_stmt 1              @ ../main.c:137:13
	ldr	r0, __arm_cp.4_1
	ldr	r0, [r0]
.Ltmp40:
	.loc	2 137 13 is_stmt 0              @ ../main.c:137:13
	cbnz	r0, .LBB4_17
	b	.LBB4_14
.LBB4_14:
	.loc	2 0 13                          @ ../main.c:0:13
	ldr	r1, __arm_cp.4_2
.Ltmp41:
	.loc	2 140 31 is_stmt 1              @ ../main.c:140:31
	ldr	r0, [r1]
	movs	r2, #8
	bics	r0, r2
	str	r0, [r1]
	.loc	2 141 31                        @ ../main.c:141:31
	ldr	r1, __arm_cp.4_3
	movs	r0, #0
	strb	r0, [r1]
.Ltmp42:
	.loc	2 144 17                        @ ../main.c:144:17
	ldr	r0, __arm_cp.4_4
	ldrb	r0, [r0]
.Ltmp43:
	.loc	2 144 17 is_stmt 0              @ ../main.c:144:17
	cmp	r0, #1
	bne	.LBB4_16
	b	.LBB4_15
.LBB4_15:
.Ltmp44:
	.loc	2 147 32 is_stmt 1              @ ../main.c:147:32
	ldr	r1, __arm_cp.4_4
	movs	r0, #2
	strb	r0, [r1]
	.loc	2 148 13                        @ ../main.c:148:13
	b	.LBB4_16
.Ltmp45:
.LBB4_16:
	.loc	2 149 9                         @ ../main.c:149:9
	b	.LBB4_17
.Ltmp46:
.LBB4_17:
	.loc	2 150 5                         @ ../main.c:150:5
	b	.LBB4_19
.Ltmp47:
.LBB4_18:
	.loc	2 0 5 is_stmt 0                 @ ../main.c:0:5
	ldr	r1, __arm_cp.4_2
.Ltmp48:
	.loc	2 153 27 is_stmt 1              @ ../main.c:153:27
	ldr	r0, [r1]
	movs	r2, #8
	bics	r0, r2
	str	r0, [r1]
	.loc	2 154 27                        @ ../main.c:154:27
	ldr	r1, __arm_cp.4_3
	movs	r0, #0
	strb	r0, [r1]
	b	.LBB4_19
.Ltmp49:
.LBB4_19:
	.loc	2 158 29                        @ ../main.c:158:29
	ldr	r0, __arm_cp.4_5
	ldr	r1, [r0]
	adds	r1, r1, #1
	str	r1, [r0]
.Ltmp50:
	.loc	2 160 8                         @ ../main.c:160:8
	ldr	r0, [r0]
	ldr	r1, __arm_cp.4_6
.Ltmp51:
	.loc	2 160 8 is_stmt 0               @ ../main.c:160:8
	cmp	r0, r1
	blo	.LBB4_21
	b	.LBB4_20
.LBB4_20:
.Ltmp52:
	.loc	2 162 23 is_stmt 1              @ ../main.c:162:23
	ldr	r1, __arm_cp.4_7
	movs	r0, #1
	strb	r0, [r1]
	.loc	2 163 34                        @ ../main.c:163:34
	ldr	r1, __arm_cp.4_5
	ldr	r0, [r1]
	movw	r2, #1700
	subs	r0, r0, r2
	str	r0, [r1]
	.loc	2 164 5                         @ ../main.c:164:5
	b	.LBB4_21
.Ltmp53:
.LBB4_21:
	.loc	2 168 26                        @ ../main.c:168:26
	ldr	r0, __arm_cp.4_8
	ldrh	r1, [r0]
	adds	r1, r1, #1
	strh	r1, [r0]
.Ltmp54:
	.loc	2 169 9                         @ ../main.c:169:9
	ldrh	r0, [r0]
	movw	r1, #1000
.Ltmp55:
	.loc	2 169 9 is_stmt 0               @ ../main.c:169:9
	cmp	r0, r1
	blt	.LBB4_23
	b	.LBB4_22
.LBB4_22:
.Ltmp56:
	.loc	2 171 31 is_stmt 1              @ ../main.c:171:31
	ldr	r1, __arm_cp.4_8
	movs	r0, #0
	strh	r0, [r1]
	.loc	2 172 31                        @ ../main.c:172:31
	ldr	r0, __arm_cp.4_9
	ldr	r1, [r0]
	adds	r1, r1, #1
	str	r1, [r0]
	.loc	2 175 75                        @ ../main.c:175:75
	ldr	r0, [r0]
	.loc	2 175 73 is_stmt 0              @ ../main.c:175:73
	ldr	r1, __arm_cp.4_10
	movs	r2, #176
	strb	r0, [r1, r2]
	adds	r1, #176
	lsrs	r2, r0, #24
	strb	r2, [r1, #3]
	lsrs	r2, r0, #16
	strb	r2, [r1, #2]
	lsrs	r0, r0, #8
	strb	r0, [r1, #1]
	.loc	2 176 5 is_stmt 1               @ ../main.c:176:5
	b	.LBB4_23
.Ltmp57:
.LBB4_23:
	.loc	2 177 1                         @ ../main.c:177:1
	bx	lr
.Ltmp58:
	.p2align	2
@ %bb.24:
	.loc	2 0 1 is_stmt 0                 @ ../main.c:0:1
__arm_cp.4_0:
	.long	3758153752                      @ 0xe000e018
.Lcpi_end8:
	.size	__arm_cp.4_0, .Lcpi_end8-__arm_cp.4_0
__arm_cp.4_1:
	.long	g_u32WarningCountdownMs
.Lcpi_end9:
	.size	__arm_cp.4_1, .Lcpi_end9-__arm_cp.4_1
__arm_cp.4_2:
	.long	1073758344                      @ 0x40004088
.Lcpi_end10:
	.size	__arm_cp.4_2, .Lcpi_end10-__arm_cp.4_2
__arm_cp.4_3:
	.long	g_u8BuzzerPattern
.Lcpi_end11:
	.size	__arm_cp.4_3, .Lcpi_end11-__arm_cp.4_3
__arm_cp.4_4:
	.long	g_system_state
.Lcpi_end12:
	.size	__arm_cp.4_4, .Lcpi_end12-__arm_cp.4_4
__arm_cp.4_5:
	.long	TimeCounterMonitorUpdate
.Lcpi_end13:
	.size	__arm_cp.4_5, .Lcpi_end13-__arm_cp.4_5
__arm_cp.4_6:
	.long	1700                            @ 0x6a4
.Lcpi_end14:
	.size	__arm_cp.4_6, .Lcpi_end14-__arm_cp.4_6
__arm_cp.4_7:
	.long	u8MonitorFlag
.Lcpi_end15:
	.size	__arm_cp.4_7, .Lcpi_end15-__arm_cp.4_7
__arm_cp.4_8:
	.long	g_u16McuRunTimeMillis
.Lcpi_end16:
	.size	__arm_cp.4_8, .Lcpi_end16-__arm_cp.4_8
__arm_cp.4_9:
	.long	g_u32McuRunTimeSeconds
.Lcpi_end17:
	.size	__arm_cp.4_9, .Lcpi_end17-__arm_cp.4_9
__arm_cp.4_10:
	.long	eeprom_ram
.Lcpi_end18:
	.size	__arm_cp.4_10, .Lcpi_end18-__arm_cp.4_10
.Lfunc_end4:
	.size	SysTick_Handler, .Lfunc_end4-SysTick_Handler
	.cfi_endproc
	.cantunwind
	.fnend
                                        @ -- End function
	.section	.text.Save_Log_Entry,"ax",%progbits
	.hidden	Save_Log_Entry                  @ -- Begin function Save_Log_Entry
	.globl	Save_Log_Entry
	.p2align	2
	.type	Save_Log_Entry,%function
	.code	16                              @ @Save_Log_Entry
	.thumb_func
Save_Log_Entry:
.Lfunc_begin5:
	.loc	2 193 0 is_stmt 1               @ ../main.c:193:0
	.fnstart
	.cfi_startproc
@ %bb.0:
	.save	{r7, lr}
	push	{r7, lr}
	.cfi_def_cfa_offset 8
	.cfi_offset lr, -4
	.cfi_offset r7, -8
	.pad	#56
	sub	sp, #56
	.cfi_def_cfa_offset 64
	add	r0, sp, #32
.Ltmp59:
	.loc	2 195 14 prologue_end           @ ../main.c:195:14
	str	r0, [sp, #28]
	add	r1, sp, #24
	movs	r0, #0
	.loc	2 196 13                        @ ../main.c:196:13
	strb	r0, [r1]
	.loc	2 202 44                        @ ../main.c:202:44
	ldr	r1, __arm_cp.5_0
	ldr	r1, [r1]
	.loc	2 202 30 is_stmt 0              @ ../main.c:202:30
	str	r1, [sp, #32]
	.loc	2 203 27 is_stmt 1              @ ../main.c:203:27
	ldr	r1, __arm_cp.5_1
	ldr	r1, [r1]
	.loc	2 203 25 is_stmt 0              @ ../main.c:203:25
	str	r1, [sp, #36]
.Ltmp60:
	.loc	2 204 12 is_stmt 1              @ ../main.c:204:12
	str	r0, [sp, #12]
	.loc	2 204 10 is_stmt 0              @ ../main.c:204:10
	b	.LBB5_1
.LBB5_1:                                @ =>This Inner Loop Header: Depth=1
.Ltmp61:
	.loc	2 204 17                        @ ../main.c:204:17
	ldr	r0, [sp, #12]
.Ltmp62:
	.loc	2 204 5                         @ ../main.c:204:5
	cmp	r0, #5
	bgt	.LBB5_4
	b	.LBB5_2
.LBB5_2:                                @   in Loop: Header=BB5_1 Depth=1
.Ltmp63:
	.loc	2 205 58 is_stmt 1              @ ../main.c:205:58
	ldr	r0, [sp, #12]
	.loc	2 205 60 is_stmt 0              @ ../main.c:205:60
	lsls	r0, r0, #2
	.loc	2 205 55                        @ ../main.c:205:55
	adds	r0, #48
	add	r2, sp, #8
	.loc	2 205 18                        @ ../main.c:205:18
	strh	r0, [r2]
	.loc	2 207 46 is_stmt 1              @ ../main.c:207:46
	ldrh	r0, [r2]
	.loc	2 207 35 is_stmt 0              @ ../main.c:207:35
	ldr	r1, __arm_cp.5_2
	.loc	2 207 53                        @ ../main.c:207:53
	adds	r0, r0, r1
	.loc	2 207 35                        @ ../main.c:207:35
	ldrb	r0, [r0, #1]
	.loc	2 207 58                        @ ../main.c:207:58
	lsls	r0, r0, #8
	.loc	2 207 77                        @ ../main.c:207:77
	ldrh	r2, [r2]
	.loc	2 207 66                        @ ../main.c:207:66
	ldrb	r1, [r1, r2]
	.loc	2 207 64                        @ ../main.c:207:64
	adds	r0, r0, r1
	.loc	2 207 29                        @ ../main.c:207:29
	ldr	r1, [sp, #12]
	.loc	2 207 9                         @ ../main.c:207:9
	lsls	r2, r1, #1
	add	r1, sp, #32
	.loc	2 207 18                        @ ../main.c:207:18
	adds	r1, r1, r2
	.loc	2 207 32                        @ ../main.c:207:32
	strh	r0, [r1, #8]
	.loc	2 208 5 is_stmt 1               @ ../main.c:208:5
	b	.LBB5_3
.Ltmp64:
.LBB5_3:                                @   in Loop: Header=BB5_1 Depth=1
	.loc	2 204 25                        @ ../main.c:204:25
	ldr	r0, [sp, #12]
	adds	r0, r0, #1
	str	r0, [sp, #12]
	.loc	2 204 5 is_stmt 0               @ ../main.c:204:5
	b	.LBB5_1
.Ltmp65:
.LBB5_4:
	.loc	2 209 28 is_stmt 1              @ ../main.c:209:28
	ldr	r0, __arm_cp.5_2
	ldrb	r0, [r0, #14]
	add	r1, sp, #32
	.loc	2 209 26 is_stmt 0              @ ../main.c:209:26
	strb	r0, [r1, #20]
	movs	r0, #0
.Ltmp66:
	.loc	2 213 12 is_stmt 1              @ ../main.c:213:12
	str	r0, [sp, #12]
	.loc	2 213 10 is_stmt 0              @ ../main.c:213:10
	b	.LBB5_5
.LBB5_5:                                @ =>This Inner Loop Header: Depth=1
.Ltmp67:
	.loc	2 213 17                        @ ../main.c:213:17
	ldr	r0, [sp, #12]
.Ltmp68:
	.loc	2 213 5                         @ ../main.c:213:5
	cmp	r0, #22
	bhi	.LBB5_8
	b	.LBB5_6
.LBB5_6:                                @   in Loop: Header=BB5_5 Depth=1
.Ltmp69:
	.loc	2 214 21 is_stmt 1              @ ../main.c:214:21
	ldr	r0, [sp, #28]
	.loc	2 214 27 is_stmt 0              @ ../main.c:214:27
	ldr	r1, [sp, #12]
	.loc	2 214 21                        @ ../main.c:214:21
	ldrb	r1, [r0, r1]
	.loc	2 214 18                        @ ../main.c:214:18
	ldr	r0, [sp, #24]
	adds	r0, r0, r1
	add	r1, sp, #24
	strb	r0, [r1]
	.loc	2 215 5 is_stmt 1               @ ../main.c:215:5
	b	.LBB5_7
.Ltmp70:
.LBB5_7:                                @   in Loop: Header=BB5_5 Depth=1
	.loc	2 213 46                        @ ../main.c:213:46
	ldr	r0, [sp, #12]
	adds	r0, r0, #1
	str	r0, [sp, #12]
	.loc	2 213 5 is_stmt 0               @ ../main.c:213:5
	b	.LBB5_5
.Ltmp71:
.LBB5_8:
	.loc	2 216 27 is_stmt 1              @ ../main.c:216:27
	ldr	r0, [sp, #24]
	add	r1, sp, #32
	.loc	2 216 25 is_stmt 0              @ ../main.c:216:25
	strb	r0, [r1, #21]
	.loc	2 220 27 is_stmt 1              @ ../main.c:220:27
	ldr	r0, __arm_cp.5_0
	ldrb	r1, [r0, #13]
	add	r0, sp, #20
	.loc	2 220 13 is_stmt 0              @ ../main.c:220:13
	strb	r1, [r0]
.Ltmp72:
	.loc	2 221 9 is_stmt 1               @ ../main.c:221:9
	ldrb	r0, [r0]
.Ltmp73:
	.loc	2 221 9 is_stmt 0               @ ../main.c:221:9
	cmp	r0, #11
	blt	.LBB5_10
	b	.LBB5_9
.LBB5_9:
	.loc	2 0 9                           @ ../main.c:0:9
	add	r1, sp, #20
	movs	r0, #0
.Ltmp74:
	.loc	2 222 17 is_stmt 1              @ ../main.c:222:17
	strb	r0, [r1]
	.loc	2 223 5                         @ ../main.c:223:5
	b	.LBB5_10
.Ltmp75:
.LBB5_10:
	.loc	2 0 5 is_stmt 0                 @ ../main.c:0:5
	add	r0, sp, #20
	.loc	2 224 18 is_stmt 1              @ ../main.c:224:18
	str	r0, [sp, #4]                    @ 4-byte Spill
	ldrb	r1, [r0]
	movs	r3, #24
	.loc	2 224 26 is_stmt 0              @ ../main.c:224:26
	mov	r0, r3
	muls	r0, r1, r0
	.loc	2 224 16                        @ ../main.c:224:16
	str	r0, [sp, #16]
	.loc	2 227 34 is_stmt 1              @ ../main.c:227:34
	ldr	r1, [sp, #16]
	.loc	2 227 5 is_stmt 0               @ ../main.c:227:5
	ldr	r0, __arm_cp.5_3
	add	r2, sp, #32
	bl	Write_EEPROM
                                        @ kill: def $r1 killed $r0
	.loc	2 231 12 is_stmt 1              @ ../main.c:231:12
	ldr	r0, [sp, #4]                    @ 4-byte Reload
	ldr	r1, [sp, #20]
	adds	r1, r1, #1
	strb	r1, [r0]
.Ltmp76:
	.loc	2 232 9                         @ ../main.c:232:9
	ldrb	r0, [r0]
.Ltmp77:
	.loc	2 232 9 is_stmt 0               @ ../main.c:232:9
	cmp	r0, #11
	blt	.LBB5_12
	b	.LBB5_11
.LBB5_11:
	.loc	2 0 9                           @ ../main.c:0:9
	add	r1, sp, #20
	movs	r0, #0
.Ltmp78:
	.loc	2 233 17 is_stmt 1              @ ../main.c:233:17
	strb	r0, [r1]
	.loc	2 234 5                         @ ../main.c:234:5
	b	.LBB5_12
.Ltmp79:
.LBB5_12:
	.loc	2 235 29                        @ ../main.c:235:29
	ldr	r0, [sp, #20]
	.loc	2 235 27 is_stmt 0              @ ../main.c:235:27
	ldr	r2, __arm_cp.5_0
	str	r2, [sp]                        @ 4-byte Spill
	strb	r0, [r2, #13]
	adds	r2, #13
	.loc	2 238 5 is_stmt 1               @ ../main.c:238:5
	ldr	r0, __arm_cp.5_4
	movs	r1, #13
	movs	r3, #1
	bl	Write_EEPROM
                                        @ kill: def $r1 killed $r0
	.loc	2 241 50                        @ ../main.c:241:50
	ldr	r0, [sp]                        @ 4-byte Reload
	ldrb	r0, [r0, #13]
	.loc	2 241 36 is_stmt 0              @ ../main.c:241:36
	ldr	r1, __arm_cp.5_2
	strb	r0, [r1, #13]
	.loc	2 242 1 epilogue_begin is_stmt 1 @ ../main.c:242:1
	add	sp, #56
	pop	{r7, pc}
.Ltmp80:
	.p2align	2
@ %bb.13:
	.loc	2 0 1 is_stmt 0                 @ ../main.c:0:1
__arm_cp.5_0:
	.long	g_AppConfig
.Lcpi_end19:
	.size	__arm_cp.5_0, .Lcpi_end19-__arm_cp.5_0
__arm_cp.5_1:
	.long	g_u32McuRunTimeSeconds
.Lcpi_end20:
	.size	__arm_cp.5_1, .Lcpi_end20-__arm_cp.5_1
__arm_cp.5_2:
	.long	eeprom_ram
.Lcpi_end21:
	.size	__arm_cp.5_2, .Lcpi_end21-__arm_cp.5_2
__arm_cp.5_3:
	.long	eeprom_system
.Lcpi_end22:
	.size	__arm_cp.5_3, .Lcpi_end22-__arm_cp.5_3
__arm_cp.5_4:
	.long	eeprom_user
.Lcpi_end23:
	.size	__arm_cp.5_4, .Lcpi_end23-__arm_cp.5_4
.Lfunc_end5:
	.size	Save_Log_Entry, .Lfunc_end5-Save_Log_Entry
	.cfi_endproc
	.cantunwind
	.fnend
                                        @ -- End function
	.section	.text.GPC_IRQHandler,"ax",%progbits
	.hidden	GPC_IRQHandler                  @ -- Begin function GPC_IRQHandler
	.globl	GPC_IRQHandler
	.p2align	2
	.type	GPC_IRQHandler,%function
	.code	16                              @ @GPC_IRQHandler
	.thumb_func
GPC_IRQHandler:
.Lfunc_begin6:
	.loc	2 247 0 is_stmt 1               @ ../main.c:247:0
	.fnstart
	.cfi_startproc
@ %bb.0:
	ldr	r0, __arm_cp.6_0
.Ltmp81:
	.loc	2 249 9 prologue_end            @ ../main.c:249:9
	ldr	r0, [r0]
.Ltmp82:
	.loc	2 249 9 is_stmt 0               @ ../main.c:249:9
	lsls	r0, r0, #27
	cmp	r0, #0
	bpl	.LBB6_2
	b	.LBB6_1
.LBB6_1:
	.loc	2 0 9                           @ ../main.c:0:9
	ldr	r1, __arm_cp.6_0
	movs	r0, #16
.Ltmp83:
	.loc	2 251 9 is_stmt 1               @ ../main.c:251:9
	str	r0, [r1]
	.loc	2 252 32                        @ ../main.c:252:32
	ldr	r1, __arm_cp.6_1
	movs	r0, #1
	strb	r0, [r1]
	.loc	2 253 5                         @ ../main.c:253:5
	b	.LBB6_2
.Ltmp84:
.LBB6_2:
	.loc	2 255 1                         @ ../main.c:255:1
	bx	lr
.Ltmp85:
	.p2align	2
@ %bb.3:
	.loc	2 0 1 is_stmt 0                 @ ../main.c:0:1
__arm_cp.6_0:
	.long	1073758368                      @ 0x400040a0
.Lcpi_end24:
	.size	__arm_cp.6_0, .Lcpi_end24-__arm_cp.6_0
__arm_cp.6_1:
	.long	g_u8HwWarningTriggered
.Lcpi_end25:
	.size	__arm_cp.6_1, .Lcpi_end25-__arm_cp.6_1
.Lfunc_end6:
	.size	GPC_IRQHandler, .Lfunc_end6-GPC_IRQHandler
	.cfi_endproc
	.cantunwind
	.fnend
                                        @ -- End function
	.section	.text.ProcessHardFault,"ax",%progbits
	.hidden	ProcessHardFault                @ -- Begin function ProcessHardFault
	.globl	ProcessHardFault
	.p2align	1
	.type	ProcessHardFault,%function
	.code	16                              @ @ProcessHardFault
	.thumb_func
ProcessHardFault:
.Lfunc_begin7:
	.loc	2 258 0 is_stmt 1               @ ../main.c:258:0
	.fnstart
	.cfi_startproc
@ %bb.0:
	.save	{r7, lr}
	push	{r7, lr}
	.cfi_def_cfa_offset 8
	.cfi_offset lr, -4
	.cfi_offset r7, -8
	.pad	#16
	sub	sp, #16
	.cfi_def_cfa_offset 24
	str	r0, [sp, #12]
	str	r1, [sp, #8]
	str	r2, [sp, #4]
.Ltmp86:
	.loc	2 261 5 prologue_end            @ ../main.c:261:5
	b	.LBB7_1
.LBB7_1:                                @ =>This Inner Loop Header: Depth=1
.Ltmp87:
	.loc	2 263 5                         @ ../main.c:263:5
	bl	SYS_UnlockReg
	.loc	2 264 5                         @ ../main.c:264:5
	bl	SYS_ResetChip
.Ltmp88:
	.loc	2 261 5                         @ ../main.c:261:5
	b	.LBB7_1
.Ltmp89:
.Lfunc_end7:
	.size	ProcessHardFault, .Lfunc_end7-ProcessHardFault
	.cfi_endproc
	.cantunwind
	.fnend
                                        @ -- End function
	.section	.text.SYS_UnlockReg,"ax",%progbits
	.p2align	2                               @ -- Begin function SYS_UnlockReg
	.type	SYS_UnlockReg,%function
	.code	16                              @ @SYS_UnlockReg
	.thumb_func
SYS_UnlockReg:
.Lfunc_begin8:
	.fnstart
	.cfi_startproc
@ %bb.0:
	.file	11 "C:\\Users\\tester\\Desktop\\M251 dual eeprom\\SampleCode\\StdDriver\\INA3221_CABLE\\KEIL" "../../../../Library/StdDriver/inc\\sys.h"
	.loc	11 1314 5 prologue_end          @ ../../../../Library/StdDriver/inc\sys.h:1314:5
	b	.LBB8_1
.LBB8_1:                                @ =>This Inner Loop Header: Depth=1
	.loc	11 0 5 is_stmt 0                @ ../../../../Library/StdDriver/inc\sys.h:0:5
	ldr	r1, __arm_cp.8_0
	movs	r0, #89
.Ltmp90:
	.loc	11 1316 22 is_stmt 1            @ ../../../../Library/StdDriver/inc\sys.h:1316:22
	str	r0, [r1]
	movs	r0, #22
	.loc	11 1317 22                      @ ../../../../Library/StdDriver/inc\sys.h:1317:22
	str	r0, [r1]
	movs	r0, #136
	.loc	11 1318 22                      @ ../../../../Library/StdDriver/inc\sys.h:1318:22
	str	r0, [r1]
	.loc	11 1319 5                       @ ../../../../Library/StdDriver/inc\sys.h:1319:5
	b	.LBB8_2
.Ltmp91:
.LBB8_2:                                @   in Loop: Header=BB8_1 Depth=1
	.loc	11 0 5 is_stmt 0                @ ../../../../Library/StdDriver/inc\sys.h:0:5
	ldr	r0, __arm_cp.8_0
	.loc	11 1319 19                      @ ../../../../Library/StdDriver/inc\sys.h:1319:19
	ldr	r0, [r0]
.Ltmp92:
	.loc	11 1319 5                       @ ../../../../Library/StdDriver/inc\sys.h:1319:5
	cmp	r0, #0
	beq	.LBB8_1
	b	.LBB8_3
.Ltmp93:
.LBB8_3:
	.loc	11 1320 1 is_stmt 1             @ ../../../../Library/StdDriver/inc\sys.h:1320:1
	bx	lr
.Ltmp94:
	.p2align	2
@ %bb.4:
	.loc	11 0 1 is_stmt 0                @ ../../../../Library/StdDriver/inc\sys.h:0:1
__arm_cp.8_0:
	.long	1073742080                      @ 0x40000100
.Lcpi_end26:
	.size	__arm_cp.8_0, .Lcpi_end26-__arm_cp.8_0
.Lfunc_end8:
	.size	SYS_UnlockReg, .Lfunc_end8-SYS_UnlockReg
	.cfi_endproc
	.cantunwind
	.fnend
                                        @ -- End function
	.section	.text.initial_eeprom_ram,"ax",%progbits
	.hidden	initial_eeprom_ram              @ -- Begin function initial_eeprom_ram
	.globl	initial_eeprom_ram
	.p2align	2
	.type	initial_eeprom_ram,%function
	.code	16                              @ @initial_eeprom_ram
	.thumb_func
initial_eeprom_ram:
.Lfunc_begin9:
	.loc	2 296 0 is_stmt 1               @ ../main.c:296:0
	.fnstart
	.cfi_startproc
@ %bb.0:
	.save	{r4, lr}
	push	{r4, lr}
	.cfi_def_cfa_offset 8
	.cfi_offset lr, -4
	.cfi_offset r4, -8
.Ltmp95:
	.loc	2 297 19 prologue_end           @ ../main.c:297:19
	ldr	r1, __arm_cp.9_0
	movs	r2, #240
	movs	r0, #1
	strb	r0, [r1, r2]
	movs	r2, #241
	movs	r0, #77
	.loc	2 298 18                        @ ../main.c:298:18
	strb	r0, [r1, r2]
	movs	r2, #242
	movs	r0, #50
	.loc	2 299 18                        @ ../main.c:299:18
	strb	r0, [r1, r2]
	movs	r2, #243
	movs	r0, #53
	.loc	2 300 18                        @ ../main.c:300:18
	strb	r0, [r1, r2]
	movs	r2, #244
	movs	r0, #49
	.loc	2 301 18                        @ ../main.c:301:18
	strb	r0, [r1, r2]
	movs	r0, #245
	movs	r2, #95
	.loc	2 302 18                        @ ../main.c:302:18
	strb	r2, [r1, r0]
	movs	r3, #246
	movs	r0, #71
	.loc	2 303 18                        @ ../main.c:303:18
	strb	r0, [r1, r3]
	movs	r3, #247
	movs	r0, #80
	.loc	2 304 18                        @ ../main.c:304:18
	strb	r0, [r1, r3]
	movs	r4, #248
	movs	r3, #85
	.loc	2 305 18                        @ ../main.c:305:18
	strb	r3, [r1, r4]
	movs	r3, #249
	.loc	2 306 18                        @ ../main.c:306:18
	strb	r2, [r1, r3]
	movs	r3, #250
	movs	r2, #67
	.loc	2 307 18                        @ ../main.c:307:18
	strb	r2, [r1, r3]
	movs	r2, #251
	.loc	2 308 18                        @ ../main.c:308:18
	strb	r0, [r1, r2]
	.loc	2 309 1 epilogue_begin          @ ../main.c:309:1
	pop	{r4, pc}
.Ltmp96:
	.p2align	2
@ %bb.1:
	.loc	2 0 1 is_stmt 0                 @ ../main.c:0:1
__arm_cp.9_0:
	.long	eeprom_ram
.Lcpi_end27:
	.size	__arm_cp.9_0, .Lcpi_end27-__arm_cp.9_0
.Lfunc_end9:
	.size	initial_eeprom_ram, .Lfunc_end9-initial_eeprom_ram
	.cfi_endproc
	.cantunwind
	.fnend
                                        @ -- End function
	.section	.text.Peripherals_Init,"ax",%progbits
	.hidden	Peripherals_Init                @ -- Begin function Peripherals_Init
	.globl	Peripherals_Init
	.p2align	2
	.type	Peripherals_Init,%function
	.code	16                              @ @Peripherals_Init
	.thumb_func
Peripherals_Init:
.Lfunc_begin10:
	.loc	2 323 0 is_stmt 1               @ ../main.c:323:0
	.fnstart
	.cfi_startproc
@ %bb.0:
	.save	{r4, r5, r7, lr}
	push	{r4, r5, r7, lr}
	.cfi_def_cfa_offset 16
	.cfi_offset lr, -4
	.cfi_offset r7, -8
	.cfi_offset r5, -12
	.cfi_offset r4, -16
	.pad	#24
	sub	sp, #24
	.cfi_def_cfa_offset 40
.Ltmp97:
	.loc	2 324 5 prologue_end            @ ../main.c:324:5
	bl	initial_eeprom_ram
	ldr	r0, __arm_cp.10_0
	str	r0, [sp, #8]                    @ 4-byte Spill
	movs	r4, #4
	movs	r2, #1
	.loc	2 327 5                         @ ../main.c:327:5
	str	r2, [sp, #20]                   @ 4-byte Spill
	mov	r1, r4
	bl	GPIO_SetMode
	ldr	r0, [sp, #8]                    @ 4-byte Reload
	ldr	r2, [sp, #20]                   @ 4-byte Reload
	movs	r1, #8
	.loc	2 328 5                         @ ../main.c:328:5
	str	r1, [sp]                        @ 4-byte Spill
	bl	GPIO_SetMode
	ldr	r0, [sp, #8]                    @ 4-byte Reload
	ldr	r2, [sp, #20]                   @ 4-byte Reload
	ldr	r5, __arm_cp.10_1
	.loc	2 329 25                        @ ../main.c:329:25
	str	r5, [sp, #4]                    @ 4-byte Spill
	ldr	r3, [r5]
	movs	r1, #32
	bics	r3, r1
	str	r3, [r5]
	.loc	2 330 5                         @ ../main.c:330:5
	bl	GPIO_SetMode
	ldr	r3, [sp]                        @ 4-byte Reload
	ldr	r2, [sp, #4]                    @ 4-byte Reload
	ldr	r0, [sp, #8]                    @ 4-byte Reload
	.loc	2 331 26                        @ ../main.c:331:26
	ldr	r1, [r2]
	bics	r1, r4
	str	r1, [r2]
	.loc	2 332 23                        @ ../main.c:332:23
	ldr	r1, [r2]
	bics	r1, r3
	str	r1, [r2]
	movs	r1, #16
	str	r1, [sp, #16]                   @ 4-byte Spill
	movs	r2, #0
	.loc	2 335 5                         @ ../main.c:335:5
	bl	GPIO_SetMode
	ldr	r0, [sp, #8]                    @ 4-byte Reload
	ldr	r1, [sp, #16]                   @ 4-byte Reload
	ldr	r2, [sp, #20]                   @ 4-byte Reload
	.loc	2 336 5                         @ ../main.c:336:5
	bl	GPIO_EnableInt
	movs	r0, #18
	.loc	2 337 5                         @ ../main.c:337:5
	str	r0, [sp, #12]                   @ 4-byte Spill
	bl	__NVIC_EnableIRQ
	ldr	r0, [sp, #12]                   @ 4-byte Reload
	ldr	r1, [sp, #20]                   @ 4-byte Reload
	.loc	2 338 5                         @ ../main.c:338:5
	bl	__NVIC_SetPriority
	ldr	r2, [sp, #16]                   @ 4-byte Reload
	ldr	r1, __arm_cp.10_2
	ldr	r0, __arm_cp.10_3
	.loc	2 339 5                         @ ../main.c:339:5
	str	r0, [r1]
	ldr	r1, __arm_cp.10_4
	.loc	2 340 5                         @ ../main.c:340:5
	ldr	r0, [r1]
	orrs	r0, r2
	str	r0, [r1]
	.loc	2 343 5                         @ ../main.c:343:5
	bl	I2C0_Init
	.loc	2 346 5                         @ ../main.c:346:5
	bl	UI2C1_Init
	.loc	2 349 5                         @ ../main.c:349:5
	bl	SysTick_Initial
	ldr	r2, [sp, #20]                   @ 4-byte Reload
	ldr	r1, __arm_cp.10_5
	.loc	2 352 19                        @ ../main.c:352:19
	ldr	r0, [r1]
	orrs	r0, r2
	str	r0, [r1]
	.loc	2 353 1 epilogue_begin          @ ../main.c:353:1
	add	sp, #24
	pop	{r4, r5, r7, pc}
.Ltmp98:
	.p2align	2
@ %bb.1:
	.loc	2 0 1 is_stmt 0                 @ ../main.c:0:1
__arm_cp.10_0:
	.long	1073758336                      @ 0x40004080
.Lcpi_end28:
	.size	__arm_cp.10_0, .Lcpi_end28-__arm_cp.10_0
__arm_cp.10_1:
	.long	1073758344                      @ 0x40004088
.Lcpi_end29:
	.size	__arm_cp.10_1, .Lcpi_end29-__arm_cp.10_1
__arm_cp.10_2:
	.long	1073759296                      @ 0x40004440
.Lcpi_end30:
	.size	__arm_cp.10_2, .Lcpi_end30-__arm_cp.10_2
__arm_cp.10_3:
	.long	4128778                         @ 0x3f000a
.Lcpi_end31:
	.size	__arm_cp.10_3, .Lcpi_end31-__arm_cp.10_3
__arm_cp.10_4:
	.long	1073758356                      @ 0x40004094
.Lcpi_end32:
	.size	__arm_cp.10_4, .Lcpi_end32-__arm_cp.10_4
__arm_cp.10_5:
	.long	3758153744                      @ 0xe000e010
.Lcpi_end33:
	.size	__arm_cp.10_5, .Lcpi_end33-__arm_cp.10_5
.Lfunc_end10:
	.size	Peripherals_Init, .Lfunc_end10-Peripherals_Init
	.cfi_endproc
	.cantunwind
	.fnend
                                        @ -- End function
	.section	.text.Config_Load,"ax",%progbits
	.hidden	Config_Load                     @ -- Begin function Config_Load
	.globl	Config_Load
	.p2align	2
	.type	Config_Load,%function
	.code	16                              @ @Config_Load
	.thumb_func
Config_Load:
.Lfunc_begin11:
	.loc	2 359 0 is_stmt 1               @ ../main.c:359:0
	.fnstart
	.cfi_startproc
@ %bb.0:
	.save	{r7, lr}
	push	{r7, lr}
	.cfi_def_cfa_offset 8
	.cfi_offset lr, -4
	.cfi_offset r7, -8
	.pad	#72
	sub	sp, #72
	.cfi_def_cfa_offset 80
.Ltmp99:
	.loc	2 363 11 prologue_end           @ ../main.c:363:11
	ldr	r0, __arm_cp.11_0
	movw	r1, #55296
	movs	r2, #255
	str	r2, [sp, #48]                   @ 4-byte Spill
	movs	r3, #10
	str	r3, [sp, #52]                   @ 4-byte Spill
	bl	Init_EEPROM
	ldr	r2, [sp, #48]                   @ 4-byte Reload
	ldr	r3, [sp, #52]                   @ 4-byte Reload
	.loc	2 363 9 is_stmt 0               @ ../main.c:363:9
	str	r0, [sp, #68]
	.loc	2 366 11 is_stmt 1              @ ../main.c:366:11
	ldr	r0, __arm_cp.11_1
	str	r0, [sp, #56]                   @ 4-byte Spill
	movw	r1, #60416
	bl	Init_EEPROM
	mov	r1, r0
	.loc	2 366 9 is_stmt 0               @ ../main.c:366:9
	ldr	r0, [sp, #56]                   @ 4-byte Reload
	str	r1, [sp, #68]
	.loc	2 372 5 is_stmt 1               @ ../main.c:372:5
	ldr	r2, __arm_cp.11_2
	str	r2, [sp, #60]                   @ 4-byte Spill
	movs	r1, #0
	movs	r3, #4
	bl	Read_EEPROM
                                        @ kill: def $r1 killed $r0
.Ltmp100:
	.loc	2 373 21                        @ ../main.c:373:21
	ldr	r0, [sp, #60]                   @ 4-byte Reload
	ldr	r0, [r0]
.Ltmp101:
	.loc	2 373 9 is_stmt 0               @ ../main.c:373:9
	adds	r0, r0, #1
	cbnz	r0, .LBB11_2
	b	.LBB11_1
.LBB11_1:
.Ltmp102:
	.loc	2 375 37 is_stmt 1              @ ../main.c:375:37
	ldr	r1, __arm_cp.11_2
	movs	r0, #0
	str	r0, [r1]
	.loc	2 376 5                         @ ../main.c:376:5
	b	.LBB11_2
.Ltmp103:
.LBB11_2:
	.loc	2 377 32                        @ ../main.c:377:32
	ldr	r2, __arm_cp.11_2
	str	r2, [sp, #32]                   @ 4-byte Spill
	ldr	r0, [r2]
	adds	r1, r0, #1
	mov	r0, r2
	stm	r0!, {r1}
	.loc	2 378 5                         @ ../main.c:378:5
	str	r0, [sp, #28]                   @ 4-byte Spill
	ldr	r0, __arm_cp.11_1
	str	r0, [sp, #40]                   @ 4-byte Spill
	movs	r1, #0
	str	r1, [sp, #36]                   @ 4-byte Spill
	movs	r3, #4
	str	r3, [sp, #24]                   @ 4-byte Spill
	bl	Write_EEPROM
	ldr	r1, [sp, #24]                   @ 4-byte Reload
	ldr	r2, [sp, #28]                   @ 4-byte Reload
                                        @ kill: def $r3 killed $r0
	.loc	2 381 5                         @ ../main.c:381:5
	ldr	r0, [sp, #40]                   @ 4-byte Reload
	movw	r3, #1000
	bl	Init_App_Setting_U32
	ldr	r2, [sp, #32]                   @ 4-byte Reload
	ldr	r0, [sp, #40]                   @ 4-byte Reload
	.loc	2 382 5                         @ ../main.c:382:5
	adds	r2, #8
	movs	r1, #8
	movw	r3, #500
	bl	Init_App_Setting_U32
	ldr	r2, [sp, #32]                   @ 4-byte Reload
	ldr	r0, [sp, #40]                   @ 4-byte Reload
	.loc	2 383 5                         @ ../main.c:383:5
	adds	r2, #12
	movs	r1, #12
	movs	r3, #2
	bl	Init_App_Setting_U8
	ldr	r2, [sp, #32]                   @ 4-byte Reload
	ldr	r3, [sp, #36]                   @ 4-byte Reload
	ldr	r0, [sp, #40]                   @ 4-byte Reload
	.loc	2 384 5                         @ ../main.c:384:5
	adds	r2, #13
	movs	r1, #13
	bl	Init_App_Setting_U8
	ldr	r0, [sp, #40]                   @ 4-byte Reload
	.loc	2 387 5                         @ ../main.c:387:5
	ldr	r2, __arm_cp.11_3
	str	r2, [sp, #44]                   @ 4-byte Spill
	movs	r1, #16
	movs	r3, #24
	bl	Read_EEPROM
                                        @ kill: def $r1 killed $r0
.Ltmp104:
	.loc	2 390 33                        @ ../main.c:390:33
	ldr	r0, [sp, #44]                   @ 4-byte Reload
	ldrh	r0, [r0]
	ldr	r1, __arm_cp.11_4
.Ltmp105:
	.loc	2 390 9 is_stmt 0               @ ../main.c:390:9
	cmp	r0, r1
	bne	.LBB11_8
	b	.LBB11_3
.LBB11_3:
	.loc	2 0 9                           @ ../main.c:0:9
	movs	r0, #0
.Ltmp106:
	.loc	2 394 18 is_stmt 1              @ ../main.c:394:18
	str	r0, [sp, #64]
	.loc	2 394 14 is_stmt 0              @ ../main.c:394:14
	b	.LBB11_4
.LBB11_4:                               @ =>This Inner Loop Header: Depth=1
.Ltmp107:
	.loc	2 394 25                        @ ../main.c:394:25
	ldr	r0, [sp, #64]
.Ltmp108:
	.loc	2 394 9                         @ ../main.c:394:9
	cmp	r0, #5
	bgt	.LBB11_7
	b	.LBB11_5
.LBB11_5:                               @   in Loop: Header=BB11_4 Depth=1
.Ltmp109:
	.loc	2 396 34 is_stmt 1              @ ../main.c:396:34
	ldr	r0, [sp, #64]
	.loc	2 396 13 is_stmt 0              @ ../main.c:396:13
	lsls	r2, r0, #2
	ldr	r1, __arm_cp.11_3
	movs	r0, #0
	.loc	2 396 45                        @ ../main.c:396:45
	strh	r0, [r1, r2]
	.loc	2 397 34 is_stmt 1              @ ../main.c:397:34
	ldr	r2, [sp, #64]
	.loc	2 397 13 is_stmt 0              @ ../main.c:397:13
	lsls	r2, r2, #2
	adds	r1, r1, r2
	.loc	2 397 47                        @ ../main.c:397:47
	strh	r0, [r1, #2]
	.loc	2 398 9 is_stmt 1               @ ../main.c:398:9
	b	.LBB11_6
.Ltmp110:
.LBB11_6:                               @   in Loop: Header=BB11_4 Depth=1
	.loc	2 394 55                        @ ../main.c:394:55
	ldr	r0, [sp, #64]
	adds	r0, r0, #1
	str	r0, [sp, #64]
	.loc	2 394 9 is_stmt 0               @ ../main.c:394:9
	b	.LBB11_4
.Ltmp111:
.LBB11_7:
	.loc	2 400 9 is_stmt 1               @ ../main.c:400:9
	ldr	r0, __arm_cp.11_1
	ldr	r2, __arm_cp.11_3
	movs	r1, #16
	movs	r3, #24
	bl	Write_EEPROM
	.loc	2 401 5                         @ ../main.c:401:5
	b	.LBB11_8
.Ltmp112:
.LBB11_8:
	.loc	2 404 5                         @ ../main.c:404:5
	ldr	r0, __arm_cp.11_1
	str	r0, [sp]                        @ 4-byte Spill
	ldr	r2, __arm_cp.11_5
	str	r2, [sp, #4]                    @ 4-byte Spill
	movs	r1, #224
	movs	r3, #16
	str	r3, [sp, #16]                   @ 4-byte Spill
	bl	Read_EEPROM
	ldr	r3, [sp, #16]                   @ 4-byte Reload
                                        @ kill: def $r1 killed $r0
	.loc	2 406 2                         @ ../main.c:406:2
	ldr	r0, [sp]                        @ 4-byte Reload
	ldr	r2, __arm_cp.11_6
	str	r2, [sp, #8]                    @ 4-byte Spill
	movs	r1, #208
	bl	Read_EEPROM
	ldr	r3, [sp, #16]                   @ 4-byte Reload
                                        @ kill: def $r1 killed $r0
	.loc	2 408 2                         @ ../main.c:408:2
	ldr	r0, [sp]                        @ 4-byte Reload
	ldr	r2, __arm_cp.11_7
	str	r2, [sp, #12]                   @ 4-byte Spill
	movs	r1, #192
	bl	Read_EEPROM
	.loc	2 412 5                         @ ../main.c:412:5
	ldr	r1, __arm_cp.11_2
	ldrb	r2, [r1, #3]
	ldr	r0, __arm_cp.11_8
	str	r0, [sp, #20]                   @ 4-byte Spill
	strb	r2, [r0, #3]
	ldrb	r2, [r1, #2]
	strb	r2, [r0, #2]
	ldrb	r2, [r1, #1]
	strb	r2, [r0, #1]
	ldrb	r2, [r1]
	strb	r2, [r0]
	.loc	2 413 5                         @ ../main.c:413:5
	ldrb	r2, [r1, #7]
	strb	r2, [r0, #7]
	ldrb	r2, [r1, #6]
	strb	r2, [r0, #6]
	ldrb	r2, [r1, #5]
	strb	r2, [r0, #5]
	ldrb	r2, [r1, #4]
	strb	r2, [r0, #4]
	.loc	2 414 5                         @ ../main.c:414:5
	ldrb	r2, [r1, #11]
	strb	r2, [r0, #11]
	ldrb	r2, [r1, #10]
	strb	r2, [r0, #10]
	ldrb	r2, [r1, #9]
	strb	r2, [r0, #9]
	ldrb	r2, [r1, #8]
	strb	r2, [r0, #8]
	.loc	2 415 53                        @ ../main.c:415:53
	ldrb	r2, [r1, #12]
	.loc	2 415 39 is_stmt 0              @ ../main.c:415:39
	strb	r2, [r0, #12]
	.loc	2 416 50 is_stmt 1              @ ../main.c:416:50
	ldrb	r1, [r1, #13]
	.loc	2 416 36 is_stmt 0              @ ../main.c:416:36
	strb	r1, [r0, #13]
	.loc	2 418 5 is_stmt 1               @ ../main.c:418:5
	adds	r0, #16
	ldr	r1, __arm_cp.11_3
	movs	r2, #24
	bl	__aeabi_memcpy
	ldr	r1, [sp, #4]                    @ 4-byte Reload
	ldr	r2, [sp, #16]                   @ 4-byte Reload
                                        @ kill: def $r3 killed $r0
	.loc	2 421 5                         @ ../main.c:421:5
	ldr	r0, [sp, #20]                   @ 4-byte Reload
	adds	r0, #224
	bl	__aeabi_memcpy
	ldr	r1, [sp, #8]                    @ 4-byte Reload
	ldr	r2, [sp, #16]                   @ 4-byte Reload
                                        @ kill: def $r3 killed $r0
	.loc	2 422 5                         @ ../main.c:422:5
	ldr	r0, [sp, #20]                   @ 4-byte Reload
	adds	r0, #208
	bl	__aeabi_memcpy
	ldr	r1, [sp, #12]                   @ 4-byte Reload
	ldr	r2, [sp, #16]                   @ 4-byte Reload
                                        @ kill: def $r3 killed $r0
	.loc	2 423 5                         @ ../main.c:423:5
	ldr	r0, [sp, #20]                   @ 4-byte Reload
	adds	r0, #192
	bl	__aeabi_memcpy
	.loc	2 424 1 epilogue_begin          @ ../main.c:424:1
	add	sp, #72
	pop	{r7, pc}
.Ltmp113:
	.p2align	2
@ %bb.9:
	.loc	2 0 1 is_stmt 0                 @ ../main.c:0:1
__arm_cp.11_0:
	.long	eeprom_system
.Lcpi_end34:
	.size	__arm_cp.11_0, .Lcpi_end34-__arm_cp.11_0
__arm_cp.11_1:
	.long	eeprom_user
.Lcpi_end35:
	.size	__arm_cp.11_1, .Lcpi_end35-__arm_cp.11_1
__arm_cp.11_2:
	.long	g_AppConfig
.Lcpi_end36:
	.size	__arm_cp.11_2, .Lcpi_end36-__arm_cp.11_2
__arm_cp.11_3:
	.long	g_CalibData
.Lcpi_end37:
	.size	__arm_cp.11_3, .Lcpi_end37-__arm_cp.11_3
__arm_cp.11_4:
	.long	65535                           @ 0xffff
.Lcpi_end38:
	.size	__arm_cp.11_4, .Lcpi_end38-__arm_cp.11_4
__arm_cp.11_5:
	.long	g_au8SerialNumber
.Lcpi_end39:
	.size	__arm_cp.11_5, .Lcpi_end39-__arm_cp.11_5
__arm_cp.11_6:
	.long	g_au8LotID
.Lcpi_end40:
	.size	__arm_cp.11_6, .Lcpi_end40-__arm_cp.11_6
__arm_cp.11_7:
	.long	g_au8MFGDate
.Lcpi_end41:
	.size	__arm_cp.11_7, .Lcpi_end41-__arm_cp.11_7
__arm_cp.11_8:
	.long	eeprom_ram
.Lcpi_end42:
	.size	__arm_cp.11_8, .Lcpi_end42-__arm_cp.11_8
.Lfunc_end11:
	.size	Config_Load, .Lfunc_end11-Config_Load
	.cfi_endproc
	.cantunwind
	.fnend
                                        @ -- End function
	.section	.text.Init_App_Setting_U32,"ax",%progbits
	.p2align	1                               @ -- Begin function Init_App_Setting_U32
	.type	Init_App_Setting_U32,%function
	.code	16                              @ @Init_App_Setting_U32
	.thumb_func
Init_App_Setting_U32:
.Lfunc_begin12:
	.loc	2 272 0 is_stmt 1               @ ../main.c:272:0
	.fnstart
	.cfi_startproc
@ %bb.0:
	.save	{r7, lr}
	push	{r7, lr}
	.cfi_def_cfa_offset 8
	.cfi_offset lr, -4
	.cfi_offset r7, -8
	.pad	#16
	sub	sp, #16
	.cfi_def_cfa_offset 24
	str	r0, [sp, #12]
	str	r1, [sp, #8]
	str	r2, [sp, #4]
	str	r3, [sp]
.Ltmp114:
	.loc	2 273 17 prologue_end           @ ../main.c:273:17
	ldr	r0, [sp, #12]
	.loc	2 273 22 is_stmt 0              @ ../main.c:273:22
	ldr	r1, [sp, #8]
	.loc	2 273 41                        @ ../main.c:273:41
	ldr	r2, [sp, #4]
	movs	r3, #4
	.loc	2 273 5                         @ ../main.c:273:5
	bl	Read_EEPROM
.Ltmp115:
	.loc	2 274 10 is_stmt 1              @ ../main.c:274:10
	ldr	r0, [sp, #4]
	.loc	2 274 9 is_stmt 0               @ ../main.c:274:9
	ldr	r0, [r0]
	.loc	2 274 30                        @ ../main.c:274:30
	adds	r0, r0, #1
	cbz	r0, .LBB12_2
	b	.LBB12_1
.LBB12_1:
	.loc	2 274 34                        @ ../main.c:274:34
	ldr	r0, [sp, #4]
	.loc	2 274 33                        @ ../main.c:274:33
	ldr	r0, [r0]
.Ltmp116:
	.loc	2 274 9                         @ ../main.c:274:9
	cbnz	r0, .LBB12_3
	b	.LBB12_2
.LBB12_2:
.Ltmp117:
	.loc	2 276 18 is_stmt 1              @ ../main.c:276:18
	ldr	r0, [sp]
	.loc	2 276 10 is_stmt 0              @ ../main.c:276:10
	ldr	r1, [sp, #4]
	.loc	2 276 16                        @ ../main.c:276:16
	str	r0, [r1]
	.loc	2 277 22 is_stmt 1              @ ../main.c:277:22
	ldr	r0, [sp, #12]
	.loc	2 277 27 is_stmt 0              @ ../main.c:277:27
	ldr	r1, [sp, #8]
	.loc	2 277 46                        @ ../main.c:277:46
	ldr	r2, [sp, #4]
	movs	r3, #4
	.loc	2 277 9                         @ ../main.c:277:9
	bl	Write_EEPROM
	.loc	2 278 5 is_stmt 1               @ ../main.c:278:5
	b	.LBB12_3
.Ltmp118:
.LBB12_3:
	.loc	2 279 1 epilogue_begin          @ ../main.c:279:1
	add	sp, #16
	pop	{r7, pc}
.Ltmp119:
.Lfunc_end12:
	.size	Init_App_Setting_U32, .Lfunc_end12-Init_App_Setting_U32
	.cfi_endproc
	.cantunwind
	.fnend
                                        @ -- End function
	.section	.text.Init_App_Setting_U8,"ax",%progbits
	.p2align	1                               @ -- Begin function Init_App_Setting_U8
	.type	Init_App_Setting_U8,%function
	.code	16                              @ @Init_App_Setting_U8
	.thumb_func
Init_App_Setting_U8:
.Lfunc_begin13:
	.loc	2 283 0                         @ ../main.c:283:0
	.fnstart
	.cfi_startproc
@ %bb.0:
	.save	{r4, lr}
	push	{r4, lr}
	.cfi_def_cfa_offset 8
	.cfi_offset lr, -4
	.cfi_offset r4, -8
	.pad	#16
	sub	sp, #16
	.cfi_def_cfa_offset 24
                                        @ kill: def $r4 killed $r3
	str	r0, [sp, #12]
	str	r1, [sp, #8]
	str	r2, [sp, #4]
	mov	r0, sp
	strb	r3, [r0]
.Ltmp120:
	.loc	2 284 17 prologue_end           @ ../main.c:284:17
	ldr	r0, [sp, #12]
	.loc	2 284 22 is_stmt 0              @ ../main.c:284:22
	ldr	r1, [sp, #8]
	.loc	2 284 30                        @ ../main.c:284:30
	ldr	r2, [sp, #4]
	movs	r3, #1
	.loc	2 284 5                         @ ../main.c:284:5
	bl	Read_EEPROM
.Ltmp121:
	.loc	2 285 10 is_stmt 1              @ ../main.c:285:10
	ldr	r0, [sp, #4]
	.loc	2 285 9 is_stmt 0               @ ../main.c:285:9
	ldrb	r0, [r0]
.Ltmp122:
	.loc	2 285 9                         @ ../main.c:285:9
	cmp	r0, #255
	bne	.LBB13_2
	b	.LBB13_1
.LBB13_1:
.Ltmp123:
	.loc	2 288 18 is_stmt 1              @ ../main.c:288:18
	ldr	r0, [sp]
	.loc	2 288 10 is_stmt 0              @ ../main.c:288:10
	ldr	r1, [sp, #4]
	.loc	2 288 16                        @ ../main.c:288:16
	strb	r0, [r1]
	.loc	2 289 22 is_stmt 1              @ ../main.c:289:22
	ldr	r0, [sp, #12]
	.loc	2 289 27 is_stmt 0              @ ../main.c:289:27
	ldr	r1, [sp, #8]
	.loc	2 289 35                        @ ../main.c:289:35
	ldr	r2, [sp, #4]
	movs	r3, #1
	.loc	2 289 9                         @ ../main.c:289:9
	bl	Write_EEPROM
	.loc	2 290 5 is_stmt 1               @ ../main.c:290:5
	b	.LBB13_2
.Ltmp124:
.LBB13_2:
	.loc	2 291 1 epilogue_begin          @ ../main.c:291:1
	add	sp, #16
	pop	{r4, pc}
.Ltmp125:
.Lfunc_end13:
	.size	Init_App_Setting_U8, .Lfunc_end13-Init_App_Setting_U8
	.cfi_endproc
	.cantunwind
	.fnend
                                        @ -- End function
	.section	.text.Protection_Handler,"ax",%progbits
	.hidden	Protection_Handler              @ -- Begin function Protection_Handler
	.globl	Protection_Handler
	.p2align	2
	.type	Protection_Handler,%function
	.code	16                              @ @Protection_Handler
	.thumb_func
Protection_Handler:
.Lfunc_begin14:
	.loc	2 430 0                         @ ../main.c:430:0
	.fnstart
	.cfi_startproc
@ %bb.0:
	.save	{r7, lr}
	push	{r7, lr}
	.cfi_def_cfa_offset 8
	.cfi_offset lr, -4
	.cfi_offset r7, -8
	.pad	#32
	sub	sp, #32
	.cfi_def_cfa_offset 40
.Ltmp126:
	.loc	2 432 8 prologue_end            @ ../main.c:432:8
	ldr	r0, __arm_cp.14_0
	ldrb	r0, [r0]
.Ltmp127:
	.loc	2 432 8 is_stmt 0               @ ../main.c:432:8
	cmp	r0, #1
	beq	.LBB14_1
	b	.LBB14_32
.LBB14_1:
.Ltmp128:
	.loc	2 436 9 is_stmt 1               @ ../main.c:436:9
	bl	Read_Monitor_Data_0
	.loc	2 441 9                         @ ../main.c:441:9
	bl	Read_Monitor_Data_1
.Ltmp129:
	.loc	2 444 13                        @ ../main.c:444:13
	ldr	r0, __arm_cp.14_1
	ldrb	r0, [r0]
.Ltmp130:
	.loc	2 444 13 is_stmt 0              @ ../main.c:444:13
	cmp	r0, #2
	bne	.LBB14_2
	b	.LBB14_27
.LBB14_2:
	.loc	2 0 13                          @ ../main.c:0:13
	add	r1, sp, #16
	movs	r0, #0
.Ltmp131:
	.loc	2 447 22 is_stmt 1              @ ../main.c:447:22
	strh	r0, [r1]
	add	r2, sp, #12
	ldr	r1, __arm_cp.14_2
	.loc	2 448 22                        @ ../main.c:448:22
	strh	r1, [r2]
.Ltmp132:
	.loc	2 452 20                        @ ../main.c:452:20
	str	r0, [sp, #8]
	.loc	2 452 18 is_stmt 0              @ ../main.c:452:18
	b	.LBB14_3
.LBB14_3:                               @ =>This Inner Loop Header: Depth=1
.Ltmp133:
	.loc	2 452 25                        @ ../main.c:452:25
	ldr	r0, [sp, #8]
.Ltmp134:
	.loc	2 452 13                        @ ../main.c:452:13
	cmp	r0, #5
	bgt	.LBB14_6
	b	.LBB14_4
.LBB14_4:                               @   in Loop: Header=BB14_3 Depth=1
.Ltmp135:
	.loc	2 454 66 is_stmt 1              @ ../main.c:454:66
	ldr	r0, [sp, #8]
	.loc	2 454 68 is_stmt 0              @ ../main.c:454:68
	lsls	r0, r0, #2
	.loc	2 454 63                        @ ../main.c:454:63
	adds	r0, #48
	add	r2, sp, #4
	.loc	2 454 26                        @ ../main.c:454:26
	strh	r0, [r2]
	.loc	2 455 43 is_stmt 1              @ ../main.c:455:43
	ldrh	r0, [r2]
	.loc	2 455 32 is_stmt 0              @ ../main.c:455:32
	ldr	r1, __arm_cp.14_7
	.loc	2 455 50                        @ ../main.c:455:50
	adds	r0, r0, r1
	.loc	2 455 32                        @ ../main.c:455:32
	ldrb	r0, [r0, #1]
	.loc	2 455 55                        @ ../main.c:455:55
	lsls	r0, r0, #8
	.loc	2 455 74                        @ ../main.c:455:74
	ldrh	r2, [r2]
	.loc	2 455 63                        @ ../main.c:455:63
	ldrb	r1, [r1, r2]
	.loc	2 455 61                        @ ../main.c:455:61
	adds	r0, r0, r1
	.loc	2 455 26                        @ ../main.c:455:26
	ldr	r1, [sp, #8]
	.loc	2 455 17                        @ ../main.c:455:17
	lsls	r2, r1, #1
	add	r1, sp, #20
	.loc	2 455 29                        @ ../main.c:455:29
	strh	r0, [r1, r2]
	.loc	2 456 13 is_stmt 1              @ ../main.c:456:13
	b	.LBB14_5
.Ltmp136:
.LBB14_5:                               @   in Loop: Header=BB14_3 Depth=1
	.loc	2 452 33                        @ ../main.c:452:33
	ldr	r0, [sp, #8]
	adds	r0, r0, #1
	str	r0, [sp, #8]
	.loc	2 452 13 is_stmt 0              @ ../main.c:452:13
	b	.LBB14_3
.Ltmp137:
.LBB14_6:
	.loc	2 0 13                          @ ../main.c:0:13
	movs	r0, #0
.Ltmp138:
	.loc	2 459 20 is_stmt 1              @ ../main.c:459:20
	str	r0, [sp, #8]
	.loc	2 459 18 is_stmt 0              @ ../main.c:459:18
	b	.LBB14_7
.LBB14_7:                               @ =>This Inner Loop Header: Depth=1
.Ltmp139:
	.loc	2 459 25                        @ ../main.c:459:25
	ldr	r0, [sp, #8]
.Ltmp140:
	.loc	2 459 13                        @ ../main.c:459:13
	cmp	r0, #5
	bgt	.LBB14_14
	b	.LBB14_8
.LBB14_8:                               @   in Loop: Header=BB14_7 Depth=1
.Ltmp141:
	.loc	2 461 30 is_stmt 1              @ ../main.c:461:30
	ldr	r0, [sp, #8]
	.loc	2 461 21 is_stmt 0              @ ../main.c:461:21
	lsls	r1, r0, #1
	add	r0, sp, #20
	ldrh	r0, [r0, r1]
	add	r1, sp, #16
	.loc	2 461 35                        @ ../main.c:461:35
	ldrh	r1, [r1]
.Ltmp142:
	.loc	2 461 21                        @ ../main.c:461:21
	cmp	r0, r1
	ble	.LBB14_10
	b	.LBB14_9
.LBB14_9:                               @   in Loop: Header=BB14_7 Depth=1
.Ltmp143:
	.loc	2 461 71                        @ ../main.c:461:71
	ldr	r0, [sp, #8]
	.loc	2 461 62                        @ ../main.c:461:62
	lsls	r1, r0, #1
	add	r0, sp, #20
	ldrh	r0, [r0, r1]
	add	r1, sp, #16
	.loc	2 461 60                        @ ../main.c:461:60
	strh	r0, [r1]
	.loc	2 461 48                        @ ../main.c:461:48
	b	.LBB14_10
.Ltmp144:
.LBB14_10:                              @   in Loop: Header=BB14_7 Depth=1
	.loc	2 462 30 is_stmt 1              @ ../main.c:462:30
	ldr	r0, [sp, #8]
	.loc	2 462 21 is_stmt 0              @ ../main.c:462:21
	lsls	r1, r0, #1
	add	r0, sp, #20
	ldrh	r0, [r0, r1]
	add	r1, sp, #12
	.loc	2 462 35                        @ ../main.c:462:35
	ldrh	r1, [r1]
.Ltmp145:
	.loc	2 462 21                        @ ../main.c:462:21
	cmp	r0, r1
	bge	.LBB14_12
	b	.LBB14_11
.LBB14_11:                              @   in Loop: Header=BB14_7 Depth=1
.Ltmp146:
	.loc	2 462 71                        @ ../main.c:462:71
	ldr	r0, [sp, #8]
	.loc	2 462 62                        @ ../main.c:462:62
	lsls	r1, r0, #1
	add	r0, sp, #20
	ldrh	r0, [r0, r1]
	add	r1, sp, #12
	.loc	2 462 60                        @ ../main.c:462:60
	strh	r0, [r1]
	.loc	2 462 48                        @ ../main.c:462:48
	b	.LBB14_12
.Ltmp147:
.LBB14_12:                              @   in Loop: Header=BB14_7 Depth=1
	.loc	2 463 13 is_stmt 1              @ ../main.c:463:13
	b	.LBB14_13
.Ltmp148:
.LBB14_13:                              @   in Loop: Header=BB14_7 Depth=1
	.loc	2 459 33                        @ ../main.c:459:33
	ldr	r0, [sp, #8]
	adds	r0, r0, #1
	str	r0, [sp, #8]
	.loc	2 459 13 is_stmt 0              @ ../main.c:459:13
	b	.LBB14_7
.Ltmp149:
.LBB14_14:
	.loc	2 0 13                          @ ../main.c:0:13
	add	r0, sp, #16
.Ltmp150:
	.loc	2 466 18 is_stmt 1              @ ../main.c:466:18
	ldrh	r0, [r0]
	add	r1, sp, #12
	.loc	2 466 32 is_stmt 0              @ ../main.c:466:32
	ldrh	r1, [r1]
	.loc	2 466 30                        @ ../main.c:466:30
	subs	r0, r0, r1
	.loc	2 466 60                        @ ../main.c:466:60
	ldr	r1, __arm_cp.14_3
	ldr	r1, [r1, #4]
	movs	r2, #10
	.loc	2 466 83                        @ ../main.c:466:83
	udiv	r1, r1, r2
.Ltmp151:
	.loc	2 466 17                        @ ../main.c:466:17
	cmp	r0, r1
	bls	.LBB14_18
	b	.LBB14_15
.LBB14_15:
.Ltmp152:
	.loc	2 468 21 is_stmt 1              @ ../main.c:468:21
	ldr	r0, __arm_cp.14_4
	ldrb	r0, [r0]
.Ltmp153:
	.loc	2 468 21 is_stmt 0              @ ../main.c:468:21
	cmp	r0, #2
	bgt	.LBB14_17
	b	.LBB14_16
.LBB14_16:
.Ltmp154:
	.loc	2 470 49 is_stmt 1              @ ../main.c:470:49
	ldr	r1, __arm_cp.14_4
	ldrb	r0, [r1]
	adds	r0, r0, #1
	strb	r0, [r1]
	.loc	2 471 17                        @ ../main.c:471:17
	b	.LBB14_17
.Ltmp155:
.LBB14_17:
	.loc	2 472 13                        @ ../main.c:472:13
	b	.LBB14_19
.Ltmp156:
.LBB14_18:
	.loc	2 476 46                        @ ../main.c:476:46
	ldr	r1, __arm_cp.14_4
	movs	r0, #0
	strb	r0, [r1]
	b	.LBB14_19
.Ltmp157:
.LBB14_19:
	.loc	2 480 17                        @ ../main.c:480:17
	ldr	r0, __arm_cp.14_4
	ldrb	r0, [r0]
.Ltmp158:
	.loc	2 480 17 is_stmt 0              @ ../main.c:480:17
	cmp	r0, #3
	blt	.LBB14_23
	b	.LBB14_20
.LBB14_20:
.Ltmp159:
	.loc	2 483 21 is_stmt 1              @ ../main.c:483:21
	ldr	r0, __arm_cp.14_1
	ldrb	r0, [r0]
.Ltmp160:
	.loc	2 483 21 is_stmt 0              @ ../main.c:483:21
	cbnz	r0, .LBB14_22
	b	.LBB14_21
.LBB14_21:
.Ltmp161:
	.loc	2 486 36 is_stmt 1              @ ../main.c:486:36
	ldr	r1, __arm_cp.14_1
	movs	r0, #1
	strb	r0, [r1]
	.loc	2 487 59                        @ ../main.c:487:59
	ldr	r1, __arm_cp.14_3
	ldr	r1, [r1, #8]
	.loc	2 487 45 is_stmt 0              @ ../main.c:487:45
	ldr	r2, __arm_cp.14_5
	str	r1, [r2]
	.loc	2 488 39 is_stmt 1              @ ../main.c:488:39
	ldr	r1, __arm_cp.14_6
	strb	r0, [r1]
	.loc	2 489 55                        @ ../main.c:489:55
	ldr	r1, __arm_cp.14_7
	ldrb	r0, [r1, #14]
	movs	r2, #8
	orrs	r0, r2
	strb	r0, [r1, #14]
	ldr	r1, __arm_cp.14_8
	.loc	2 491 42                        @ ../main.c:491:42
	ldr	r0, [r1]
	movs	r2, #4
	orrs	r0, r2
	str	r0, [r1]
	.loc	2 493 17                        @ ../main.c:493:17
	b	.LBB14_22
.Ltmp162:
.LBB14_22:
	.loc	2 494 13                        @ ../main.c:494:13
	b	.LBB14_26
.Ltmp163:
.LBB14_23:
	.loc	2 495 22                        @ ../main.c:495:22
	ldr	r0, __arm_cp.14_1
	ldrb	r0, [r0]
.Ltmp164:
	.loc	2 495 22 is_stmt 0              @ ../main.c:495:22
	cmp	r0, #1
	bne	.LBB14_25
	b	.LBB14_24
.LBB14_24:
.Ltmp165:
	.loc	2 498 32 is_stmt 1              @ ../main.c:498:32
	ldr	r1, __arm_cp.14_1
	movs	r0, #0
	strb	r0, [r1]
	.loc	2 499 41                        @ ../main.c:499:41
	ldr	r1, __arm_cp.14_5
	str	r0, [r1]
	.loc	2 500 35                        @ ../main.c:500:35
	ldr	r1, __arm_cp.14_6
	strb	r0, [r1]
	.loc	2 501 51                        @ ../main.c:501:51
	ldr	r1, __arm_cp.14_7
	ldrb	r0, [r1, #14]
	movs	r2, #247
	ands	r0, r2
	strb	r0, [r1, #14]
	ldr	r1, __arm_cp.14_8
	.loc	2 502 38                        @ ../main.c:502:38
	ldr	r0, [r1]
	movs	r2, #4
	bics	r0, r2
	str	r0, [r1]
	.loc	2 503 35                        @ ../main.c:503:35
	ldr	r0, [r1]
	movs	r2, #8
	bics	r0, r2
	str	r0, [r1]
	.loc	2 504 13                        @ ../main.c:504:13
	b	.LBB14_25
.Ltmp166:
.LBB14_25:
	.loc	2 0 13 is_stmt 0                @ ../main.c:0:13
	b	.LBB14_26
.LBB14_26:
	.loc	2 505 9 is_stmt 1               @ ../main.c:505:9
	b	.LBB14_27
.Ltmp167:
.LBB14_27:
	.loc	2 507 13                        @ ../main.c:507:13
	ldr	r0, __arm_cp.14_1
	ldrb	r0, [r0]
.Ltmp168:
	.loc	2 507 13 is_stmt 0              @ ../main.c:507:13
	cmp	r0, #2
	bne	.LBB14_31
	b	.LBB14_28
.LBB14_28:
.Ltmp169:
	.loc	2 509 17 is_stmt 1              @ ../main.c:509:17
	ldr	r0, __arm_cp.14_9
	ldrb	r0, [r0]
.Ltmp170:
	.loc	2 509 17 is_stmt 0              @ ../main.c:509:17
	cbnz	r0, .LBB14_30
	b	.LBB14_29
.LBB14_29:
.Ltmp171:
	.loc	2 511 17 is_stmt 1              @ ../main.c:511:17
	bl	Save_Log_Entry
	.loc	2 512 37                        @ ../main.c:512:37
	ldr	r1, __arm_cp.14_9
	movs	r0, #1
	strb	r0, [r1]
	.loc	2 513 13                        @ ../main.c:513:13
	b	.LBB14_30
.Ltmp172:
.LBB14_30:
	.loc	2 0 13 is_stmt 0                @ ../main.c:0:13
	ldr	r1, __arm_cp.14_8
	.loc	2 514 33 is_stmt 1              @ ../main.c:514:33
	ldr	r0, [r1]
	movs	r2, #32
	orrs	r0, r2
	str	r0, [r1]
	.loc	2 515 9                         @ ../main.c:515:9
	b	.LBB14_31
.Ltmp173:
.LBB14_31:
	.loc	2 517 23                        @ ../main.c:517:23
	ldr	r1, __arm_cp.14_0
	movs	r0, #0
	strb	r0, [r1]
	.loc	2 518 5                         @ ../main.c:518:5
	b	.LBB14_32
.Ltmp174:
.LBB14_32:
	.loc	2 521 9                         @ ../main.c:521:9
	ldr	r0, __arm_cp.14_10
	ldrb	r0, [r0]
.Ltmp175:
	.loc	2 521 9 is_stmt 0               @ ../main.c:521:9
	cbz	r0, .LBB14_36
	b	.LBB14_33
.LBB14_33:
.Ltmp176:
	.loc	2 523 13 is_stmt 1              @ ../main.c:523:13
	ldr	r0, __arm_cp.14_9
	ldrb	r0, [r0]
.Ltmp177:
	.loc	2 523 13 is_stmt 0              @ ../main.c:523:13
	cbnz	r0, .LBB14_35
	b	.LBB14_34
.LBB14_34:
.Ltmp178:
	.loc	2 526 13 is_stmt 1              @ ../main.c:526:13
	bl	Read_Monitor_Data_0
	.loc	2 527 13                        @ ../main.c:527:13
	bl	Read_Monitor_Data_1
	.loc	2 530 13                        @ ../main.c:530:13
	bl	Save_Log_Entry
	.loc	2 531 33                        @ ../main.c:531:33
	ldr	r1, __arm_cp.14_9
	movs	r0, #1
	strb	r0, [r1]
	ldr	r1, __arm_cp.14_8
	.loc	2 532 33                        @ ../main.c:532:33
	ldr	r0, [r1]
	movs	r2, #32
	orrs	r0, r2
	str	r0, [r1]
	.loc	2 533 9                         @ ../main.c:533:9
	b	.LBB14_35
.Ltmp179:
.LBB14_35:
	.loc	2 534 32                        @ ../main.c:534:32
	ldr	r1, __arm_cp.14_10
	movs	r0, #0
	strb	r0, [r1]
	.loc	2 535 5                         @ ../main.c:535:5
	b	.LBB14_36
.Ltmp180:
.LBB14_36:
	.loc	2 536 1 epilogue_begin          @ ../main.c:536:1
	add	sp, #32
	pop	{r7, pc}
.Ltmp181:
	.p2align	2
@ %bb.37:
	.loc	2 0 1 is_stmt 0                 @ ../main.c:0:1
__arm_cp.14_0:
	.long	u8MonitorFlag
.Lcpi_end43:
	.size	__arm_cp.14_0, .Lcpi_end43-__arm_cp.14_0
__arm_cp.14_1:
	.long	g_system_state
.Lcpi_end44:
	.size	__arm_cp.14_1, .Lcpi_end44-__arm_cp.14_1
__arm_cp.14_2:
	.long	65535                           @ 0xffff
.Lcpi_end45:
	.size	__arm_cp.14_2, .Lcpi_end45-__arm_cp.14_2
__arm_cp.14_3:
	.long	g_AppConfig
.Lcpi_end46:
	.size	__arm_cp.14_3, .Lcpi_end46-__arm_cp.14_3
__arm_cp.14_4:
	.long	g_u8ImbalanceDebounceCounter
.Lcpi_end47:
	.size	__arm_cp.14_4, .Lcpi_end47-__arm_cp.14_4
__arm_cp.14_5:
	.long	g_u32WarningCountdownMs
.Lcpi_end48:
	.size	__arm_cp.14_5, .Lcpi_end48-__arm_cp.14_5
__arm_cp.14_6:
	.long	g_u8BuzzerPattern
.Lcpi_end49:
	.size	__arm_cp.14_6, .Lcpi_end49-__arm_cp.14_6
__arm_cp.14_7:
	.long	eeprom_ram
.Lcpi_end50:
	.size	__arm_cp.14_7, .Lcpi_end50-__arm_cp.14_7
__arm_cp.14_8:
	.long	1073758344                      @ 0x40004088
.Lcpi_end51:
	.size	__arm_cp.14_8, .Lcpi_end51-__arm_cp.14_8
__arm_cp.14_9:
	.long	g_bLogSavedForLatch
.Lcpi_end52:
	.size	__arm_cp.14_9, .Lcpi_end52-__arm_cp.14_9
__arm_cp.14_10:
	.long	g_u8HwWarningTriggered
.Lcpi_end53:
	.size	__arm_cp.14_10, .Lcpi_end53-__arm_cp.14_10
.Lfunc_end14:
	.size	Protection_Handler, .Lfunc_end14-Protection_Handler
	.cfi_endproc
	.cantunwind
	.fnend
                                        @ -- End function
	.section	.text.ISP_Handler,"ax",%progbits
	.hidden	ISP_Handler                     @ -- Begin function ISP_Handler
	.globl	ISP_Handler
	.p2align	2
	.type	ISP_Handler,%function
	.code	16                              @ @ISP_Handler
	.thumb_func
ISP_Handler:
.Lfunc_begin15:
	.loc	2 542 0 is_stmt 1               @ ../main.c:542:0
	.fnstart
	.cfi_startproc
@ %bb.0:
	.save	{r7, lr}
	push	{r7, lr}
	.cfi_def_cfa_offset 8
	.cfi_offset lr, -4
	.cfi_offset r7, -8
	.pad	#8
	sub	sp, #8
	.cfi_def_cfa_offset 16
.Ltmp182:
	.loc	2 543 9 prologue_end            @ ../main.c:543:9
	ldr	r0, __arm_cp.15_0
	ldrb	r0, [r0]
.Ltmp183:
	.loc	2 543 9 is_stmt 0               @ ../main.c:543:9
	cmp	r0, #1
	bne	.LBB15_3
	b	.LBB15_1
.LBB15_1:
.Ltmp184:
	.loc	2 545 9 is_stmt 1               @ ../main.c:545:9
	bl	SYS_UnlockReg
	ldr	r1, __arm_cp.15_1
	movs	r0, #3
	.loc	2 546 9                         @ ../main.c:546:9
	str	r0, [r1]
	.loc	2 548 9                         @ ../main.c:548:9
	bl	FMC_Open
	movs	r0, #1
	.loc	2 549 9                         @ ../main.c:549:9
	str	r0, [sp, #4]                    @ 4-byte Spill
	bl	FMC_SetBootSource
	ldr	r0, [sp, #4]                    @ 4-byte Reload
	movs	r1, #0
	mvns	r1, r1
	ldr	r2, __arm_cp.15_2
	.loc	2 550 23                        @ ../main.c:550:23
	str	r1, [r2]
	lsls	r0, r0, #20
	.loc	2 552 9                         @ ../main.c:552:9
	bl	FMC_SetVectorPageAddr
	.loc	2 553 9                         @ ../main.c:553:9
	bl	SYS_ResetCPU
	.loc	2 554 9                         @ ../main.c:554:9
	b	.LBB15_2
.LBB15_2:                               @ =>This Inner Loop Header: Depth=1
	b	.LBB15_2
.Ltmp185:
.LBB15_3:
	.loc	2 556 1 epilogue_begin          @ ../main.c:556:1
	add	sp, #8
	pop	{r7, pc}
.Ltmp186:
	.p2align	2
@ %bb.4:
	.loc	2 0 1 is_stmt 0                 @ ../main.c:0:1
__arm_cp.15_0:
	.long	u8UpdateISPFlag
.Lcpi_end54:
	.size	__arm_cp.15_0, .Lcpi_end54-__arm_cp.15_0
__arm_cp.15_1:
	.long	1073741828                      @ 0x40000004
.Lcpi_end55:
	.size	__arm_cp.15_1, .Lcpi_end55-__arm_cp.15_1
__arm_cp.15_2:
	.long	3758154368                      @ 0xe000e280
.Lcpi_end56:
	.size	__arm_cp.15_2, .Lcpi_end56-__arm_cp.15_2
.Lfunc_end15:
	.size	ISP_Handler, .Lfunc_end15-ISP_Handler
	.cfi_endproc
	.cantunwind
	.fnend
                                        @ -- End function
	.section	.text.FMC_SetVectorPageAddr,"ax",%progbits
	.p2align	2                               @ -- Begin function FMC_SetVectorPageAddr
	.type	FMC_SetVectorPageAddr,%function
	.code	16                              @ @FMC_SetVectorPageAddr
	.thumb_func
FMC_SetVectorPageAddr:
.Lfunc_begin16:
	.loc	6 586 0 is_stmt 1               @ ../../../../Library/StdDriver/inc\fmc.h:586:0
	.fnstart
	.cfi_startproc
@ %bb.0:
	.pad	#12
	sub	sp, #12
	.cfi_def_cfa_offset 12
	str	r0, [sp, #8]
.Ltmp187:
	.loc	6 587 21 prologue_end           @ ../../../../Library/StdDriver/inc\fmc.h:587:21
	ldr	r0, __arm_cp.16_0
	ldr	r0, [r0]
	movs	r1, #10
	udiv	r0, r0, r1
	lsls	r0, r0, #1
	.loc	6 587 14 is_stmt 0              @ ../../../../Library/StdDriver/inc\fmc.h:587:14
	str	r0, [sp, #4]
	.loc	6 589 22 is_stmt 1              @ ../../../../Library/StdDriver/inc\fmc.h:589:22
	ldr	r1, __arm_cp.16_1
	movs	r0, #0
	str	r0, [r1]
	ldr	r1, __arm_cp.16_2
	movs	r0, #46
	.loc	6 590 17                        @ ../../../../Library/StdDriver/inc\fmc.h:590:17
	str	r0, [r1]
	.loc	6 591 20                        @ ../../../../Library/StdDriver/inc\fmc.h:591:20
	ldr	r0, [sp, #8]
	ldr	r1, __arm_cp.16_3
	.loc	6 591 18 is_stmt 0              @ ../../../../Library/StdDriver/inc\fmc.h:591:18
	str	r0, [r1]
	ldr	r1, __arm_cp.16_4
	movs	r0, #1
	.loc	6 592 17 is_stmt 1              @ ../../../../Library/StdDriver/inc\fmc.h:592:17
	str	r0, [r1]
	.loc	6 598 5                         @ ../../../../Library/StdDriver/inc\fmc.h:598:5
	b	.LBB16_1
.LBB16_1:                               @ =>This Inner Loop Header: Depth=1
	.loc	6 598 17 is_stmt 0              @ ../../../../Library/StdDriver/inc\fmc.h:598:17
	ldr	r1, [sp, #4]
	subs	r0, r1, #1
	str	r0, [sp, #4]
	movs	r0, #0
	.loc	6 598 25                        @ ../../../../Library/StdDriver/inc\fmc.h:598:25
	cmp	r1, #1
	str	r0, [sp]                        @ 4-byte Spill
	blt	.LBB16_3
	b	.LBB16_2
.LBB16_2:                               @   in Loop: Header=BB16_1 Depth=1
	.loc	6 0 25                          @ ../../../../Library/StdDriver/inc\fmc.h:0:25
	ldr	r0, __arm_cp.16_4
	.loc	6 598 34                        @ ../../../../Library/StdDriver/inc\fmc.h:598:34
	ldr	r0, [r0]
	movs	r1, #1
	.loc	6 598 41                        @ ../../../../Library/StdDriver/inc\fmc.h:598:41
	ands	r0, r1
	str	r0, [sp]                        @ 4-byte Spill
	b	.LBB16_3
.LBB16_3:                               @   in Loop: Header=BB16_1 Depth=1
	.loc	6 0 0                           @ ../../../../Library/StdDriver/inc\fmc.h:0:0
	ldr	r0, [sp]                        @ 4-byte Reload
	.loc	6 598 5                         @ ../../../../Library/StdDriver/inc\fmc.h:598:5
	lsls	r0, r0, #31
	cbz	r0, .LBB16_5
	b	.LBB16_4
.LBB16_4:                               @   in Loop: Header=BB16_1 Depth=1
	b	.LBB16_1
.LBB16_5:
.Ltmp188:
	.loc	6 600 9 is_stmt 1               @ ../../../../Library/StdDriver/inc\fmc.h:600:9
	ldr	r0, [sp, #4]
.Ltmp189:
	.loc	6 600 9 is_stmt 0               @ ../../../../Library/StdDriver/inc\fmc.h:600:9
	cmp	r0, #0
	bgt	.LBB16_7
	b	.LBB16_6
.LBB16_6:
.Ltmp190:
	.loc	6 602 26 is_stmt 1              @ ../../../../Library/StdDriver/inc\fmc.h:602:26
	ldr	r1, __arm_cp.16_1
	movs	r0, #0
	mvns	r0, r0
	str	r0, [r1]
	.loc	6 603 5                         @ ../../../../Library/StdDriver/inc\fmc.h:603:5
	b	.LBB16_7
.Ltmp191:
.LBB16_7:
	.loc	6 604 1 epilogue_begin          @ ../../../../Library/StdDriver/inc\fmc.h:604:1
	add	sp, #12
	bx	lr
.Ltmp192:
	.p2align	2
@ %bb.8:
	.loc	6 0 1 is_stmt 0                 @ ../../../../Library/StdDriver/inc\fmc.h:0:1
__arm_cp.16_0:
	.long	SystemCoreClock
.Lcpi_end57:
	.size	__arm_cp.16_0, .Lcpi_end57-__arm_cp.16_0
__arm_cp.16_1:
	.long	g_FMC_i32ErrCode
.Lcpi_end58:
	.size	__arm_cp.16_1, .Lcpi_end58-__arm_cp.16_1
__arm_cp.16_2:
	.long	1073790988                      @ 0x4000c00c
.Lcpi_end59:
	.size	__arm_cp.16_2, .Lcpi_end59-__arm_cp.16_2
__arm_cp.16_3:
	.long	1073790980                      @ 0x4000c004
.Lcpi_end60:
	.size	__arm_cp.16_3, .Lcpi_end60-__arm_cp.16_3
__arm_cp.16_4:
	.long	1073790992                      @ 0x4000c010
.Lcpi_end61:
	.size	__arm_cp.16_4, .Lcpi_end61-__arm_cp.16_4
.Lfunc_end16:
	.size	FMC_SetVectorPageAddr, .Lfunc_end16-FMC_SetVectorPageAddr
	.cfi_endproc
	.cantunwind
	.fnend
                                        @ -- End function
	.section	.text.Event_Log_Handler,"ax",%progbits
	.hidden	Event_Log_Handler               @ -- Begin function Event_Log_Handler
	.globl	Event_Log_Handler
	.p2align	2
	.type	Event_Log_Handler,%function
	.code	16                              @ @Event_Log_Handler
	.thumb_func
Event_Log_Handler:
.Lfunc_begin17:
	.loc	2 562 0 is_stmt 1               @ ../main.c:562:0
	.fnstart
	.cfi_startproc
@ %bb.0:
	.save	{r7, lr}
	push	{r7, lr}
	.cfi_def_cfa_offset 8
	.cfi_offset lr, -4
	.cfi_offset r7, -8
	.pad	#40
	sub	sp, #40
	.cfi_def_cfa_offset 48
.Ltmp193:
	.loc	2 564 9 prologue_end            @ ../main.c:564:9
	ldr	r0, __arm_cp.17_0
	ldrb	r0, [r0]
.Ltmp194:
	.loc	2 564 9 is_stmt 0               @ ../main.c:564:9
	cmp	r0, #1
	bne	.LBB17_5
	b	.LBB17_1
.LBB17_1:
.Ltmp195:
	.loc	2 566 27 is_stmt 1              @ ../main.c:566:27
	ldr	r1, __arm_cp.17_0
	movs	r0, #0
	strb	r0, [r1]
	.loc	2 569 31                        @ ../main.c:569:31
	ldr	r0, __arm_cp.17_1
	ldrb	r1, [r0, #15]
	add	r0, sp, #36
	.loc	2 569 17 is_stmt 0              @ ../main.c:569:17
	strb	r1, [r0]
.Ltmp196:
	.loc	2 571 13 is_stmt 1              @ ../main.c:571:13
	ldrb	r0, [r0]
.Ltmp197:
	.loc	2 571 13 is_stmt 0              @ ../main.c:571:13
	cmp	r0, #10
	bgt	.LBB17_3
	b	.LBB17_2
.LBB17_2:
	.loc	2 0 13                          @ ../main.c:0:13
	add	r0, sp, #36
.Ltmp198:
	.loc	2 574 36 is_stmt 1              @ ../main.c:574:36
	ldrb	r1, [r0]
	movs	r3, #24
	.loc	2 574 48 is_stmt 0              @ ../main.c:574:48
	mov	r0, r3
	muls	r0, r1, r0
	.loc	2 574 22                        @ ../main.c:574:22
	str	r0, [sp, #8]
	.loc	2 577 41 is_stmt 1              @ ../main.c:577:41
	ldr	r1, [sp, #8]
	.loc	2 577 13 is_stmt 0              @ ../main.c:577:13
	ldr	r0, __arm_cp.17_2
	add	r2, sp, #12
	str	r2, [sp, #4]                    @ 4-byte Spill
	bl	Read_EEPROM
	ldr	r1, [sp, #4]                    @ 4-byte Reload
	.loc	2 582 13 is_stmt 1              @ ../main.c:582:13
	ldr	r0, __arm_cp.17_1
	adds	r0, #128
	movs	r2, #20
	bl	__aeabi_memcpy
	.loc	2 583 9                         @ ../main.c:583:9
	b	.LBB17_4
.Ltmp199:
.LBB17_3:
	.loc	2 587 13                        @ ../main.c:587:13
	ldr	r0, __arm_cp.17_1
	adds	r0, #128
	movs	r1, #20
	movs	r2, #255
	bl	__aeabi_memset
	b	.LBB17_4
.Ltmp200:
.LBB17_4:
	.loc	2 589 5                         @ ../main.c:589:5
	b	.LBB17_5
.Ltmp201:
.LBB17_5:
	.loc	2 590 1 epilogue_begin          @ ../main.c:590:1
	add	sp, #40
	pop	{r7, pc}
.Ltmp202:
	.p2align	2
@ %bb.6:
	.loc	2 0 1 is_stmt 0                 @ ../main.c:0:1
__arm_cp.17_0:
	.long	u8EVEN_INDEX_FLAG
.Lcpi_end62:
	.size	__arm_cp.17_0, .Lcpi_end62-__arm_cp.17_0
__arm_cp.17_1:
	.long	eeprom_ram
.Lcpi_end63:
	.size	__arm_cp.17_1, .Lcpi_end63-__arm_cp.17_1
__arm_cp.17_2:
	.long	eeprom_system
.Lcpi_end64:
	.size	__arm_cp.17_2, .Lcpi_end64-__arm_cp.17_2
.Lfunc_end17:
	.size	Event_Log_Handler, .Lfunc_end17-Event_Log_Handler
	.cfi_endproc
	.cantunwind
	.fnend
                                        @ -- End function
	.section	.text.main,"ax",%progbits
	.hidden	main                            @ -- Begin function main
	.globl	main
	.p2align	2
	.type	main,%function
	.code	16                              @ @main
	.thumb_func
main:
.Lfunc_begin18:
	.loc	2 596 0 is_stmt 1               @ ../main.c:596:0
	.fnstart
	.cfi_startproc
@ %bb.0:
	.save	{r7, lr}
	push	{r7, lr}
	.cfi_def_cfa_offset 8
	.cfi_offset lr, -4
	.cfi_offset r7, -8
	.pad	#8
	sub	sp, #8
	.cfi_def_cfa_offset 16
	movs	r0, #0
	str	r0, [sp, #4]
.Ltmp203:
	.loc	2 598 5 prologue_end            @ ../main.c:598:5
	bl	SYS_UnlockReg
	.loc	2 601 5                         @ ../main.c:601:5
	bl	SYS_Init
	.loc	2 604 5                         @ ../main.c:604:5
	bl	SYS_LockReg
	.loc	2 607 5                         @ ../main.c:607:5
	bl	Peripherals_Init
	.loc	2 608 5                         @ ../main.c:608:5
	bl	Config_Load
	.loc	2 611 5                         @ ../main.c:611:5
	b	.LBB18_1
.LBB18_1:                               @ =>This Inner Loop Header: Depth=1
.Ltmp204:
	.loc	2 613 9                         @ ../main.c:613:9
	bl	Protection_Handler
	.loc	2 614 9                         @ ../main.c:614:9
	bl	ISP_Handler
	.loc	2 615 9                         @ ../main.c:615:9
	bl	Event_Log_Handler
.Ltmp205:
	.loc	2 616 13                        @ ../main.c:616:13
	ldr	r0, __arm_cp.18_0
	ldrb	r0, [r0]
.Ltmp206:
	.loc	2 616 13 is_stmt 0              @ ../main.c:616:13
	cmp	r0, #1
	bne	.LBB18_3
	b	.LBB18_2
.LBB18_2:                               @   in Loop: Header=BB18_1 Depth=1
.Ltmp207:
	.loc	2 618 24 is_stmt 1              @ ../main.c:618:24
	ldr	r1, __arm_cp.18_0
	movs	r0, #0
	strb	r0, [r1]
	.loc	2 620 13                        @ ../main.c:620:13
	ldr	r0, __arm_cp.18_1
	adds	r2, r0, #4
	ldr	r0, __arm_cp.18_2
	movs	r3, #4
	mov	r1, r3
	bl	Write_EEPROM
	.loc	2 621 9                         @ ../main.c:621:9
	b	.LBB18_3
.Ltmp208:
.LBB18_3:                               @   in Loop: Header=BB18_1 Depth=1
	.loc	2 622 13                        @ ../main.c:622:13
	ldr	r0, __arm_cp.18_3
	ldrb	r0, [r0]
.Ltmp209:
	.loc	2 622 13 is_stmt 0              @ ../main.c:622:13
	cmp	r0, #1
	bne	.LBB18_5
	b	.LBB18_4
.LBB18_4:                               @   in Loop: Header=BB18_1 Depth=1
.Ltmp210:
	.loc	2 624 24 is_stmt 1              @ ../main.c:624:24
	ldr	r1, __arm_cp.18_3
	movs	r0, #0
	strb	r0, [r1]
	.loc	2 625 13                        @ ../main.c:625:13
	ldr	r2, __arm_cp.18_1
	adds	r2, #8
	ldr	r0, __arm_cp.18_2
	movs	r1, #8
	movs	r3, #4
	bl	Write_EEPROM
	.loc	2 626 9                         @ ../main.c:626:9
	b	.LBB18_5
.Ltmp211:
.LBB18_5:                               @   in Loop: Header=BB18_1 Depth=1
	.loc	2 627 13                        @ ../main.c:627:13
	ldr	r0, __arm_cp.18_4
	ldrb	r0, [r0]
.Ltmp212:
	.loc	2 627 13 is_stmt 0              @ ../main.c:627:13
	cmp	r0, #1
	bne	.LBB18_7
	b	.LBB18_6
.LBB18_6:                               @   in Loop: Header=BB18_1 Depth=1
.Ltmp213:
	.loc	2 629 24 is_stmt 1              @ ../main.c:629:24
	ldr	r1, __arm_cp.18_4
	movs	r0, #0
	strb	r0, [r1]
	.loc	2 630 13                        @ ../main.c:630:13
	ldr	r2, __arm_cp.18_1
	adds	r2, #12
	ldr	r0, __arm_cp.18_2
	movs	r1, #12
	movs	r3, #1
	bl	Write_EEPROM
	.loc	2 631 9                         @ ../main.c:631:9
	b	.LBB18_7
.Ltmp214:
.LBB18_7:                               @   in Loop: Header=BB18_1 Depth=1
	.loc	2 632 13                        @ ../main.c:632:13
	ldr	r0, __arm_cp.18_5
	ldrb	r0, [r0]
.Ltmp215:
	.loc	2 632 13 is_stmt 0              @ ../main.c:632:13
	cmp	r0, #1
	bne	.LBB18_9
	b	.LBB18_8
.LBB18_8:                               @   in Loop: Header=BB18_1 Depth=1
.Ltmp216:
	.loc	2 634 24 is_stmt 1              @ ../main.c:634:24
	ldr	r1, __arm_cp.18_5
	movs	r0, #0
	strb	r0, [r1]
	.loc	2 635 13                        @ ../main.c:635:13
	ldr	r0, __arm_cp.18_2
	ldr	r2, __arm_cp.18_6
	movs	r1, #16
	movs	r3, #24
	bl	Write_EEPROM
	.loc	2 636 9                         @ ../main.c:636:9
	b	.LBB18_9
.Ltmp217:
.LBB18_9:                               @   in Loop: Header=BB18_1 Depth=1
	.loc	2 637 13                        @ ../main.c:637:13
	ldr	r0, __arm_cp.18_7
	ldrb	r0, [r0]
.Ltmp218:
	.loc	2 637 13 is_stmt 0              @ ../main.c:637:13
	cmp	r0, #1
	bne	.LBB18_11
	b	.LBB18_10
.LBB18_10:                              @   in Loop: Header=BB18_1 Depth=1
.Ltmp219:
	.loc	2 639 24 is_stmt 1              @ ../main.c:639:24
	ldr	r1, __arm_cp.18_7
	movs	r0, #0
	strb	r0, [r1]
	.loc	2 640 13                        @ ../main.c:640:13
	ldr	r0, __arm_cp.18_2
	ldr	r2, __arm_cp.18_8
	movs	r1, #192
	movs	r3, #16
	bl	Write_EEPROM
	.loc	2 641 9                         @ ../main.c:641:9
	b	.LBB18_11
.Ltmp220:
.LBB18_11:                              @   in Loop: Header=BB18_1 Depth=1
	.loc	2 642 13                        @ ../main.c:642:13
	ldr	r0, __arm_cp.18_9
	ldrb	r0, [r0]
.Ltmp221:
	.loc	2 642 13 is_stmt 0              @ ../main.c:642:13
	cmp	r0, #1
	bne	.LBB18_13
	b	.LBB18_12
.LBB18_12:                              @   in Loop: Header=BB18_1 Depth=1
.Ltmp222:
	.loc	2 644 24 is_stmt 1              @ ../main.c:644:24
	ldr	r1, __arm_cp.18_9
	movs	r0, #0
	strb	r0, [r1]
	.loc	2 645 13                        @ ../main.c:645:13
	ldr	r0, __arm_cp.18_2
	ldr	r2, __arm_cp.18_10
	movs	r1, #208
	movs	r3, #16
	bl	Write_EEPROM
	.loc	2 646 9                         @ ../main.c:646:9
	b	.LBB18_13
.Ltmp223:
.LBB18_13:                              @   in Loop: Header=BB18_1 Depth=1
	.loc	2 647 13                        @ ../main.c:647:13
	ldr	r0, __arm_cp.18_11
	ldrb	r0, [r0]
.Ltmp224:
	.loc	2 647 13 is_stmt 0              @ ../main.c:647:13
	cmp	r0, #1
	bne	.LBB18_15
	b	.LBB18_14
.LBB18_14:                              @   in Loop: Header=BB18_1 Depth=1
.Ltmp225:
	.loc	2 649 24 is_stmt 1              @ ../main.c:649:24
	ldr	r1, __arm_cp.18_11
	movs	r0, #0
	strb	r0, [r1]
	.loc	2 650 13                        @ ../main.c:650:13
	ldr	r0, __arm_cp.18_2
	ldr	r2, __arm_cp.18_12
	movs	r1, #224
	movs	r3, #16
	bl	Write_EEPROM
	.loc	2 651 9                         @ ../main.c:651:9
	b	.LBB18_15
.Ltmp226:
.LBB18_15:                              @   in Loop: Header=BB18_1 Depth=1
	.loc	2 611 5                         @ ../main.c:611:5
	b	.LBB18_1
.Ltmp227:
	.p2align	2
@ %bb.16:
	.loc	2 0 5 is_stmt 0                 @ ../main.c:0:5
__arm_cp.18_0:
	.long	u8UPITFlag
.Lcpi_end65:
	.size	__arm_cp.18_0, .Lcpi_end65-__arm_cp.18_0
__arm_cp.18_1:
	.long	g_AppConfig
.Lcpi_end66:
	.size	__arm_cp.18_1, .Lcpi_end66-__arm_cp.18_1
__arm_cp.18_2:
	.long	eeprom_user
.Lcpi_end67:
	.size	__arm_cp.18_2, .Lcpi_end67-__arm_cp.18_2
__arm_cp.18_3:
	.long	u8UPCDFlag
.Lcpi_end68:
	.size	__arm_cp.18_3, .Lcpi_end68-__arm_cp.18_3
__arm_cp.18_4:
	.long	u8UPDCFlag
.Lcpi_end69:
	.size	__arm_cp.18_4, .Lcpi_end69-__arm_cp.18_4
__arm_cp.18_5:
	.long	u8UPCAFlag
.Lcpi_end70:
	.size	__arm_cp.18_5, .Lcpi_end70-__arm_cp.18_5
__arm_cp.18_6:
	.long	g_CalibData
.Lcpi_end71:
	.size	__arm_cp.18_6, .Lcpi_end71-__arm_cp.18_6
__arm_cp.18_7:
	.long	u8UPMFFlag
.Lcpi_end72:
	.size	__arm_cp.18_7, .Lcpi_end72-__arm_cp.18_7
__arm_cp.18_8:
	.long	g_au8MFGDate
.Lcpi_end73:
	.size	__arm_cp.18_8, .Lcpi_end73-__arm_cp.18_8
__arm_cp.18_9:
	.long	u8UPLTFlag
.Lcpi_end74:
	.size	__arm_cp.18_9, .Lcpi_end74-__arm_cp.18_9
__arm_cp.18_10:
	.long	g_au8LotID
.Lcpi_end75:
	.size	__arm_cp.18_10, .Lcpi_end75-__arm_cp.18_10
__arm_cp.18_11:
	.long	u8UPSNFlag
.Lcpi_end76:
	.size	__arm_cp.18_11, .Lcpi_end76-__arm_cp.18_11
__arm_cp.18_12:
	.long	g_au8SerialNumber
.Lcpi_end77:
	.size	__arm_cp.18_12, .Lcpi_end77-__arm_cp.18_12
.Lfunc_end18:
	.size	main, .Lfunc_end18-main
	.cfi_endproc
	.cantunwind
	.fnend
                                        @ -- End function
	.section	.text.SYS_LockReg,"ax",%progbits
	.p2align	2                               @ -- Begin function SYS_LockReg
	.type	SYS_LockReg,%function
	.code	16                              @ @SYS_LockReg
	.thumb_func
SYS_LockReg:
.Lfunc_begin19:
	.loc	11 1328 0 is_stmt 1             @ ../../../../Library/StdDriver/inc\sys.h:1328:0
	.fnstart
	.cfi_startproc
@ %bb.0:
	ldr	r1, __arm_cp.19_0
	movs	r0, #0
.Ltmp228:
	.loc	11 1329 18 prologue_end         @ ../../../../Library/StdDriver/inc\sys.h:1329:18
	str	r0, [r1]
	.loc	11 1330 1                       @ ../../../../Library/StdDriver/inc\sys.h:1330:1
	bx	lr
.Ltmp229:
	.p2align	2
@ %bb.1:
	.loc	11 0 1 is_stmt 0                @ ../../../../Library/StdDriver/inc\sys.h:0:1
__arm_cp.19_0:
	.long	1073742080                      @ 0x40000100
.Lcpi_end78:
	.size	__arm_cp.19_0, .Lcpi_end78-__arm_cp.19_0
.Lfunc_end19:
	.size	SYS_LockReg, .Lfunc_end19-SYS_LockReg
	.cfi_endproc
	.cantunwind
	.fnend
                                        @ -- End function
	.hidden	g_u32WarningCountdownMs         @ @g_u32WarningCountdownMs
	.type	g_u32WarningCountdownMs,%object
	.section	.bss.g_u32WarningCountdownMs,"aw",%nobits
	.globl	g_u32WarningCountdownMs
	.p2align	2, 0x0
g_u32WarningCountdownMs:
	.long	0                               @ 0x0
	.size	g_u32WarningCountdownMs, 4

	.hidden	g_u32McuRunTimeSeconds          @ @g_u32McuRunTimeSeconds
	.type	g_u32McuRunTimeSeconds,%object
	.section	.bss.g_u32McuRunTimeSeconds,"aw",%nobits
	.globl	g_u32McuRunTimeSeconds
	.p2align	2, 0x0
g_u32McuRunTimeSeconds:
	.long	0                               @ 0x0
	.size	g_u32McuRunTimeSeconds, 4

	.hidden	g_au8SerialNumber               @ @g_au8SerialNumber
	.type	g_au8SerialNumber,%object
	.section	.bss.g_au8SerialNumber,"aw",%nobits
	.globl	g_au8SerialNumber
g_au8SerialNumber:
	.zero	16
	.size	g_au8SerialNumber, 16

	.hidden	g_au8LotID                      @ @g_au8LotID
	.type	g_au8LotID,%object
	.section	.bss.g_au8LotID,"aw",%nobits
	.globl	g_au8LotID
g_au8LotID:
	.zero	16
	.size	g_au8LotID, 16

	.hidden	g_au8MFGDate                    @ @g_au8MFGDate
	.type	g_au8MFGDate,%object
	.section	.bss.g_au8MFGDate,"aw",%nobits
	.globl	g_au8MFGDate
g_au8MFGDate:
	.zero	16
	.size	g_au8MFGDate, 16

	.type	g_u8BuzzerPattern,%object       @ @g_u8BuzzerPattern
	.section	.bss.g_u8BuzzerPattern,"aw",%nobits
g_u8BuzzerPattern:
	.byte	0                               @ 0x0
	.size	g_u8BuzzerPattern, 1

	.type	g_system_state,%object          @ @g_system_state
	.section	.bss.g_system_state,"aw",%nobits
g_system_state:
	.byte	0                               @ 0x0
	.size	g_system_state, 1

	.type	g_u16McuRunTimeMillis,%object   @ @g_u16McuRunTimeMillis
	.section	.bss.g_u16McuRunTimeMillis,"aw",%nobits
	.p2align	1, 0x0
g_u16McuRunTimeMillis:
	.short	0                               @ 0x0
	.size	g_u16McuRunTimeMillis, 2

	.hidden	g_AppConfig                     @ @g_AppConfig
	.type	g_AppConfig,%object
	.section	.bss.g_AppConfig,"aw",%nobits
	.globl	g_AppConfig
	.p2align	2, 0x0
g_AppConfig:
	.zero	16
	.size	g_AppConfig, 16

	.hidden	eeprom_system                   @ @eeprom_system
	.type	eeprom_system,%object
	.section	.bss.eeprom_system,"aw",%nobits
	.globl	eeprom_system
	.p2align	2, 0x0
eeprom_system:
	.zero	24
	.size	eeprom_system, 24

	.hidden	eeprom_user                     @ @eeprom_user
	.type	eeprom_user,%object
	.section	.bss.eeprom_user,"aw",%nobits
	.globl	eeprom_user
	.p2align	2, 0x0
eeprom_user:
	.zero	24
	.size	eeprom_user, 24

	.type	g_u8HwWarningTriggered,%object  @ @g_u8HwWarningTriggered
	.section	.bss.g_u8HwWarningTriggered,"aw",%nobits
g_u8HwWarningTriggered:
	.byte	0                               @ 0x0
	.size	g_u8HwWarningTriggered, 1

	.hidden	g_CalibData                     @ @g_CalibData
	.type	g_CalibData,%object
	.section	.bss.g_CalibData,"aw",%nobits
	.globl	g_CalibData
	.p2align	1, 0x0
g_CalibData:
	.zero	24
	.size	g_CalibData, 24

	.type	g_u8ImbalanceDebounceCounter,%object @ @g_u8ImbalanceDebounceCounter
	.section	.bss.g_u8ImbalanceDebounceCounter,"aw",%nobits
g_u8ImbalanceDebounceCounter:
	.byte	0                               @ 0x0
	.size	g_u8ImbalanceDebounceCounter, 1

	.type	g_bLogSavedForLatch,%object     @ @g_bLogSavedForLatch
	.section	.bss.g_bLogSavedForLatch,"aw",%nobits
g_bLogSavedForLatch:
	.byte	0                               @ 0x0
	.size	g_bLogSavedForLatch, 1

	.type	__ARM_use_no_argv,%object       @ @__ARM_use_no_argv
	.section	.ARM.use_no_argv,"awR",%progbits,unique,1
	.globl	__ARM_use_no_argv
	.p2align	2, 0x0
__ARM_use_no_argv:
	.long	1                               @ 0x1
	.size	__ARM_use_no_argv, 4

	.section	".note.GNU-stack","",%progbits
	.eabi_attribute	30, 6	@ Tag_ABI_optimization_goals
	.ARM_attribute	16, 1	@ Tag_AV_eba