	.text
	.syntax unified
	.eabi_attribute	67, "2.09"	@ Tag_conformance
	.cpu	cortex-m23
	.eabi_attribute	6, 16	@ Tag_CPU_arch
	.eabi_attribute	7, 77	@ Tag_CPU_arch_profile
	.eabi_attribute	8, 0	@ Tag_ARM_ISA_use
	.eabi_attribute	9, 3	@ Tag_THUMB_ISA_use
	.eabi_attribute	34, 0	@ Tag_CPU_unaligned_access
	.eabi_attribute	17, 1	@ Tag_ABI_PCS_GOT_use
	.eabi_attribute	20, 2	@ Tag_ABI_FP_denormal
	.eabi_attribute	21, 0	@ Tag_ABI_FP_exceptions
	.eabi_attribute	23, 1	@ Tag_ABI_FP_number_model
	.eabi_attribute	24, 1	@ Tag_ABI_align_needed
	.eabi_attribute	25, 1	@ Tag_ABI_align_preserved
	.eabi_attribute	38, 1	@ Tag_ABI_FP_16bit_format
	.eabi_attribute	18, 2	@ Tag_ABI_PCS_wchar_t
	.eabi_attribute	26, 1	@ Tag_ABI_enum_size
	.eabi_attribute	14, 0	@ Tag_ABI_PCS_R9_use
	.file	"Monitor_Control.c"
	.file	1 "C:\\Users\\tester" "AppData\\Local\\Keil_v5\\ARM\\ARMCLANG\\bin\\..\\include\\stdint.h"
	.file	2 "C:\\Users\\tester\\Desktop\\M251 dual eeprom\\SampleCode\\StdDriver\\INA3221_CABLE\\KEIL" "../Monitor/Monitor_Control.c"
	.file	3 "C:\\Users\\tester\\Desktop\\M251 dual eeprom\\SampleCode\\StdDriver\\INA3221_CABLE\\KEIL" "../Monitor\\Monitor_Control.h"
	.file	4 "C:\\Users\\tester\\Desktop\\M251 dual eeprom\\SampleCode\\StdDriver\\INA3221_CABLE\\KEIL" "../../../../Library/Device/Nuvoton/M251/Include\\i2c_reg.h"
	.file	5 "C:\\Users\\tester\\Desktop\\M251 dual eeprom\\SampleCode\\StdDriver\\INA3221_CABLE\\KEIL" "../../../../Library/Device/Nuvoton/M251/Include\\ui2c_reg.h"
	.file	6 "C:\\Users\\tester\\Desktop\\M251 dual eeprom\\SampleCode\\StdDriver\\INA3221_CABLE\\KEIL" "../../../../Library/Device/Nuvoton/M251/Include\\M251.h"
	.file	7 "C:\\Users\\tester\\Desktop\\M251 dual eeprom\\SampleCode\\StdDriver\\INA3221_CABLE\\KEIL" "../../../../Library/Device/Nuvoton/M251/Include\\sys_reg.h"
	.file	8 "C:\\Users\\tester\\Desktop\\M251 dual eeprom\\SampleCode\\StdDriver\\INA3221_CABLE\\KEIL" "../../../../Library/Device/Nuvoton/M251/Include\\gpio_reg.h"
	.file	9 "C:\\Users\\tester\\Desktop\\M251 dual eeprom\\SampleCode\\StdDriver\\INA3221_CABLE\\KEIL" "../../../../Library/CMSIS/Core/Include\\core_cm23.h"
	.section	.text.I2C0_Error_Hanlder,"ax",%progbits
	.hidden	I2C0_Error_Hanlder              @ -- Begin function I2C0_Error_Hanlder
	.globl	I2C0_Error_Hanlder
	.p2align	2
	.type	I2C0_Error_Hanlder,%function
	.code	16                              @ @I2C0_Error_Hanlder
	.thumb_func
I2C0_Error_Hanlder:
.Lfunc_begin0:
	.loc	2 50 0                          @ ../Monitor/Monitor_Control.c:50:0
	.fnstart
	.cfi_sections .debug_frame
	.cfi_startproc
@ %bb.0:
	.save	{r4, r5, r7, lr}
	push	{r4, r5, r7, lr}
	.cfi_def_cfa_offset 16
	.cfi_offset lr, -4
	.cfi_offset r7, -8
	.cfi_offset r5, -12
	.cfi_offset r4, -16
	.pad	#8
	sub	sp, #8
	.cfi_def_cfa_offset 24
	str	r0, [sp, #4]
.Ltmp0:
	.loc	2 54 24 prologue_end            @ ../Monitor/Monitor_Control.c:54:24
	ldr	r0, [sp, #4]
	.loc	2 54 5 is_stmt 0                @ ../Monitor/Monitor_Control.c:54:5
	bl	I2C_DisableTimeout
	mov	r1, sp
	movs	r0, #0
.Ltmp1:
	.loc	2 57 12 is_stmt 1               @ ../Monitor/Monitor_Control.c:57:12
	strb	r0, [r1]
	.loc	2 57 10 is_stmt 0               @ ../Monitor/Monitor_Control.c:57:10
	b	.LBB0_1
.LBB0_1:                                @ =>This Inner Loop Header: Depth=1
	.loc	2 0 10                          @ ../Monitor/Monitor_Control.c:0:10
	mov	r0, sp
.Ltmp2:
	.loc	2 57 17                         @ ../Monitor/Monitor_Control.c:57:17
	ldrb	r0, [r0]
.Ltmp3:
	.loc	2 57 5                          @ ../Monitor/Monitor_Control.c:57:5
	cmp	r0, #2
	bgt	.LBB0_4
	b	.LBB0_2
.LBB0_2:                                @   in Loop: Header=BB0_1 Depth=1
	.loc	2 0 5                           @ ../Monitor/Monitor_Control.c:0:5
	mov	r1, sp
.Ltmp4:
	.loc	2 59 26 is_stmt 1               @ ../Monitor/Monitor_Control.c:59:26
	ldrb	r0, [r1]
	.loc	2 59 9 is_stmt 0                @ ../Monitor/Monitor_Control.c:59:9
	lsls	r3, r0, #2
	ldr	r0, __arm_cp.0_2
	.loc	2 59 42                         @ ../Monitor/Monitor_Control.c:59:42
	ldrh	r2, [r0, r3]
	ldr	r5, __arm_cp.0_3
	ands	r2, r5
	strh	r2, [r0, r3]
	.loc	2 60 26 is_stmt 1               @ ../Monitor/Monitor_Control.c:60:26
	ldrb	r2, [r1]
	.loc	2 60 9 is_stmt 0                @ ../Monitor/Monitor_Control.c:60:9
	lsls	r4, r2, #2
	.loc	2 60 43                         @ ../Monitor/Monitor_Control.c:60:43
	ldrh	r3, [r0, r4]
	movw	r2, #32768
	ands	r3, r2
	strh	r3, [r0, r4]
	.loc	2 61 26 is_stmt 1               @ ../Monitor/Monitor_Control.c:61:26
	ldrb	r3, [r1]
	.loc	2 61 9 is_stmt 0                @ ../Monitor/Monitor_Control.c:61:9
	lsls	r3, r3, #2
	adds	r4, r0, r3
	.loc	2 61 42                         @ ../Monitor/Monitor_Control.c:61:42
	ldrh	r3, [r4, #2]
	ands	r3, r5
	strh	r3, [r4, #2]
	.loc	2 62 26 is_stmt 1               @ ../Monitor/Monitor_Control.c:62:26
	ldrb	r1, [r1]
	.loc	2 62 9 is_stmt 0                @ ../Monitor/Monitor_Control.c:62:9
	lsls	r1, r1, #2
	adds	r1, r0, r1
	.loc	2 62 43                         @ ../Monitor/Monitor_Control.c:62:43
	ldrh	r0, [r1, #2]
	ands	r0, r2
	strh	r0, [r1, #2]
	.loc	2 63 5 is_stmt 1                @ ../Monitor/Monitor_Control.c:63:5
	b	.LBB0_3
.Ltmp5:
.LBB0_3:                                @   in Loop: Header=BB0_1 Depth=1
	.loc	2 57 43                         @ ../Monitor/Monitor_Control.c:57:43
	ldr	r0, [sp]
	adds	r0, r0, #1
	mov	r1, sp
	strb	r0, [r1]
	.loc	2 57 5 is_stmt 0                @ ../Monitor/Monitor_Control.c:57:5
	b	.LBB0_1
.Ltmp6:
.LBB0_4:
	.loc	2 65 22 is_stmt 1               @ ../Monitor/Monitor_Control.c:65:22
	ldr	r1, __arm_cp.0_0
	movs	r0, #1
	strb	r0, [r1]
	.loc	2 66 24                         @ ../Monitor/Monitor_Control.c:66:24
	ldr	r1, __arm_cp.0_1
	strb	r0, [r1]
	.loc	2 67 1 epilogue_begin           @ ../Monitor/Monitor_Control.c:67:1
	add	sp, #8
	pop	{r4, r5, r7, pc}
.Ltmp7:
	.p2align	2
@ %bb.5:
	.loc	2 0 1 is_stmt 0                 @ ../Monitor/Monitor_Control.c:0:1
__arm_cp.0_0:
	.long	g_u8GetEndFlag_0
.Lcpi_end0:
	.size	__arm_cp.0_0, .Lcpi_end0-__arm_cp.0_0
__arm_cp.0_1:
	.long	g_u8GetErrorFlag_0
.Lcpi_end1:
	.size	__arm_cp.0_1, .Lcpi_end1-__arm_cp.0_1
__arm_cp.0_2:
	.long	au8MonitorData_0
.Lcpi_end2:
	.size	__arm_cp.0_2, .Lcpi_end2-__arm_cp.0_2
__arm_cp.0_3:
	.long	32767                           @ 0x7fff
.Lcpi_end3:
	.size	__arm_cp.0_3, .Lcpi_end3-__arm_cp.0_3
.Lfunc_end0:
	.size	I2C0_Error_Hanlder, .Lfunc_end0-I2C0_Error_Hanlder
	.cfi_endproc
	.cantunwind
	.fnend
                                        @ -- End function
	.section	.text.I2C0_IRQHandler,"ax",%progbits
	.hidden	I2C0_IRQHandler                 @ -- Begin function I2C0_IRQHandler
	.globl	I2C0_IRQHandler
	.p2align	2
	.type	I2C0_IRQHandler,%function
	.code	16                              @ @I2C0_IRQHandler
	.thumb_func
I2C0_IRQHandler:
.Lfunc_begin1:
	.loc	2 70 0 is_stmt 1                @ ../Monitor/Monitor_Control.c:70:0
	.fnstart
	.cfi_startproc
@ %bb.0:
	.save	{r7, lr}
	push	{r7, lr}
	.cfi_def_cfa_offset 8
	.cfi_offset lr, -4
	.cfi_offset r7, -8
	.pad	#8
	sub	sp, #8
	.cfi_def_cfa_offset 16
	ldr	r0, __arm_cp.1_0
.Ltmp8:
	.loc	2 73 17 prologue_end            @ ../Monitor/Monitor_Control.c:73:17
	ldr	r0, [r0]
	.loc	2 73 15 is_stmt 0               @ ../Monitor/Monitor_Control.c:73:15
	str	r0, [sp, #4]
	ldr	r0, __arm_cp.1_1
.Ltmp9:
	.loc	2 75 9 is_stmt 1                @ ../Monitor/Monitor_Control.c:75:9
	ldr	r0, [r0]
.Ltmp10:
	.loc	2 75 9 is_stmt 0                @ ../Monitor/Monitor_Control.c:75:9
	lsls	r0, r0, #31
	cbz	r0, .LBB1_2
	b	.LBB1_1
.LBB1_1:
	.loc	2 0 9                           @ ../Monitor/Monitor_Control.c:0:9
	movs	r0, #1
.Ltmp11:
	.loc	2 75 9                          @ ../Monitor/Monitor_Control.c:75:9
	cbnz	r0, .LBB1_3
	b	.LBB1_6
.Ltmp12:
.LBB1_2:
	.loc	2 0 9                           @ ../Monitor/Monitor_Control.c:0:9
	movs	r0, #1
	.loc	2 75 9                          @ ../Monitor/Monitor_Control.c:75:9
	cbnz	r0, .LBB1_6
	b	.LBB1_3
.LBB1_3:
	.loc	2 0 9                           @ ../Monitor/Monitor_Control.c:0:9
	ldr	r0, __arm_cp.1_3
.Ltmp13:
	.loc	2 78 9 is_stmt 1                @ ../Monitor/Monitor_Control.c:78:9
	bl	I2C_ClearTimeoutFlag
.Ltmp14:
	.loc	2 80 13                         @ ../Monitor/Monitor_Control.c:80:13
	ldr	r0, __arm_cp.1_4
	ldrb	r0, [r0]
.Ltmp15:
	.loc	2 80 13 is_stmt 0               @ ../Monitor/Monitor_Control.c:80:13
	cmp	r0, #1
	beq	.LBB1_5
	b	.LBB1_4
.LBB1_4:
	.loc	2 0 13                          @ ../Monitor/Monitor_Control.c:0:13
	ldr	r0, __arm_cp.1_3
.Ltmp16:
	.loc	2 82 13 is_stmt 1               @ ../Monitor/Monitor_Control.c:82:13
	str	r0, [sp]                        @ 4-byte Spill
	bl	I2C0_Error_Hanlder
	ldr	r0, [sp]                        @ 4-byte Reload
	.loc	2 84 13                         @ ../Monitor/Monitor_Control.c:84:13
	bl	I2C_Close
	.loc	2 85 13                         @ ../Monitor/Monitor_Control.c:85:13
	bl	I2C0_Init
	.loc	2 86 9                          @ ../Monitor/Monitor_Control.c:86:9
	b	.LBB1_5
.Ltmp17:
.LBB1_5:
	.loc	2 87 5                          @ ../Monitor/Monitor_Control.c:87:5
	b	.LBB1_9
.Ltmp18:
.LBB1_6:
	.loc	2 90 13                         @ ../Monitor/Monitor_Control.c:90:13
	ldr	r0, __arm_cp.1_2
	ldr	r0, [r0]
.Ltmp19:
	.loc	2 90 13 is_stmt 0               @ ../Monitor/Monitor_Control.c:90:13
	cbz	r0, .LBB1_8
	b	.LBB1_7
.LBB1_7:
.Ltmp20:
	.loc	2 92 13 is_stmt 1               @ ../Monitor/Monitor_Control.c:92:13
	ldr	r0, __arm_cp.1_2
	ldr	r2, [r0]
	.loc	2 92 35 is_stmt 0               @ ../Monitor/Monitor_Control.c:92:35
	ldr	r1, [sp, #4]
	ldr	r0, __arm_cp.1_3
	.loc	2 92 13                         @ ../Monitor/Monitor_Control.c:92:13
	blx	r2
	.loc	2 93 9 is_stmt 1                @ ../Monitor/Monitor_Control.c:93:9
	b	.LBB1_8
.Ltmp21:
.LBB1_8:
	.loc	2 0 9 is_stmt 0                 @ ../Monitor/Monitor_Control.c:0:9
	b	.LBB1_9
.LBB1_9:
	.loc	2 95 1 epilogue_begin is_stmt 1 @ ../Monitor/Monitor_Control.c:95:1
	add	sp, #8
	pop	{r7, pc}
.Ltmp22:
	.p2align	2
@ %bb.10:
	.loc	2 0 1 is_stmt 0                 @ ../Monitor/Monitor_Control.c:0:1
__arm_cp.1_0:
	.long	1074266124                      @ 0x4008000c
.Lcpi_end4:
	.size	__arm_cp.1_0, .Lcpi_end4-__arm_cp.1_0
__arm_cp.1_1:
	.long	1074266132                      @ 0x40080014
.Lcpi_end5:
	.size	__arm_cp.1_1, .Lcpi_end5-__arm_cp.1_1
__arm_cp.1_2:
	.long	s_I2C0HandlerFn
.Lcpi_end6:
	.size	__arm_cp.1_2, .Lcpi_end6-__arm_cp.1_2
__arm_cp.1_3:
	.long	1074266112                      @ 0x40080000
.Lcpi_end7:
	.size	__arm_cp.1_3, .Lcpi_end7-__arm_cp.1_3
__arm_cp.1_4:
	.long	g_u8GetEndFlag_0
.Lcpi_end8:
	.size	__arm_cp.1_4, .Lcpi_end8-__arm_cp.1_4
.Lfunc_end1:
	.size	I2C0_IRQHandler, .Lfunc_end1-I2C0_IRQHandler
	.cfi_endproc
	.cantunwind
	.fnend
                                        @ -- End function
	.section	.text.I2C0_Init,"ax",%progbits
	.hidden	I2C0_Init                       @ -- Begin function I2C0_Init
	.globl	I2C0_Init
	.p2align	2
	.type	I2C0_Init,%function
	.code	16                              @ @I2C0_Init
	.thumb_func
I2C0_Init:
.Lfunc_begin2:
	.loc	2 259 0 is_stmt 1               @ ../Monitor/Monitor_Control.c:259:0
	.fnstart
	.cfi_startproc
@ %bb.0:
	.save	{r7, lr}
	push	{r7, lr}
	.cfi_def_cfa_offset 8
	.cfi_offset lr, -4
	.cfi_offset r7, -8
	.pad	#16
	sub	sp, #16
	.cfi_def_cfa_offset 24
.Ltmp23:
	.loc	2 261 5 prologue_end            @ ../Monitor/Monitor_Control.c:261:5
	bl	SYS_UnlockReg
	ldr	r0, __arm_cp.2_0
	.loc	2 264 5                         @ ../Monitor/Monitor_Control.c:264:5
	bl	CLK_EnableModuleClock
	ldr	r1, __arm_cp.2_1
	.loc	2 270 27                        @ ../Monitor/Monitor_Control.c:270:27
	ldr	r0, [r1]
	movs	r2, #153
	.loc	2 270 36 is_stmt 0              @ ../Monitor/Monitor_Control.c:270:36
	orrs	r0, r2
	movs	r2, #102
	.loc	2 270 92                        @ ../Monitor/Monitor_Control.c:270:92
	bics	r0, r2
	.loc	2 270 19                        @ ../Monitor/Monitor_Control.c:270:19
	str	r0, [r1]
	ldr	r1, __arm_cp.2_2
	.loc	2 272 15 is_stmt 1              @ ../Monitor/Monitor_Control.c:272:15
	ldr	r0, [r1]
	movs	r2, #3
	orrs	r0, r2
	str	r0, [r1]
	ldr	r0, __arm_cp.2_3
	str	r0, [sp, #4]                    @ 4-byte Spill
	ldr	r1, __arm_cp.2_4
	.loc	2 274 5                         @ ../Monitor/Monitor_Control.c:274:5
	bl	I2C_Open
                                        @ kill: def $r1 killed $r0
	ldr	r0, [sp, #4]                    @ 4-byte Reload
	add	r2, sp, #12
	movs	r1, #122
	.loc	2 278 13                        @ ../Monitor/Monitor_Control.c:278:13
	strb	r1, [r2]
	movs	r1, #71
	.loc	2 279 13                        @ ../Monitor/Monitor_Control.c:279:13
	strb	r1, [r2, #1]
	movs	r1, #64
	movs	r3, #2
	.loc	2 282 5                         @ ../Monitor/Monitor_Control.c:282:5
	bl	I2C_WriteMultiBytes
	.loc	2 283 36                        @ ../Monitor/Monitor_Control.c:283:36
	ldr	r0, __arm_cp.2_5
	ldr	r0, [r0]
	.loc	2 283 18 is_stmt 0              @ ../Monitor/Monitor_Control.c:283:18
	str	r0, [sp, #8]
	.loc	2 285 5 is_stmt 1               @ ../Monitor/Monitor_Control.c:285:5
	b	.LBB2_1
.LBB2_1:                                @ =>This Inner Loop Header: Depth=1
	.loc	2 0 5 is_stmt 0                 @ ../Monitor/Monitor_Control.c:0:5
	ldr	r0, __arm_cp.2_3
	.loc	2 285 20                        @ ../Monitor/Monitor_Control.c:285:20
	ldr	r0, [r0]
	.loc	2 285 5                         @ ../Monitor/Monitor_Control.c:285:5
	lsls	r0, r0, #27
	cmp	r0, #0
	bpl	.LBB2_5
	b	.LBB2_2
.LBB2_2:                                @   in Loop: Header=BB2_1 Depth=1
.Ltmp24:
	.loc	2 287 24 is_stmt 1              @ ../Monitor/Monitor_Control.c:287:24
	ldr	r0, [sp, #8]
	subs	r0, r0, #1
	str	r0, [sp, #8]
.Ltmp25:
	.loc	2 289 13                        @ ../Monitor/Monitor_Control.c:289:13
	ldr	r0, [sp, #8]
.Ltmp26:
	.loc	2 289 13 is_stmt 0              @ ../Monitor/Monitor_Control.c:289:13
	cbnz	r0, .LBB2_4
	b	.LBB2_3
.LBB2_3:
.Ltmp27:
	.loc	2 291 13 is_stmt 1              @ ../Monitor/Monitor_Control.c:291:13
	b	.LBB2_5
.Ltmp28:
.LBB2_4:                                @   in Loop: Header=BB2_1 Depth=1
	.loc	2 285 5                         @ ../Monitor/Monitor_Control.c:285:5
	b	.LBB2_1
.LBB2_5:
	.loc	2 0 5 is_stmt 0                 @ ../Monitor/Monitor_Control.c:0:5
	ldr	r0, __arm_cp.2_3
	.loc	2 298 5 is_stmt 1               @ ../Monitor/Monitor_Control.c:298:5
	bl	I2C_EnableInt
	movs	r0, #38
	.loc	2 299 5                         @ ../Monitor/Monitor_Control.c:299:5
	str	r0, [sp]                        @ 4-byte Spill
	bl	__NVIC_EnableIRQ
	ldr	r0, [sp]                        @ 4-byte Reload
	movs	r1, #2
	.loc	2 300 5                         @ ../Monitor/Monitor_Control.c:300:5
	bl	__NVIC_SetPriority
	.loc	2 306 5                         @ ../Monitor/Monitor_Control.c:306:5
	bl	SYS_LockReg
	.loc	2 309 21                        @ ../Monitor/Monitor_Control.c:309:21
	ldr	r1, __arm_cp.2_6
	ldr	r0, __arm_cp.2_7
	str	r0, [r1]
	.loc	2 310 1 epilogue_begin          @ ../Monitor/Monitor_Control.c:310:1
	add	sp, #16
	pop	{r7, pc}
.Ltmp29:
	.p2align	2
@ %bb.6:
	.loc	2 0 1 is_stmt 0                 @ ../Monitor/Monitor_Control.c:0:1
__arm_cp.2_0:
	.long	1073741832                      @ 0x40000008
.Lcpi_end9:
	.size	__arm_cp.2_0, .Lcpi_end9-__arm_cp.2_0
__arm_cp.2_1:
	.long	1073741888                      @ 0x40000040
.Lcpi_end10:
	.size	__arm_cp.2_1, .Lcpi_end10-__arm_cp.2_1
__arm_cp.2_2:
	.long	1073758372                      @ 0x400040a4
.Lcpi_end11:
	.size	__arm_cp.2_2, .Lcpi_end11-__arm_cp.2_2
__arm_cp.2_3:
	.long	1074266112                      @ 0x40080000
.Lcpi_end12:
	.size	__arm_cp.2_3, .Lcpi_end12-__arm_cp.2_3
__arm_cp.2_4:
	.long	100000                          @ 0x186a0
.Lcpi_end13:
	.size	__arm_cp.2_4, .Lcpi_end13-__arm_cp.2_4
__arm_cp.2_5:
	.long	SystemCoreClock
.Lcpi_end14:
	.size	__arm_cp.2_5, .Lcpi_end14-__arm_cp.2_5
__arm_cp.2_6:
	.long	s_I2C0HandlerFn
.Lcpi_end15:
	.size	__arm_cp.2_6, .Lcpi_end15-__arm_cp.2_6
__arm_cp.2_7:
	.long	I2C0_MasterTRx
.Lcpi_end16:
	.size	__arm_cp.2_7, .Lcpi_end16-__arm_cp.2_7
.Lfunc_end2:
	.size	I2C0_Init, .Lfunc_end2-I2C0_Init
	.cfi_endproc
	.cantunwind
	.fnend
                                        @ -- End function
	.section	.text.I2C0_MasterTRx,"ax",%progbits
	.hidden	I2C0_MasterTRx                  @ -- Begin function I2C0_MasterTRx
	.globl	I2C0_MasterTRx
	.p2align	2
	.type	I2C0_MasterTRx,%function
	.code	16                              @ @I2C0_MasterTRx
	.thumb_func
I2C0_MasterTRx:
.Lfunc_begin3:
	.loc	2 101 0 is_stmt 1               @ ../Monitor/Monitor_Control.c:101:0
	.fnstart
	.cfi_startproc
@ %bb.0:
	.save	{r4, r5, r7, lr}
	push	{r4, r5, r7, lr}
	.cfi_def_cfa_offset 16
	.cfi_offset lr, -4
	.cfi_offset r7, -8
	.cfi_offset r5, -12
	.cfi_offset r4, -16
	.pad	#24
	sub	sp, #24
	.cfi_def_cfa_offset 40
	str	r0, [sp, #20]
	str	r1, [sp, #16]
.Ltmp30:
	.loc	2 106 9 prologue_end            @ ../Monitor/Monitor_Control.c:106:9
	ldr	r0, [sp, #16]
.Ltmp31:
	.loc	2 106 9 is_stmt 0               @ ../Monitor/Monitor_Control.c:106:9
	cmp	r0, #8
	bne	.LBB3_2
	b	.LBB3_1
.LBB3_1:
.Ltmp32:
	.loc	2 108 9 is_stmt 1               @ ../Monitor/Monitor_Control.c:108:9
	ldr	r1, [sp, #20]
	movs	r0, #128
	str	r0, [r1, #8]
	.loc	2 109 21                        @ ../Monitor/Monitor_Control.c:109:21
	ldr	r1, __arm_cp.3_1
	ldrb	r0, [r1]
	adds	r0, r0, #1
	strb	r0, [r1]
	.loc	2 110 9                         @ ../Monitor/Monitor_Control.c:110:9
	ldr	r0, [sp, #20]
	ldr	r0, [r0]
	movs	r1, #8
	orrs	r0, r1
	movs	r1, #52
	bics	r0, r1
	ldr	r1, [sp, #20]
	str	r0, [r1]
	.loc	2 111 5                         @ ../Monitor/Monitor_Control.c:111:5
	b	.LBB3_56
.Ltmp33:
.LBB3_2:
	.loc	2 112 14                        @ ../Monitor/Monitor_Control.c:112:14
	ldr	r0, [sp, #16]
.Ltmp34:
	.loc	2 112 14 is_stmt 0              @ ../Monitor/Monitor_Control.c:112:14
	cmp	r0, #24
	bne	.LBB3_9
	b	.LBB3_3
.LBB3_3:
.Ltmp35:
	.loc	2 114 13 is_stmt 1              @ ../Monitor/Monitor_Control.c:114:13
	ldr	r0, __arm_cp.3_1
	ldrb	r0, [r0]
.Ltmp36:
	.loc	2 114 13 is_stmt 0              @ ../Monitor/Monitor_Control.c:114:13
	cmp	r0, #2
	bne	.LBB3_5
	b	.LBB3_4
.LBB3_4:
.Ltmp37:
	.loc	2 116 13 is_stmt 1              @ ../Monitor/Monitor_Control.c:116:13
	ldr	r0, __arm_cp.3_3
	ldrb	r0, [r0]
	lsls	r0, r0, #1
	adds	r0, r0, #1
	ldr	r1, [sp, #20]
	str	r0, [r1, #8]
	.loc	2 117 9                         @ ../Monitor/Monitor_Control.c:117:9
	b	.LBB3_8
.Ltmp38:
.LBB3_5:
	.loc	2 118 18                        @ ../Monitor/Monitor_Control.c:118:18
	ldr	r0, __arm_cp.3_1
	ldrb	r0, [r0]
.Ltmp39:
	.loc	2 118 18 is_stmt 0              @ ../Monitor/Monitor_Control.c:118:18
	cmp	r0, #7
	bne	.LBB3_7
	b	.LBB3_6
.LBB3_6:
.Ltmp40:
	.loc	2 120 13 is_stmt 1              @ ../Monitor/Monitor_Control.c:120:13
	ldr	r0, __arm_cp.3_3
	ldrb	r0, [r0]
	lsls	r0, r0, #1
	adds	r0, r0, #2
	ldr	r1, [sp, #20]
	str	r0, [r1, #8]
	.loc	2 121 9                         @ ../Monitor/Monitor_Control.c:121:9
	b	.LBB3_7
.Ltmp41:
.LBB3_7:
	.loc	2 0 9 is_stmt 0                 @ ../Monitor/Monitor_Control.c:0:9
	b	.LBB3_8
.LBB3_8:
	.loc	2 123 9 is_stmt 1               @ ../Monitor/Monitor_Control.c:123:9
	ldr	r0, [sp, #20]
	ldr	r0, [r0]
	movs	r1, #8
	orrs	r0, r1
	movs	r1, #52
	bics	r0, r1
	ldr	r1, [sp, #20]
	str	r0, [r1]
	.loc	2 124 5                         @ ../Monitor/Monitor_Control.c:124:5
	b	.LBB3_55
.Ltmp42:
.LBB3_9:
	.loc	2 125 14                        @ ../Monitor/Monitor_Control.c:125:14
	ldr	r0, [sp, #16]
.Ltmp43:
	.loc	2 125 14 is_stmt 0              @ ../Monitor/Monitor_Control.c:125:14
	cmp	r0, #32
	bne	.LBB3_11
	b	.LBB3_10
.LBB3_10:
.Ltmp44:
	.loc	2 127 9 is_stmt 1               @ ../Monitor/Monitor_Control.c:127:9
	ldr	r0, [sp, #20]
	ldr	r0, [r0]
	movs	r1, #24
	orrs	r0, r1
	movs	r1, #36
	bics	r0, r1
	ldr	r1, [sp, #20]
	str	r0, [r1]
	.loc	2 129 28                        @ ../Monitor/Monitor_Control.c:129:28
	ldr	r0, [sp, #20]
	.loc	2 129 9 is_stmt 0               @ ../Monitor/Monitor_Control.c:129:9
	bl	I2C0_Error_Hanlder
	.loc	2 130 5 is_stmt 1               @ ../Monitor/Monitor_Control.c:130:5
	b	.LBB3_54
.Ltmp45:
.LBB3_11:
	.loc	2 131 14                        @ ../Monitor/Monitor_Control.c:131:14
	ldr	r0, [sp, #16]
.Ltmp46:
	.loc	2 131 14 is_stmt 0              @ ../Monitor/Monitor_Control.c:131:14
	cmp	r0, #40
	bne	.LBB3_13
	b	.LBB3_12
.LBB3_12:
.Ltmp47:
	.loc	2 134 21 is_stmt 1              @ ../Monitor/Monitor_Control.c:134:21
	ldr	r1, __arm_cp.3_1
	ldrb	r0, [r1]
	adds	r0, r0, #1
	strb	r0, [r1]
	.loc	2 137 9                         @ ../Monitor/Monitor_Control.c:137:9
	ldr	r0, [sp, #20]
	ldr	r0, [r0]
	movs	r1, #40
	orrs	r0, r1
	movs	r1, #20
	bics	r0, r1
	ldr	r1, [sp, #20]
	str	r0, [r1]
	.loc	2 138 5                         @ ../Monitor/Monitor_Control.c:138:5
	b	.LBB3_53
.Ltmp48:
.LBB3_13:
	.loc	2 139 14                        @ ../Monitor/Monitor_Control.c:139:14
	ldr	r0, [sp, #16]
.Ltmp49:
	.loc	2 139 14 is_stmt 0              @ ../Monitor/Monitor_Control.c:139:14
	cmp	r0, #48
	bne	.LBB3_15
	b	.LBB3_14
.LBB3_14:
.Ltmp50:
	.loc	2 141 9 is_stmt 1               @ ../Monitor/Monitor_Control.c:141:9
	ldr	r0, [sp, #20]
	ldr	r0, [r0]
	movs	r1, #24
	orrs	r0, r1
	movs	r1, #36
	bics	r0, r1
	ldr	r1, [sp, #20]
	str	r0, [r1]
	.loc	2 143 28                        @ ../Monitor/Monitor_Control.c:143:28
	ldr	r0, [sp, #20]
	.loc	2 143 9 is_stmt 0               @ ../Monitor/Monitor_Control.c:143:9
	bl	I2C0_Error_Hanlder
	.loc	2 144 5 is_stmt 1               @ ../Monitor/Monitor_Control.c:144:5
	b	.LBB3_52
.Ltmp51:
.LBB3_15:
	.loc	2 145 14                        @ ../Monitor/Monitor_Control.c:145:14
	ldr	r0, [sp, #16]
.Ltmp52:
	.loc	2 145 14 is_stmt 0              @ ../Monitor/Monitor_Control.c:145:14
	cmp	r0, #16
	bne	.LBB3_24
	b	.LBB3_16
.LBB3_16:
.Ltmp53:
	.loc	2 147 14 is_stmt 1              @ ../Monitor/Monitor_Control.c:147:14
	ldr	r0, __arm_cp.3_1
	ldrb	r0, [r0]
	.loc	2 147 53 is_stmt 0              @ ../Monitor/Monitor_Control.c:147:53
	cmp	r0, #1
	beq	.LBB3_18
	b	.LBB3_17
.LBB3_17:
	.loc	2 148 18 is_stmt 1              @ ../Monitor/Monitor_Control.c:148:18
	ldr	r0, __arm_cp.3_1
	ldrb	r0, [r0]
.Ltmp54:
	.loc	2 147 13                        @ ../Monitor/Monitor_Control.c:147:13
	cmp	r0, #6
	bne	.LBB3_19
	b	.LBB3_18
.LBB3_18:
.Ltmp55:
	.loc	2 151 13                        @ ../Monitor/Monitor_Control.c:151:13
	ldr	r1, [sp, #20]
	movs	r0, #128
	str	r0, [r1, #8]
	.loc	2 152 9                         @ ../Monitor/Monitor_Control.c:152:9
	b	.LBB3_23
.Ltmp56:
.LBB3_19:
	.loc	2 153 19                        @ ../Monitor/Monitor_Control.c:153:19
	ldr	r0, __arm_cp.3_1
	ldrb	r0, [r0]
	.loc	2 153 57 is_stmt 0              @ ../Monitor/Monitor_Control.c:153:57
	cmp	r0, #3
	beq	.LBB3_21
	b	.LBB3_20
.LBB3_20:
	.loc	2 154 19 is_stmt 1              @ ../Monitor/Monitor_Control.c:154:19
	ldr	r0, __arm_cp.3_1
	ldrb	r0, [r0]
.Ltmp57:
	.loc	2 153 18                        @ ../Monitor/Monitor_Control.c:153:18
	cmp	r0, #8
	bne	.LBB3_22
	b	.LBB3_21
.LBB3_21:
.Ltmp58:
	.loc	2 157 13                        @ ../Monitor/Monitor_Control.c:157:13
	ldr	r1, [sp, #20]
	movs	r0, #129
	str	r0, [r1, #8]
	.loc	2 158 9                         @ ../Monitor/Monitor_Control.c:158:9
	b	.LBB3_22
.Ltmp59:
.LBB3_22:
	.loc	2 0 9 is_stmt 0                 @ ../Monitor/Monitor_Control.c:0:9
	b	.LBB3_23
.LBB3_23:
	.loc	2 160 21 is_stmt 1              @ ../Monitor/Monitor_Control.c:160:21
	ldr	r1, __arm_cp.3_1
	ldrb	r0, [r1]
	adds	r0, r0, #1
	strb	r0, [r1]
	.loc	2 161 9                         @ ../Monitor/Monitor_Control.c:161:9
	ldr	r0, [sp, #20]
	ldr	r0, [r0]
	movs	r1, #8
	orrs	r0, r1
	movs	r1, #52
	bics	r0, r1
	ldr	r1, [sp, #20]
	str	r0, [r1]
	.loc	2 162 5                         @ ../Monitor/Monitor_Control.c:162:5
	b	.LBB3_51
.Ltmp60:
.LBB3_24:
	.loc	2 163 14                        @ ../Monitor/Monitor_Control.c:163:14
	ldr	r0, [sp, #16]
.Ltmp61:
	.loc	2 163 14 is_stmt 0              @ ../Monitor/Monitor_Control.c:163:14
	cmp	r0, #64
	bne	.LBB3_26
	b	.LBB3_25
.LBB3_25:
.Ltmp62:
	.loc	2 165 9 is_stmt 1               @ ../Monitor/Monitor_Control.c:165:9
	ldr	r0, [sp, #20]
	ldr	r0, [r0]
	movs	r1, #12
	orrs	r0, r1
	movs	r1, #48
	bics	r0, r1
	ldr	r1, [sp, #20]
	str	r0, [r1]
	.loc	2 166 5                         @ ../Monitor/Monitor_Control.c:166:5
	b	.LBB3_50
.Ltmp63:
.LBB3_26:
	.loc	2 167 14                        @ ../Monitor/Monitor_Control.c:167:14
	ldr	r0, [sp, #16]
.Ltmp64:
	.loc	2 167 14 is_stmt 0              @ ../Monitor/Monitor_Control.c:167:14
	cmp	r0, #72
	bne	.LBB3_28
	b	.LBB3_27
.LBB3_27:
.Ltmp65:
	.loc	2 169 9 is_stmt 1               @ ../Monitor/Monitor_Control.c:169:9
	ldr	r0, [sp, #20]
	ldr	r0, [r0]
	movs	r1, #24
	orrs	r0, r1
	movs	r1, #36
	bics	r0, r1
	ldr	r1, [sp, #20]
	str	r0, [r1]
	.loc	2 171 28                        @ ../Monitor/Monitor_Control.c:171:28
	ldr	r0, [sp, #20]
	.loc	2 171 9 is_stmt 0               @ ../Monitor/Monitor_Control.c:171:9
	bl	I2C0_Error_Hanlder
	.loc	2 172 5 is_stmt 1               @ ../Monitor/Monitor_Control.c:172:5
	b	.LBB3_49
.Ltmp66:
.LBB3_28:
	.loc	2 173 14                        @ ../Monitor/Monitor_Control.c:173:14
	ldr	r0, [sp, #16]
.Ltmp67:
	.loc	2 173 14 is_stmt 0              @ ../Monitor/Monitor_Control.c:173:14
	cmp	r0, #80
	bne	.LBB3_30
	b	.LBB3_29
.LBB3_29:
.Ltmp68:
	.loc	2 175 46 is_stmt 1              @ ../Monitor/Monitor_Control.c:175:46
	ldr	r0, [sp, #20]
	ldr	r0, [r0, #8]
	.loc	2 175 30 is_stmt 0              @ ../Monitor/Monitor_Control.c:175:30
	uxtb	r0, r0
	.loc	2 175 28                        @ ../Monitor/Monitor_Control.c:175:28
	ldr	r1, __arm_cp.3_0
	strh	r0, [r1]
	.loc	2 177 21 is_stmt 1              @ ../Monitor/Monitor_Control.c:177:21
	ldr	r1, __arm_cp.3_1
	ldrb	r0, [r1]
	adds	r0, r0, #1
	strb	r0, [r1]
	.loc	2 178 9                         @ ../Monitor/Monitor_Control.c:178:9
	ldr	r0, [sp, #20]
	ldr	r0, [r0]
	movs	r1, #8
	orrs	r0, r1
	movs	r1, #52
	bics	r0, r1
	ldr	r1, [sp, #20]
	str	r0, [r1]
	.loc	2 179 5                         @ ../Monitor/Monitor_Control.c:179:5
	b	.LBB3_48
.Ltmp69:
.LBB3_30:
	.loc	2 180 14                        @ ../Monitor/Monitor_Control.c:180:14
	ldr	r0, [sp, #16]
.Ltmp70:
	.loc	2 180 14 is_stmt 0              @ ../Monitor/Monitor_Control.c:180:14
	cmp	r0, #88
	beq	.LBB3_31
	b	.LBB3_46
.LBB3_31:
.Ltmp71:
	.loc	2 182 46 is_stmt 1              @ ../Monitor/Monitor_Control.c:182:46
	ldr	r0, [sp, #20]
	ldr	r0, [r0, #8]
	.loc	2 182 30 is_stmt 0              @ ../Monitor/Monitor_Control.c:182:30
	uxtb	r0, r0
	.loc	2 182 28                        @ ../Monitor/Monitor_Control.c:182:28
	ldr	r1, __arm_cp.3_0
	strh	r0, [r1, #2]
.Ltmp72:
	.loc	2 184 13 is_stmt 1              @ ../Monitor/Monitor_Control.c:184:13
	ldr	r0, __arm_cp.3_1
	ldrb	r0, [r0]
.Ltmp73:
	.loc	2 184 13 is_stmt 0              @ ../Monitor/Monitor_Control.c:184:13
	cmp	r0, #5
	bne	.LBB3_33
	b	.LBB3_32
.LBB3_32:
.Ltmp74:
	.loc	2 186 20 is_stmt 1              @ ../Monitor/Monitor_Control.c:186:20
	ldr	r1, __arm_cp.3_0
	ldrh	r0, [r1]
	movs	r2, #128
	.loc	2 186 39 is_stmt 0              @ ../Monitor/Monitor_Control.c:186:39
	ands	r0, r2
	add	r2, sp, #12
	.loc	2 186 18                        @ ../Monitor/Monitor_Control.c:186:18
	strb	r0, [r2]
	.loc	2 187 23 is_stmt 1              @ ../Monitor/Monitor_Control.c:187:23
	ldrh	r0, [r1]
	.loc	2 187 42 is_stmt 0              @ ../Monitor/Monitor_Control.c:187:42
	lsls	r0, r0, #8
	.loc	2 187 50                        @ ../Monitor/Monitor_Control.c:187:50
	ldrh	r1, [r1, #2]
	.loc	2 187 48                        @ ../Monitor/Monitor_Control.c:187:48
	orrs	r0, r1
	ldr	r1, __arm_cp.3_2
	.loc	2 187 70                        @ ../Monitor/Monitor_Control.c:187:70
	ands	r0, r1
	.loc	2 187 80                        @ ../Monitor/Monitor_Control.c:187:80
	lsrs	r1, r0, #3
	add	r0, sp, #8
	.loc	2 187 18                        @ ../Monitor/Monitor_Control.c:187:18
	strh	r1, [r0]
	.loc	2 193 22 is_stmt 1              @ ../Monitor/Monitor_Control.c:193:22
	ldrh	r1, [r0]
	.loc	2 193 58 is_stmt 0              @ ../Monitor/Monitor_Control.c:193:58
	ldr	r2, __arm_cp.3_3
	ldrb	r3, [r2]
	.loc	2 193 34                        @ ../Monitor/Monitor_Control.c:193:34
	lsls	r4, r3, #1
	ldr	r3, __arm_cp.3_7
	ldrh	r4, [r3, r4]
	.loc	2 193 27                        @ ../Monitor/Monitor_Control.c:193:27
	muls	r4, r1, r4
	movs	r1, #40
	.loc	2 193 32                        @ ../Monitor/Monitor_Control.c:193:32
	mov	r3, r1
	muls	r3, r4, r3
	.loc	2 193 105                       @ ../Monitor/Monitor_Control.c:193:105
	ldrb	r4, [r2]
	.loc	2 193 78                        @ ../Monitor/Monitor_Control.c:193:78
	lsls	r5, r4, #1
	ldr	r4, __arm_cp.3_8
	ldrh	r5, [r4, r5]
	movw	r4, #1000
	.loc	2 193 121                       @ ../Monitor/Monitor_Control.c:193:121
	muls	r4, r5, r4
	.loc	2 193 75                        @ ../Monitor/Monitor_Control.c:193:75
	sdiv	r3, r3, r4
	.loc	2 193 129                       @ ../Monitor/Monitor_Control.c:193:129
	adds	r3, r3, #5
	movs	r4, #10
	.loc	2 193 134                       @ ../Monitor/Monitor_Control.c:193:134
	sdiv	r3, r3, r4
	.loc	2 193 18                        @ ../Monitor/Monitor_Control.c:193:18
	strh	r3, [r0]
	.loc	2 194 72 is_stmt 1              @ ../Monitor/Monitor_Control.c:194:72
	ldrb	r2, [r2]
	.loc	2 194 87 is_stmt 0              @ ../Monitor/Monitor_Control.c:194:87
	lsls	r3, r2, #2
	.loc	2 194 69                        @ ../Monitor/Monitor_Control.c:194:69
	adds	r3, #48
	add	r2, sp, #4
	.loc	2 194 22                        @ ../Monitor/Monitor_Control.c:194:22
	strh	r3, [r2]
	.loc	2 195 58 is_stmt 1              @ ../Monitor/Monitor_Control.c:195:58
	ldr	r4, [sp, #8]
	.loc	2 195 24 is_stmt 0              @ ../Monitor/Monitor_Control.c:195:24
	ldrh	r5, [r2]
	.loc	2 195 13                        @ ../Monitor/Monitor_Control.c:195:13
	ldr	r3, __arm_cp.3_4
	.loc	2 195 46                        @ ../Monitor/Monitor_Control.c:195:46
	strb	r4, [r3, r5]
	.loc	2 196 58 is_stmt 1              @ ../Monitor/Monitor_Control.c:196:58
	ldrb	r0, [r0, #1]
	.loc	2 196 24 is_stmt 0              @ ../Monitor/Monitor_Control.c:196:24
	ldrh	r2, [r2]
	.loc	2 196 41                        @ ../Monitor/Monitor_Control.c:196:41
	adds	r2, r2, r3
	.loc	2 196 46                        @ ../Monitor/Monitor_Control.c:196:46
	strb	r0, [r2, #1]
	.loc	2 199 25 is_stmt 1              @ ../Monitor/Monitor_Control.c:199:25
	ldr	r2, __arm_cp.3_1
	ldrb	r0, [r2]
	adds	r0, r0, #1
	strb	r0, [r2]
	.loc	2 202 13                        @ ../Monitor/Monitor_Control.c:202:13
	ldr	r0, [sp, #20]
	ldr	r0, [r0]
	orrs	r0, r1
	movs	r1, #20
	bics	r0, r1
	ldr	r1, [sp, #20]
	str	r0, [r1]
	.loc	2 203 9                         @ ../Monitor/Monitor_Control.c:203:9
	b	.LBB3_45
.Ltmp75:
.LBB3_33:
	.loc	2 204 18                        @ ../Monitor/Monitor_Control.c:204:18
	ldr	r0, __arm_cp.3_1
	ldrb	r0, [r0]
.Ltmp76:
	.loc	2 204 18 is_stmt 0              @ ../Monitor/Monitor_Control.c:204:18
	cmp	r0, #10
	bne	.LBB3_44
	b	.LBB3_34
.LBB3_34:
.Ltmp77:
	.loc	2 206 20 is_stmt 1              @ ../Monitor/Monitor_Control.c:206:20
	ldr	r1, __arm_cp.3_0
	ldrh	r0, [r1]
	movs	r2, #128
	.loc	2 206 39 is_stmt 0              @ ../Monitor/Monitor_Control.c:206:39
	ands	r0, r2
	add	r2, sp, #12
	.loc	2 206 18                        @ ../Monitor/Monitor_Control.c:206:18
	strb	r0, [r2]
	.loc	2 207 23 is_stmt 1              @ ../Monitor/Monitor_Control.c:207:23
	ldrh	r0, [r1]
	.loc	2 207 42 is_stmt 0              @ ../Monitor/Monitor_Control.c:207:42
	lsls	r0, r0, #8
	.loc	2 207 50                        @ ../Monitor/Monitor_Control.c:207:50
	ldrh	r1, [r1, #2]
	.loc	2 207 48                        @ ../Monitor/Monitor_Control.c:207:48
	orrs	r0, r1
	ldr	r1, __arm_cp.3_2
	.loc	2 207 70                        @ ../Monitor/Monitor_Control.c:207:70
	ands	r0, r1
	.loc	2 207 80                        @ ../Monitor/Monitor_Control.c:207:80
	lsrs	r1, r0, #3
	add	r0, sp, #8
	.loc	2 207 18                        @ ../Monitor/Monitor_Control.c:207:18
	strh	r1, [r0]
	.loc	2 213 21 is_stmt 1              @ ../Monitor/Monitor_Control.c:213:21
	ldrh	r1, [r0]
	.loc	2 213 26 is_stmt 0              @ ../Monitor/Monitor_Control.c:213:26
	lsls	r1, r1, #3
	.loc	2 213 30                        @ ../Monitor/Monitor_Control.c:213:30
	adds	r1, r1, #5
	movs	r2, #10
	.loc	2 213 35                        @ ../Monitor/Monitor_Control.c:213:35
	udiv	r1, r1, r2
	.loc	2 213 18                        @ ../Monitor/Monitor_Control.c:213:18
	strh	r1, [r0]
	.loc	2 214 72 is_stmt 1              @ ../Monitor/Monitor_Control.c:214:72
	ldr	r1, __arm_cp.3_3
	ldrb	r2, [r1]
	.loc	2 214 87 is_stmt 0              @ ../Monitor/Monitor_Control.c:214:87
	lsls	r3, r2, #2
	.loc	2 214 92                        @ ../Monitor/Monitor_Control.c:214:92
	adds	r3, #50
	mov	r2, sp
	.loc	2 214 22                        @ ../Monitor/Monitor_Control.c:214:22
	strh	r3, [r2]
	.loc	2 215 58 is_stmt 1              @ ../Monitor/Monitor_Control.c:215:58
	ldr	r4, [sp, #8]
	.loc	2 215 24 is_stmt 0              @ ../Monitor/Monitor_Control.c:215:24
	ldrh	r5, [r2]
	.loc	2 215 13                        @ ../Monitor/Monitor_Control.c:215:13
	ldr	r3, __arm_cp.3_4
	.loc	2 215 46                        @ ../Monitor/Monitor_Control.c:215:46
	strb	r4, [r3, r5]
	.loc	2 216 58 is_stmt 1              @ ../Monitor/Monitor_Control.c:216:58
	ldrb	r0, [r0, #1]
	.loc	2 216 24 is_stmt 0              @ ../Monitor/Monitor_Control.c:216:24
	ldrh	r2, [r2]
	.loc	2 216 41                        @ ../Monitor/Monitor_Control.c:216:41
	adds	r2, r2, r3
	.loc	2 216 46                        @ ../Monitor/Monitor_Control.c:216:46
	strb	r0, [r2, #1]
	.loc	2 219 27 is_stmt 1              @ ../Monitor/Monitor_Control.c:219:27
	ldrb	r0, [r1]
	adds	r0, r0, #1
	strb	r0, [r1]
	.loc	2 221 13                        @ ../Monitor/Monitor_Control.c:221:13
	b	.LBB3_35
.LBB3_35:                               @ =>This Inner Loop Header: Depth=1
	.loc	2 221 20 is_stmt 0              @ ../Monitor/Monitor_Control.c:221:20
	ldr	r0, __arm_cp.3_3
	ldrb	r0, [r0]
	.loc	2 221 13                        @ ../Monitor/Monitor_Control.c:221:13
	cmp	r0, #2
	bgt	.LBB3_40
	b	.LBB3_36
.LBB3_36:                               @   in Loop: Header=BB3_35 Depth=1
.Ltmp78:
	.loc	2 223 41 is_stmt 1              @ ../Monitor/Monitor_Control.c:223:41
	ldr	r0, __arm_cp.3_3
	ldrb	r1, [r0]
	.loc	2 223 21 is_stmt 0              @ ../Monitor/Monitor_Control.c:223:21
	ldr	r0, __arm_cp.3_5
	ldrb	r0, [r0, r1]
.Ltmp79:
	.loc	2 223 21                        @ ../Monitor/Monitor_Control.c:223:21
	cbnz	r0, .LBB3_38
	b	.LBB3_37
.LBB3_37:                               @   in Loop: Header=BB3_35 Depth=1
.Ltmp80:
	.loc	2 225 35 is_stmt 1              @ ../Monitor/Monitor_Control.c:225:35
	ldr	r1, __arm_cp.3_3
	ldrb	r0, [r1]
	adds	r0, r0, #1
	strb	r0, [r1]
	.loc	2 226 17                        @ ../Monitor/Monitor_Control.c:226:17
	b	.LBB3_39
.Ltmp81:
.LBB3_38:
	.loc	2 228 21                        @ ../Monitor/Monitor_Control.c:228:21
	b	.LBB3_40
.Ltmp82:
.LBB3_39:                               @   in Loop: Header=BB3_35 Depth=1
	.loc	2 221 13                        @ ../Monitor/Monitor_Control.c:221:13
	b	.LBB3_35
.LBB3_40:
.Ltmp83:
	.loc	2 231 17                        @ ../Monitor/Monitor_Control.c:231:17
	ldr	r0, __arm_cp.3_3
	ldrb	r0, [r0]
.Ltmp84:
	.loc	2 231 17 is_stmt 0              @ ../Monitor/Monitor_Control.c:231:17
	cmp	r0, #3
	bne	.LBB3_42
	b	.LBB3_41
.LBB3_41:
.Ltmp85:
	.loc	2 234 17 is_stmt 1              @ ../Monitor/Monitor_Control.c:234:17
	ldr	r0, [sp, #20]
	ldr	r0, [r0]
	movs	r1, #24
	orrs	r0, r1
	movs	r1, #36
	bics	r0, r1
	ldr	r1, [sp, #20]
	str	r0, [r1]
	.loc	2 237 36                        @ ../Monitor/Monitor_Control.c:237:36
	ldr	r0, [sp, #20]
	.loc	2 237 17 is_stmt 0              @ ../Monitor/Monitor_Control.c:237:17
	bl	I2C_DisableTimeout
	.loc	2 239 34 is_stmt 1              @ ../Monitor/Monitor_Control.c:239:34
	ldr	r1, __arm_cp.3_6
	movs	r0, #1
	strb	r0, [r1]
	.loc	2 240 13                        @ ../Monitor/Monitor_Control.c:240:13
	b	.LBB3_43
.Ltmp86:
.LBB3_42:
	.loc	2 243 30                        @ ../Monitor/Monitor_Control.c:243:30
	ldr	r1, __arm_cp.3_1
	movs	r0, #1
	strb	r0, [r1]
	.loc	2 246 17                        @ ../Monitor/Monitor_Control.c:246:17
	ldr	r0, [sp, #20]
	ldr	r0, [r0]
	movs	r1, #40
	orrs	r0, r1
	movs	r1, #20
	bics	r0, r1
	ldr	r1, [sp, #20]
	str	r0, [r1]
	b	.LBB3_43
.Ltmp87:
.LBB3_43:
	.loc	2 248 9                         @ ../Monitor/Monitor_Control.c:248:9
	b	.LBB3_44
.Ltmp88:
.LBB3_44:
	.loc	2 0 9 is_stmt 0                 @ ../Monitor/Monitor_Control.c:0:9
	b	.LBB3_45
.LBB3_45:
	.loc	2 249 5 is_stmt 1               @ ../Monitor/Monitor_Control.c:249:5
	b	.LBB3_47
.Ltmp89:
.LBB3_46:
	.loc	2 252 9                         @ ../Monitor/Monitor_Control.c:252:9
	ldr	r0, [sp, #20]
	ldr	r0, [r0]
	movs	r1, #24
	orrs	r0, r1
	movs	r1, #36
	bics	r0, r1
	ldr	r1, [sp, #20]
	str	r0, [r1]
	.loc	2 254 28                        @ ../Monitor/Monitor_Control.c:254:28
	ldr	r0, [sp, #20]
	.loc	2 254 9 is_stmt 0               @ ../Monitor/Monitor_Control.c:254:9
	bl	I2C0_Error_Hanlder
	b	.LBB3_47
.Ltmp90:
.LBB3_47:
	.loc	2 0 9                           @ ../Monitor/Monitor_Control.c:0:9
	b	.LBB3_48
.LBB3_48:
	b	.LBB3_49
.LBB3_49:
	b	.LBB3_50
.LBB3_50:
	b	.LBB3_51
.LBB3_51:
	b	.LBB3_52
.LBB3_52:
	b	.LBB3_53
.LBB3_53:
	b	.LBB3_54
.LBB3_54:
	b	.LBB3_55
.LBB3_55:
	b	.LBB3_56
.LBB3_56:
	.loc	2 256 1 epilogue_begin is_stmt 1 @ ../Monitor/Monitor_Control.c:256:1
	add	sp, #24
	pop	{r4, r5, r7, pc}
.Ltmp91:
	.p2align	2
@ %bb.57:
	.loc	2 0 1 is_stmt 0                 @ ../Monitor/Monitor_Control.c:0:1
__arm_cp.3_0:
	.long	g_u16TempData_0
.Lcpi_end17:
	.size	__arm_cp.3_0, .Lcpi_end17-__arm_cp.3_0
__arm_cp.3_1:
	.long	g_u8Status_0
.Lcpi_end18:
	.size	__arm_cp.3_1, .Lcpi_end18-__arm_cp.3_1
__arm_cp.3_2:
	.long	32760                           @ 0x7ff8
.Lcpi_end19:
	.size	__arm_cp.3_2, .Lcpi_end19-__arm_cp.3_2
__arm_cp.3_3:
	.long	g_u8TargetCH_0
.Lcpi_end20:
	.size	__arm_cp.3_3, .Lcpi_end20-__arm_cp.3_3
__arm_cp.3_4:
	.long	eeprom_ram
.Lcpi_end21:
	.size	__arm_cp.3_4, .Lcpi_end21-__arm_cp.3_4
__arm_cp.3_5:
	.long	CH_Enalbe_Monitor_0
.Lcpi_end22:
	.size	__arm_cp.3_5, .Lcpi_end22-__arm_cp.3_5
__arm_cp.3_6:
	.long	g_u8GetEndFlag_0
.Lcpi_end23:
	.size	__arm_cp.3_6, .Lcpi_end23-__arm_cp.3_6
__arm_cp.3_7:
	.long	Shunt_Ratio_Molecular_0
.Lcpi_end24:
	.size	__arm_cp.3_7, .Lcpi_end24-__arm_cp.3_7
__arm_cp.3_8:
	.long	Shunt_Ratio_Denomination_0
.Lcpi_end25:
	.size	__arm_cp.3_8, .Lcpi_end25-__arm_cp.3_8
.Lfunc_end3:
	.size	I2C0_MasterTRx, .Lfunc_end3-I2C0_MasterTRx
	.cfi_endproc
	.cantunwind
	.fnend
                                        @ -- End function
	.section	.text.SYS_UnlockReg,"ax",%progbits
	.p2align	2                               @ -- Begin function SYS_UnlockReg
	.type	SYS_UnlockReg,%function
	.code	16                              @ @SYS_UnlockReg
	.thumb_func
SYS_UnlockReg:
.Lfunc_begin4:
	.fnstart
	.cfi_startproc
@ %bb.0:
	.file	10 "C:\\Users\\tester\\Desktop\\M251 dual eeprom\\SampleCode\\StdDriver\\INA3221_CABLE\\KEIL" "../../../../Library/StdDriver/inc\\sys.h"
	.loc	10 1314 5 prologue_end is_stmt 1 @ ../../../../Library/StdDriver/inc\sys.h:1314:5
	b	.LBB4_1
.LBB4_1:                                @ =>This Inner Loop Header: Depth=1
	.loc	10 0 5 is_stmt 0                @ ../../../../Library/StdDriver/inc\sys.h:0:5
	ldr	r1, __arm_cp.4_0
	movs	r0, #89
.Ltmp92:
	.loc	10 1316 22 is_stmt 1            @ ../../../../Library/StdDriver/inc\sys.h:1316:22
	str	r0, [r1]
	movs	r0, #22
	.loc	10 1317 22                      @ ../../../../Library/StdDriver/inc\sys.h:1317:22
	str	r0, [r1]
	movs	r0, #136
	.loc	10 1318 22                      @ ../../../../Library/StdDriver/inc\sys.h:1318:22
	str	r0, [r1]
	.loc	10 1319 5                       @ ../../../../Library/StdDriver/inc\sys.h:1319:5
	b	.LBB4_2
.Ltmp93:
.LBB4_2:                                @   in Loop: Header=BB4_1 Depth=1
	.loc	10 0 5 is_stmt 0                @ ../../../../Library/StdDriver/inc\sys.h:0:5
	ldr	r0, __arm_cp.4_0
	.loc	10 1319 19                      @ ../../../../Library/StdDriver/inc\sys.h:1319:19
	ldr	r0, [r0]
.Ltmp94:
	.loc	10 1319 5                       @ ../../../../Library/StdDriver/inc\sys.h:1319:5
	cmp	r0, #0
	beq	.LBB4_1
	b	.LBB4_3
.Ltmp95:
.LBB4_3:
	.loc	10 1320 1 is_stmt 1             @ ../../../../Library/StdDriver/inc\sys.h:1320:1
	bx	lr
.Ltmp96:
	.p2align	2
@ %bb.4:
	.loc	10 0 1 is_stmt 0                @ ../../../../Library/StdDriver/inc\sys.h:0:1
__arm_cp.4_0:
	.long	1073742080                      @ 0x40000100
.Lcpi_end26:
	.size	__arm_cp.4_0, .Lcpi_end26-__arm_cp.4_0
.Lfunc_end4:
	.size	SYS_UnlockReg, .Lfunc_end4-SYS_UnlockReg
	.cfi_endproc
	.cantunwind
	.fnend
                                        @ -- End function
	.section	.text.__NVIC_EnableIRQ,"ax",%progbits
	.p2align	2                               @ -- Begin function __NVIC_EnableIRQ
	.type	__NVIC_EnableIRQ,%function
	.code	16                              @ @__NVIC_EnableIRQ
	.thumb_func
__NVIC_EnableIRQ:
.Lfunc_begin5:
	.loc	9 1481 0 is_stmt 1              @ ../../../../Library/CMSIS/Core/Include\core_cm23.h:1481:0
	.fnstart
	.cfi_startproc
@ %bb.0:
	.pad	#4
	sub	sp, #4
	.cfi_def_cfa_offset 4
	mov	r1, r0
                                        @ kill: def $r0 killed $r1
	mov	r0, sp
	strb	r1, [r0]
.Ltmp97:
	.loc	9 1482 17 prologue_end          @ ../../../../Library/CMSIS/Core/Include\core_cm23.h:1482:17
	movs	r1, #0
	ldrsb	r0, [r0, r1]
.Ltmp98:
	.loc	9 1482 7 is_stmt 0              @ ../../../../Library/CMSIS/Core/Include\core_cm23.h:1482:7
	cmp	r0, #0
	bmi	.LBB5_2
	b	.LBB5_1
.LBB5_1:
.Ltmp99:
	.loc	9 1484 5 is_stmt 1              @ ../../../../Library/CMSIS/Core/Include\core_cm23.h:1484:5
	@APP
	@NO_APP
	.loc	9 1485 75                       @ ../../../../Library/CMSIS/Core/Include\core_cm23.h:1485:75
	movs	r1, #0
	mov	r0, sp
	ldrsb	r1, [r0, r1]
	movs	r0, #31
	.loc	9 1485 81 is_stmt 0             @ ../../../../Library/CMSIS/Core/Include\core_cm23.h:1485:81
	mov	r2, r1
	ands	r2, r0
	movs	r0, #1
	.loc	9 1485 60                       @ ../../../../Library/CMSIS/Core/Include\core_cm23.h:1485:60
	lsls	r0, r2
	.loc	9 1485 5                        @ ../../../../Library/CMSIS/Core/Include\core_cm23.h:1485:5
	lsrs	r1, r1, #5
	lsls	r1, r1, #2
	ldr	r2, __arm_cp.5_0
	.loc	9 1485 43                       @ ../../../../Library/CMSIS/Core/Include\core_cm23.h:1485:43
	str	r0, [r1, r2]
	.loc	9 1486 5 is_stmt 1              @ ../../../../Library/CMSIS/Core/Include\core_cm23.h:1486:5
	@APP
	@NO_APP
	.loc	9 1487 3                        @ ../../../../Library/CMSIS/Core/Include\core_cm23.h:1487:3
	b	.LBB5_2
.Ltmp100:
.LBB5_2:
	.loc	9 1488 1 epilogue_begin         @ ../../../../Library/CMSIS/Core/Include\core_cm23.h:1488:1
	add	sp, #4
	bx	lr
.Ltmp101:
	.p2align	2
@ %bb.3:
	.loc	9 0 1 is_stmt 0                 @ ../../../../Library/CMSIS/Core/Include\core_cm23.h:0:1
__arm_cp.5_0:
	.long	3758153984                      @ 0xe000e100
.Lcpi_end27:
	.size	__arm_cp.5_0, .Lcpi_end27-__arm_cp.5_0
.Lfunc_end5:
	.size	__NVIC_EnableIRQ, .Lfunc_end5-__NVIC_EnableIRQ
	.cfi_endproc
	.cantunwind
	.fnend
                                        @ -- End function
	.section	.text.__NVIC_SetPriority,"ax",%progbits
	.p2align	2                               @ -- Begin function __NVIC_SetPriority
	.type	__NVIC_SetPriority,%function
	.code	16                              @ @__NVIC_SetPriority
	.thumb_func
__NVIC_SetPriority:
.Lfunc_begin6:
	.loc	9 1678 0 is_stmt 1              @ ../../../../Library/CMSIS/Core/Include\core_cm23.h:1678:0
	.fnstart
	.cfi_startproc
@ %bb.0:
	.save	{r4, r5, r6, lr}
	push	{r4, r5, r6, lr}
	.cfi_def_cfa_offset 16
	.cfi_offset lr, -4
	.cfi_offset r6, -8
	.cfi_offset r5, -12
	.cfi_offset r4, -16
	.pad	#8
	sub	sp, #8
	.cfi_def_cfa_offset 24
	mov	r2, r0
                                        @ kill: def $r0 killed $r2
	add	r0, sp, #4
	strb	r2, [r0]
	str	r1, [sp]
.Ltmp102:
	.loc	9 1679 17 prologue_end          @ ../../../../Library/CMSIS/Core/Include\core_cm23.h:1679:17
	movs	r1, #0
	ldrsb	r0, [r0, r1]
.Ltmp103:
	.loc	9 1679 7 is_stmt 0              @ ../../../../Library/CMSIS/Core/Include\core_cm23.h:1679:7
	cmp	r0, #0
	bmi	.LBB6_2
	b	.LBB6_1
.LBB6_1:
.Ltmp104:
	.loc	9 1681 55 is_stmt 1             @ ../../../../Library/CMSIS/Core/Include\core_cm23.h:1681:55
	movs	r4, #0
	add	r1, sp, #4
	ldrsb	r0, [r1, r4]
	movs	r2, #3
	mvns	r3, r2
	.loc	9 1681 45 is_stmt 0             @ ../../../../Library/CMSIS/Core/Include\core_cm23.h:1681:45
	ands	r0, r3
	ldr	r2, __arm_cp.6_1
	ldr	r0, [r0, r2]
	.loc	9 1681 85                       @ ../../../../Library/CMSIS/Core/Include\core_cm23.h:1681:85
	ldrsb	r1, [r1, r4]
	lsls	r4, r1, #30
	lsrs	r5, r4, #27
	movs	r4, #255
	.loc	9 1681 82                       @ ../../../../Library/CMSIS/Core/Include\core_cm23.h:1681:82
	lsls	r4, r5
	.loc	9 1681 71                       @ ../../../../Library/CMSIS/Core/Include\core_cm23.h:1681:71
	bics	r0, r4
	.loc	9 1682 11 is_stmt 1             @ ../../../../Library/CMSIS/Core/Include\core_cm23.h:1682:11
	ldr	r4, [sp]
	.loc	9 1682 20 is_stmt 0             @ ../../../../Library/CMSIS/Core/Include\core_cm23.h:1682:20
	lsls	r4, r4, #6
	.loc	9 1682 48                       @ ../../../../Library/CMSIS/Core/Include\core_cm23.h:1682:48
	uxtb	r4, r4
	.loc	9 1682 68                       @ ../../../../Library/CMSIS/Core/Include\core_cm23.h:1682:68
	lsls	r4, r5
	.loc	9 1681 104 is_stmt 1            @ ../../../../Library/CMSIS/Core/Include\core_cm23.h:1681:104
	orrs	r0, r4
	.loc	9 1681 5 is_stmt 0              @ ../../../../Library/CMSIS/Core/Include\core_cm23.h:1681:5
	ands	r1, r3
	.loc	9 1681 31                       @ ../../../../Library/CMSIS/Core/Include\core_cm23.h:1681:31
	str	r0, [r1, r2]
	.loc	9 1683 3 is_stmt 1              @ ../../../../Library/CMSIS/Core/Include\core_cm23.h:1683:3
	b	.LBB6_3
.Ltmp105:
.LBB6_2:
	.loc	9 0 3 is_stmt 0                 @ ../../../../Library/CMSIS/Core/Include\core_cm23.h:0:3
	add	r1, sp, #4
.Ltmp106:
	.loc	9 1686 55 is_stmt 1             @ ../../../../Library/CMSIS/Core/Include\core_cm23.h:1686:55
	ldrb	r0, [r1]
	movs	r4, #15
	ands	r0, r4
	subs	r0, #8
	movs	r2, #3
	mvns	r3, r2
	.loc	9 1686 45 is_stmt 0             @ ../../../../Library/CMSIS/Core/Include\core_cm23.h:1686:45
	ands	r0, r3
	ldr	r2, __arm_cp.6_0
	ldr	r0, [r0, r2]
	.loc	9 1686 85                       @ ../../../../Library/CMSIS/Core/Include\core_cm23.h:1686:85
	movs	r5, #0
	ldrsb	r1, [r1, r5]
	lsls	r5, r1, #30
	lsrs	r6, r5, #27
	movs	r5, #255
	.loc	9 1686 82                       @ ../../../../Library/CMSIS/Core/Include\core_cm23.h:1686:82
	lsls	r5, r6
	.loc	9 1686 71                       @ ../../../../Library/CMSIS/Core/Include\core_cm23.h:1686:71
	bics	r0, r5
	.loc	9 1687 11 is_stmt 1             @ ../../../../Library/CMSIS/Core/Include\core_cm23.h:1687:11
	ldr	r5, [sp]
	.loc	9 1687 20 is_stmt 0             @ ../../../../Library/CMSIS/Core/Include\core_cm23.h:1687:20
	lsls	r5, r5, #6
	.loc	9 1687 48                       @ ../../../../Library/CMSIS/Core/Include\core_cm23.h:1687:48
	uxtb	r5, r5
	.loc	9 1687 68                       @ ../../../../Library/CMSIS/Core/Include\core_cm23.h:1687:68
	lsls	r5, r6
	.loc	9 1686 104 is_stmt 1            @ ../../../../Library/CMSIS/Core/Include\core_cm23.h:1686:104
	orrs	r0, r5
	.loc	9 1686 15 is_stmt 0             @ ../../../../Library/CMSIS/Core/Include\core_cm23.h:1686:15
	ands	r1, r4
	subs	r1, #8
	.loc	9 1686 5                        @ ../../../../Library/CMSIS/Core/Include\core_cm23.h:1686:5
	ands	r1, r3
	.loc	9 1686 31                       @ ../../../../Library/CMSIS/Core/Include\core_cm23.h:1686:31
	str	r0, [r1, r2]
	b	.LBB6_3
.Ltmp107:
.LBB6_3:
	.loc	9 1689 1 epilogue_begin is_stmt 1 @ ../../../../Library/CMSIS/Core/Include\core_cm23.h:1689:1
	add	sp, #8
	pop	{r4, r5, r6, pc}
.Ltmp108:
	.p2align	2
@ %bb.4:
	.loc	9 0 1 is_stmt 0                 @ ../../../../Library/CMSIS/Core/Include\core_cm23.h:0:1
__arm_cp.6_0:
	.long	3758157084                      @ 0xe000ed1c
.Lcpi_end28:
	.size	__arm_cp.6_0, .Lcpi_end28-__arm_cp.6_0
__arm_cp.6_1:
	.long	3758154752                      @ 0xe000e400
.Lcpi_end29:
	.size	__arm_cp.6_1, .Lcpi_end29-__arm_cp.6_1
.Lfunc_end6:
	.size	__NVIC_SetPriority, .Lfunc_end6-__NVIC_SetPriority
	.cfi_endproc
	.cantunwind
	.fnend
                                        @ -- End function
	.section	.text.SYS_LockReg,"ax",%progbits
	.p2align	2                               @ -- Begin function SYS_LockReg
	.type	SYS_LockReg,%function
	.code	16                              @ @SYS_LockReg
	.thumb_func
SYS_LockReg:
.Lfunc_begin7:
	.loc	10 1328 0 is_stmt 1             @ ../../../../Library/StdDriver/inc\sys.h:1328:0
	.fnstart
	.cfi_startproc
@ %bb.0:
	ldr	r1, __arm_cp.7_0
	movs	r0, #0
.Ltmp109:
	.loc	10 1329 18 prologue_end         @ ../../../../Library/StdDriver/inc\sys.h:1329:18
	str	r0, [r1]
	.loc	10 1330 1                       @ ../../../../Library/StdDriver/inc\sys.h:1330:1
	bx	lr
.Ltmp110:
	.p2align	2
@ %bb.1:
	.loc	10 0 1 is_stmt 0                @ ../../../../Library/StdDriver/inc\sys.h:0:1
__arm_cp.7_0:
	.long	1073742080                      @ 0x40000100
.Lcpi_end30:
	.size	__arm_cp.7_0, .Lcpi_end30-__arm_cp.7_0
.Lfunc_end7:
	.size	SYS_LockReg, .Lfunc_end7-SYS_LockReg
	.cfi_endproc
	.cantunwind
	.fnend
                                        @ -- End function
	.section	.text.UI2C1_Error_Hanlder,"ax",%progbits
	.hidden	UI2C1_Error_Hanlder             @ -- Begin function UI2C1_Error_Hanlder
	.globl	UI2C1_Error_Hanlder
	.p2align	2
	.type	UI2C1_Error_Hanlder,%function
	.code	16                              @ @UI2C1_Error_Hanlder
	.thumb_func
UI2C1_Error_Hanlder:
.Lfunc_begin8:
	.loc	2 316 0 is_stmt 1               @ ../Monitor/Monitor_Control.c:316:0
	.fnstart
	.cfi_startproc
@ %bb.0:
	.save	{r4, r5, r7, lr}
	push	{r4, r5, r7, lr}
	.cfi_def_cfa_offset 16
	.cfi_offset lr, -4
	.cfi_offset r7, -8
	.cfi_offset r5, -12
	.cfi_offset r4, -16
	.pad	#8
	sub	sp, #8
	.cfi_def_cfa_offset 24
	str	r0, [sp, #4]
.Ltmp111:
	.loc	2 320 25 prologue_end           @ ../Monitor/Monitor_Control.c:320:25
	ldr	r0, [sp, #4]
	.loc	2 320 5 is_stmt 0               @ ../Monitor/Monitor_Control.c:320:5
	bl	UI2C_DisableTimeout
	.loc	2 321 5 is_stmt 1               @ ../Monitor/Monitor_Control.c:321:5
	ldr	r1, [sp, #4]
	ldr	r0, [r1, #96]
	movs	r2, #1
	bics	r0, r2
	str	r0, [r1, #96]
	mov	r1, sp
	movs	r0, #0
.Ltmp112:
	.loc	2 324 12                        @ ../Monitor/Monitor_Control.c:324:12
	strb	r0, [r1]
	.loc	2 324 10 is_stmt 0              @ ../Monitor/Monitor_Control.c:324:10
	b	.LBB8_1
.LBB8_1:                                @ =>This Inner Loop Header: Depth=1
	.loc	2 0 10                          @ ../Monitor/Monitor_Control.c:0:10
	mov	r0, sp
.Ltmp113:
	.loc	2 324 17                        @ ../Monitor/Monitor_Control.c:324:17
	ldrb	r0, [r0]
.Ltmp114:
	.loc	2 324 5                         @ ../Monitor/Monitor_Control.c:324:5
	cmp	r0, #2
	bgt	.LBB8_4
	b	.LBB8_2
.LBB8_2:                                @   in Loop: Header=BB8_1 Depth=1
	.loc	2 0 5                           @ ../Monitor/Monitor_Control.c:0:5
	mov	r1, sp
.Ltmp115:
	.loc	2 326 26 is_stmt 1              @ ../Monitor/Monitor_Control.c:326:26
	ldrb	r0, [r1]
	.loc	2 326 9 is_stmt 0               @ ../Monitor/Monitor_Control.c:326:9
	lsls	r3, r0, #2
	ldr	r0, __arm_cp.8_2
	.loc	2 326 42                        @ ../Monitor/Monitor_Control.c:326:42
	ldrh	r2, [r0, r3]
	ldr	r5, __arm_cp.8_3
	ands	r2, r5
	strh	r2, [r0, r3]
	.loc	2 327 26 is_stmt 1              @ ../Monitor/Monitor_Control.c:327:26
	ldrb	r2, [r1]
	.loc	2 327 9 is_stmt 0               @ ../Monitor/Monitor_Control.c:327:9
	lsls	r4, r2, #2
	.loc	2 327 43                        @ ../Monitor/Monitor_Control.c:327:43
	ldrh	r3, [r0, r4]
	movw	r2, #32768
	ands	r3, r2
	strh	r3, [r0, r4]
	.loc	2 328 26 is_stmt 1              @ ../Monitor/Monitor_Control.c:328:26
	ldrb	r3, [r1]
	.loc	2 328 9 is_stmt 0               @ ../Monitor/Monitor_Control.c:328:9
	lsls	r3, r3, #2
	adds	r4, r0, r3
	.loc	2 328 42                        @ ../Monitor/Monitor_Control.c:328:42
	ldrh	r3, [r4, #2]
	ands	r3, r5
	strh	r3, [r4, #2]
	.loc	2 329 26 is_stmt 1              @ ../Monitor/Monitor_Control.c:329:26
	ldrb	r1, [r1]
	.loc	2 329 9 is_stmt 0               @ ../Monitor/Monitor_Control.c:329:9
	lsls	r1, r1, #2
	adds	r1, r0, r1
	.loc	2 329 43                        @ ../Monitor/Monitor_Control.c:329:43
	ldrh	r0, [r1, #2]
	ands	r0, r2
	strh	r0, [r1, #2]
	.loc	2 330 5 is_stmt 1               @ ../Monitor/Monitor_Control.c:330:5
	b	.LBB8_3
.Ltmp116:
.LBB8_3:                                @   in Loop: Header=BB8_1 Depth=1
	.loc	2 324 43                        @ ../Monitor/Monitor_Control.c:324:43
	ldr	r0, [sp]
	adds	r0, r0, #1
	mov	r1, sp
	strb	r0, [r1]
	.loc	2 324 5 is_stmt 0               @ ../Monitor/Monitor_Control.c:324:5
	b	.LBB8_1
.Ltmp117:
.LBB8_4:
	.loc	2 332 22 is_stmt 1              @ ../Monitor/Monitor_Control.c:332:22
	ldr	r1, __arm_cp.8_0
	movs	r0, #1
	strb	r0, [r1]
	.loc	2 333 24                        @ ../Monitor/Monitor_Control.c:333:24
	ldr	r1, __arm_cp.8_1
	strb	r0, [r1]
	.loc	2 334 1 epilogue_begin          @ ../Monitor/Monitor_Control.c:334:1
	add	sp, #8
	pop	{r4, r5, r7, pc}
.Ltmp118:
	.p2align	2
@ %bb.5:
	.loc	2 0 1 is_stmt 0                 @ ../Monitor/Monitor_Control.c:0:1
__arm_cp.8_0:
	.long	g_u8GetEndFlag_1
.Lcpi_end31:
	.size	__arm_cp.8_0, .Lcpi_end31-__arm_cp.8_0
__arm_cp.8_1:
	.long	g_u8GetErrorFlag_1
.Lcpi_end32:
	.size	__arm_cp.8_1, .Lcpi_end32-__arm_cp.8_1
__arm_cp.8_2:
	.long	au8MonitorData_1
.Lcpi_end33:
	.size	__arm_cp.8_2, .Lcpi_end33-__arm_cp.8_2
__arm_cp.8_3:
	.long	32767                           @ 0x7fff
.Lcpi_end34:
	.size	__arm_cp.8_3, .Lcpi_end34-__arm_cp.8_3
.Lfunc_end8:
	.size	UI2C1_Error_Hanlder, .Lfunc_end8-UI2C1_Error_Hanlder
	.cfi_endproc
	.cantunwind
	.fnend
                                        @ -- End function
	.section	.text.USCI1_IRQHandler,"ax",%progbits
	.hidden	USCI1_IRQHandler                @ -- Begin function USCI1_IRQHandler
	.globl	USCI1_IRQHandler
	.p2align	2
	.type	USCI1_IRQHandler,%function
	.code	16                              @ @USCI1_IRQHandler
	.thumb_func
USCI1_IRQHandler:
.Lfunc_begin9:
	.loc	2 337 0 is_stmt 1               @ ../Monitor/Monitor_Control.c:337:0
	.fnstart
	.cfi_startproc
@ %bb.0:
	.save	{r7, lr}
	push	{r7, lr}
	.cfi_def_cfa_offset 8
	.cfi_offset lr, -4
	.cfi_offset r7, -8
	.pad	#8
	sub	sp, #8
	.cfi_def_cfa_offset 16
	ldr	r0, __arm_cp.9_0
.Ltmp119:
	.loc	2 340 25 prologue_end           @ ../Monitor/Monitor_Control.c:340:25
	ldr	r1, [r0]
	.loc	2 340 15 is_stmt 0              @ ../Monitor/Monitor_Control.c:340:15
	str	r1, [sp, #4]
.Ltmp120:
	.loc	2 342 9 is_stmt 1               @ ../Monitor/Monitor_Control.c:342:9
	ldr	r0, [r0]
.Ltmp121:
	.loc	2 342 9 is_stmt 0               @ ../Monitor/Monitor_Control.c:342:9
	lsls	r0, r0, #26
	cmp	r0, #0
	bpl	.LBB9_2
	b	.LBB9_1
.LBB9_1:
	.loc	2 0 9                           @ ../Monitor/Monitor_Control.c:0:9
	movs	r0, #1
.Ltmp122:
	.loc	2 342 9                         @ ../Monitor/Monitor_Control.c:342:9
	cbnz	r0, .LBB9_3
	b	.LBB9_6
.Ltmp123:
.LBB9_2:
	.loc	2 0 9                           @ ../Monitor/Monitor_Control.c:0:9
	movs	r0, #1
	.loc	2 342 9                         @ ../Monitor/Monitor_Control.c:342:9
	cbnz	r0, .LBB9_6
	b	.LBB9_3
.LBB9_3:
	.loc	2 0 9                           @ ../Monitor/Monitor_Control.c:0:9
	ldr	r0, __arm_cp.9_2
.Ltmp124:
	.loc	2 345 9 is_stmt 1               @ ../Monitor/Monitor_Control.c:345:9
	bl	UI2C_ClearTimeoutFlag
.Ltmp125:
	.loc	2 347 13                        @ ../Monitor/Monitor_Control.c:347:13
	ldr	r0, __arm_cp.9_3
	ldrb	r0, [r0]
.Ltmp126:
	.loc	2 347 13 is_stmt 0              @ ../Monitor/Monitor_Control.c:347:13
	cmp	r0, #1
	beq	.LBB9_5
	b	.LBB9_4
.LBB9_4:
	.loc	2 0 13                          @ ../Monitor/Monitor_Control.c:0:13
	ldr	r0, __arm_cp.9_2
.Ltmp127:
	.loc	2 349 13 is_stmt 1              @ ../Monitor/Monitor_Control.c:349:13
	str	r0, [sp]                        @ 4-byte Spill
	bl	UI2C1_Error_Hanlder
	ldr	r0, [sp]                        @ 4-byte Reload
	.loc	2 351 13                        @ ../Monitor/Monitor_Control.c:351:13
	bl	UI2C_Close
	.loc	2 352 13                        @ ../Monitor/Monitor_Control.c:352:13
	bl	UI2C1_Init
	.loc	2 353 9                         @ ../Monitor/Monitor_Control.c:353:9
	b	.LBB9_5
.Ltmp128:
.LBB9_5:
	.loc	2 354 5                         @ ../Monitor/Monitor_Control.c:354:5
	b	.LBB9_9
.Ltmp129:
.LBB9_6:
	.loc	2 357 13                        @ ../Monitor/Monitor_Control.c:357:13
	ldr	r0, __arm_cp.9_1
	ldr	r0, [r0]
.Ltmp130:
	.loc	2 357 13 is_stmt 0              @ ../Monitor/Monitor_Control.c:357:13
	cbz	r0, .LBB9_8
	b	.LBB9_7
.LBB9_7:
.Ltmp131:
	.loc	2 359 13 is_stmt 1              @ ../Monitor/Monitor_Control.c:359:13
	ldr	r0, __arm_cp.9_1
	ldr	r2, [r0]
	.loc	2 359 37 is_stmt 0              @ ../Monitor/Monitor_Control.c:359:37
	ldr	r1, [sp, #4]
	ldr	r0, __arm_cp.9_2
	.loc	2 359 13                        @ ../Monitor/Monitor_Control.c:359:13
	blx	r2
	.loc	2 360 9 is_stmt 1               @ ../Monitor/Monitor_Control.c:360:9
	b	.LBB9_8
.Ltmp132:
.LBB9_8:
	.loc	2 0 9 is_stmt 0                 @ ../Monitor/Monitor_Control.c:0:9
	b	.LBB9_9
.LBB9_9:
	.loc	2 362 1 epilogue_begin is_stmt 1 @ ../Monitor/Monitor_Control.c:362:1
	add	sp, #8
	pop	{r7, pc}
.Ltmp133:
	.p2align	2
@ %bb.10:
	.loc	2 0 1 is_stmt 0                 @ ../Monitor/Monitor_Control.c:0:1
__arm_cp.9_0:
	.long	1074597988                      @ 0x400d1064
.Lcpi_end35:
	.size	__arm_cp.9_0, .Lcpi_end35-__arm_cp.9_0
__arm_cp.9_1:
	.long	s_UI2C1HandlerFn
.Lcpi_end36:
	.size	__arm_cp.9_1, .Lcpi_end36-__arm_cp.9_1
__arm_cp.9_2:
	.long	1074597888                      @ 0x400d1000
.Lcpi_end37:
	.size	__arm_cp.9_2, .Lcpi_end37-__arm_cp.9_2
__arm_cp.9_3:
	.long	g_u8GetEndFlag_1
.Lcpi_end38:
	.size	__arm_cp.9_3, .Lcpi_end38-__arm_cp.9_3
.Lfunc_end9:
	.size	USCI1_IRQHandler, .Lfunc_end9-USCI1_IRQHandler
	.cfi_endproc
	.cantunwind
	.fnend
                                        @ -- End function
	.section	.text.UI2C1_Init,"ax",%progbits
	.hidden	UI2C1_Init                      @ -- Begin function UI2C1_Init
	.globl	UI2C1_Init
	.p2align	2
	.type	UI2C1_Init,%function
	.code	16                              @ @UI2C1_Init
	.thumb_func
UI2C1_Init:
.Lfunc_begin10:
	.loc	2 544 0 is_stmt 1               @ ../Monitor/Monitor_Control.c:544:0
	.fnstart
	.cfi_startproc
@ %bb.0:
	.save	{r7, lr}
	push	{r7, lr}
	.cfi_def_cfa_offset 8
	.cfi_offset lr, -4
	.cfi_offset r7, -8
	.pad	#16
	sub	sp, #16
	.cfi_def_cfa_offset 24
.Ltmp134:
	.loc	2 546 5 prologue_end            @ ../Monitor/Monitor_Control.c:546:5
	bl	SYS_UnlockReg
	ldr	r0, __arm_cp.10_0
	.loc	2 549 5                         @ ../Monitor/Monitor_Control.c:549:5
	bl	CLK_EnableModuleClock
	ldr	r1, __arm_cp.10_1
	.loc	2 555 27                        @ ../Monitor/Monitor_Control.c:555:27
	ldr	r0, [r1]
	movw	r2, #4080
	.loc	2 555 36 is_stmt 0              @ ../Monitor/Monitor_Control.c:555:36
	bics	r0, r2
	movw	r2, #2176
	.loc	2 555 92                        @ ../Monitor/Monitor_Control.c:555:92
	adds	r0, r0, r2
	.loc	2 555 19                        @ ../Monitor/Monitor_Control.c:555:19
	str	r0, [r1]
	ldr	r1, __arm_cp.10_2
	.loc	2 557 15 is_stmt 1              @ ../Monitor/Monitor_Control.c:557:15
	ldr	r0, [r1]
	movs	r2, #6
	orrs	r0, r2
	str	r0, [r1]
	ldr	r0, __arm_cp.10_3
	str	r0, [sp]                        @ 4-byte Spill
	ldr	r1, __arm_cp.10_4
	.loc	2 559 5                         @ ../Monitor/Monitor_Control.c:559:5
	bl	UI2C_Open
                                        @ kill: def $r1 killed $r0
	ldr	r0, [sp]                        @ 4-byte Reload
	add	r2, sp, #12
	movs	r1, #122
	.loc	2 564 13                        @ ../Monitor/Monitor_Control.c:564:13
	strb	r1, [r2]
	movs	r1, #71
	.loc	2 565 13                        @ ../Monitor/Monitor_Control.c:565:13
	strb	r1, [r2, #1]
	movs	r1, #64
	movs	r3, #2
	.loc	2 568 5                         @ ../Monitor/Monitor_Control.c:568:5
	str	r3, [sp, #8]                    @ 4-byte Spill
	bl	UI2C_WriteMultiBytes
	ldr	r1, __arm_cp.10_5
	.loc	2 571 5                         @ ../Monitor/Monitor_Control.c:571:5
	ldr	r0, [r1]
	movs	r2, #78
	orrs	r0, r2
	str	r0, [r1]
	movs	r0, #52
	.loc	2 572 5                         @ ../Monitor/Monitor_Control.c:572:5
	str	r0, [sp, #4]                    @ 4-byte Spill
	bl	__NVIC_EnableIRQ
	ldr	r0, [sp, #4]                    @ 4-byte Reload
	ldr	r1, [sp, #8]                    @ 4-byte Reload
	.loc	2 573 5                         @ ../Monitor/Monitor_Control.c:573:5
	bl	__NVIC_SetPriority
	.loc	2 576 5                         @ ../Monitor/Monitor_Control.c:576:5
	bl	SYS_LockReg
	.loc	2 579 22                        @ ../Monitor/Monitor_Control.c:579:22
	ldr	r1, __arm_cp.10_6
	ldr	r0, __arm_cp.10_7
	str	r0, [r1]
	.loc	2 580 1 epilogue_begin          @ ../Monitor/Monitor_Control.c:580:1
	add	sp, #16
	pop	{r7, pc}
.Ltmp135:
	.p2align	2
@ %bb.1:
	.loc	2 0 1 is_stmt 0                 @ ../Monitor/Monitor_Control.c:0:1
__arm_cp.10_0:
	.long	2147483657                      @ 0x80000009
.Lcpi_end39:
	.size	__arm_cp.10_0, .Lcpi_end39-__arm_cp.10_0
__arm_cp.10_1:
	.long	1073741880                      @ 0x40000038
.Lcpi_end40:
	.size	__arm_cp.10_1, .Lcpi_end40-__arm_cp.10_1
__arm_cp.10_2:
	.long	1073758308                      @ 0x40004064
.Lcpi_end41:
	.size	__arm_cp.10_2, .Lcpi_end41-__arm_cp.10_2
__arm_cp.10_3:
	.long	1074597888                      @ 0x400d1000
.Lcpi_end42:
	.size	__arm_cp.10_3, .Lcpi_end42-__arm_cp.10_3
__arm_cp.10_4:
	.long	100000                          @ 0x186a0
.Lcpi_end43:
	.size	__arm_cp.10_4, .Lcpi_end43-__arm_cp.10_4
__arm_cp.10_5:
	.long	1074597984                      @ 0x400d1060
.Lcpi_end44:
	.size	__arm_cp.10_5, .Lcpi_end44-__arm_cp.10_5
__arm_cp.10_6:
	.long	s_UI2C1HandlerFn
.Lcpi_end45:
	.size	__arm_cp.10_6, .Lcpi_end45-__arm_cp.10_6
__arm_cp.10_7:
	.long	UI2C1_MasterTRx
.Lcpi_end46:
	.size	__arm_cp.10_7, .Lcpi_end46-__arm_cp.10_7
.Lfunc_end10:
	.size	UI2C1_Init, .Lfunc_end10-UI2C1_Init
	.cfi_endproc
	.cantunwind
	.fnend
                                        @ -- End function
	.section	.text.UI2C1_MasterTRx,"ax",%progbits
	.hidden	UI2C1_MasterTRx                 @ -- Begin function UI2C1_MasterTRx
	.globl	UI2C1_MasterTRx
	.p2align	2
	.type	UI2C1_MasterTRx,%function
	.code	16                              @ @UI2C1_MasterTRx
	.thumb_func
UI2C1_MasterTRx:
.Lfunc_begin11:
	.loc	2 368 0 is_stmt 1               @ ../Monitor/Monitor_Control.c:368:0
	.fnstart
	.cfi_startproc
@ %bb.0:
	.save	{r4, r5, r7, lr}
	push	{r4, r5, r7, lr}
	.cfi_def_cfa_offset 16
	.cfi_offset lr, -4
	.cfi_offset r7, -8
	.cfi_offset r5, -12
	.cfi_offset r4, -16
	.pad	#24
	sub	sp, #24
	.cfi_def_cfa_offset 40
	str	r0, [sp, #20]
	str	r1, [sp, #16]
	add	r0, sp, #16
.Ltmp136:
	.loc	2 372 9 prologue_end            @ ../Monitor/Monitor_Control.c:372:9
	ldrb	r0, [r0, #1]
	lsls	r0, r0, #31
	cbz	r0, .LBB11_13
	b	.LBB11_1
.LBB11_1:
.Ltmp137:
	.loc	2 374 9                         @ ../Monitor/Monitor_Control.c:374:9
	ldr	r1, [sp, #20]
	movw	r0, #256
	str	r0, [r1, #100]
.Ltmp138:
	.loc	2 376 13                        @ ../Monitor/Monitor_Control.c:376:13
	ldr	r0, __arm_cp.11_1
	ldrb	r0, [r0]
.Ltmp139:
	.loc	2 376 13 is_stmt 0              @ ../Monitor/Monitor_Control.c:376:13
	cmp	r0, #1
	bne	.LBB11_3
	b	.LBB11_2
.LBB11_2:
.Ltmp140:
	.loc	2 378 13 is_stmt 1              @ ../Monitor/Monitor_Control.c:378:13
	ldr	r1, [sp, #20]
	movs	r0, #128
	str	r0, [r1, #48]
	.loc	2 379 9                         @ ../Monitor/Monitor_Control.c:379:9
	b	.LBB11_12
.Ltmp141:
.LBB11_3:
	.loc	2 380 18                        @ ../Monitor/Monitor_Control.c:380:18
	ldr	r0, __arm_cp.11_1
	ldrb	r0, [r0]
.Ltmp142:
	.loc	2 380 18 is_stmt 0              @ ../Monitor/Monitor_Control.c:380:18
	cmp	r0, #3
	bne	.LBB11_5
	b	.LBB11_4
.LBB11_4:
.Ltmp143:
	.loc	2 382 13 is_stmt 1              @ ../Monitor/Monitor_Control.c:382:13
	ldr	r1, [sp, #20]
	movs	r0, #129
	str	r0, [r1, #48]
	.loc	2 383 9                         @ ../Monitor/Monitor_Control.c:383:9
	b	.LBB11_11
.Ltmp144:
.LBB11_5:
	.loc	2 384 18                        @ ../Monitor/Monitor_Control.c:384:18
	ldr	r0, __arm_cp.11_1
	ldrb	r0, [r0]
.Ltmp145:
	.loc	2 384 18 is_stmt 0              @ ../Monitor/Monitor_Control.c:384:18
	cmp	r0, #6
	bne	.LBB11_7
	b	.LBB11_6
.LBB11_6:
.Ltmp146:
	.loc	2 386 13 is_stmt 1              @ ../Monitor/Monitor_Control.c:386:13
	ldr	r1, [sp, #20]
	movs	r0, #128
	str	r0, [r1, #48]
	.loc	2 387 9                         @ ../Monitor/Monitor_Control.c:387:9
	b	.LBB11_10
.Ltmp147:
.LBB11_7:
	.loc	2 388 18                        @ ../Monitor/Monitor_Control.c:388:18
	ldr	r0, __arm_cp.11_1
	ldrb	r0, [r0]
.Ltmp148:
	.loc	2 388 18 is_stmt 0              @ ../Monitor/Monitor_Control.c:388:18
	cmp	r0, #8
	bne	.LBB11_9
	b	.LBB11_8
.LBB11_8:
.Ltmp149:
	.loc	2 390 13 is_stmt 1              @ ../Monitor/Monitor_Control.c:390:13
	ldr	r1, [sp, #20]
	movs	r0, #129
	str	r0, [r1, #48]
	.loc	2 391 9                         @ ../Monitor/Monitor_Control.c:391:9
	b	.LBB11_9
.Ltmp150:
.LBB11_9:
	.loc	2 0 9 is_stmt 0                 @ ../Monitor/Monitor_Control.c:0:9
	b	.LBB11_10
.LBB11_10:
	b	.LBB11_11
.LBB11_11:
	b	.LBB11_12
.LBB11_12:
	.loc	2 393 9 is_stmt 1               @ ../Monitor/Monitor_Control.c:393:9
	ldr	r0, [sp, #20]
	ldr	r0, [r0, #92]
	movs	r1, #32
	orrs	r0, r1
	movs	r1, #14
	bics	r0, r1
	ldr	r1, [sp, #20]
	str	r0, [r1, #92]
	.loc	2 394 5                         @ ../Monitor/Monitor_Control.c:394:5
	b	.LBB11_60
.Ltmp151:
.LBB11_13:
	.loc	2 0 5 is_stmt 0                 @ ../Monitor/Monitor_Control.c:0:5
	add	r0, sp, #16
	.loc	2 395 14 is_stmt 1              @ ../Monitor/Monitor_Control.c:395:14
	ldrb	r0, [r0, #1]
	lsls	r0, r0, #26
	cmp	r0, #0
	bmi	.LBB11_14
	b	.LBB11_38
.LBB11_14:
.Ltmp152:
	.loc	2 397 9                         @ ../Monitor/Monitor_Control.c:397:9
	ldr	r1, [sp, #20]
	movw	r0, #8192
	str	r0, [r1, #100]
.Ltmp153:
	.loc	2 399 13                        @ ../Monitor/Monitor_Control.c:399:13
	ldr	r0, __arm_cp.11_1
	ldrb	r0, [r0]
.Ltmp154:
	.loc	2 399 13 is_stmt 0              @ ../Monitor/Monitor_Control.c:399:13
	cmp	r0, #1
	bne	.LBB11_16
	b	.LBB11_15
.LBB11_15:
.Ltmp155:
	.loc	2 401 13 is_stmt 1              @ ../Monitor/Monitor_Control.c:401:13
	ldr	r0, __arm_cp.11_4
	ldrb	r0, [r0]
	lsls	r0, r0, #1
	adds	r0, r0, #1
	ldr	r1, [sp, #20]
	str	r0, [r1, #48]
	.loc	2 403 25                        @ ../Monitor/Monitor_Control.c:403:25
	ldr	r1, __arm_cp.11_1
	ldrb	r0, [r1]
	adds	r0, r0, #1
	strb	r0, [r1]
	.loc	2 405 13                        @ ../Monitor/Monitor_Control.c:405:13
	ldr	r0, [sp, #20]
	ldr	r0, [r0, #92]
	movs	r1, #32
	orrs	r0, r1
	movs	r1, #14
	bics	r0, r1
	ldr	r1, [sp, #20]
	str	r0, [r1, #92]
	.loc	2 406 9                         @ ../Monitor/Monitor_Control.c:406:9
	b	.LBB11_37
.Ltmp156:
.LBB11_16:
	.loc	2 407 18                        @ ../Monitor/Monitor_Control.c:407:18
	ldr	r0, __arm_cp.11_1
	ldrb	r0, [r0]
.Ltmp157:
	.loc	2 407 18 is_stmt 0              @ ../Monitor/Monitor_Control.c:407:18
	cmp	r0, #2
	bne	.LBB11_18
	b	.LBB11_17
.LBB11_17:
.Ltmp158:
	.loc	2 409 25 is_stmt 1              @ ../Monitor/Monitor_Control.c:409:25
	ldr	r1, __arm_cp.11_1
	ldrb	r0, [r1]
	adds	r0, r0, #1
	strb	r0, [r1]
	.loc	2 411 13                        @ ../Monitor/Monitor_Control.c:411:13
	ldr	r0, [sp, #20]
	ldr	r0, [r0, #92]
	movs	r1, #40
	orrs	r0, r1
	movs	r1, #6
	bics	r0, r1
	ldr	r1, [sp, #20]
	str	r0, [r1, #92]
	.loc	2 412 9                         @ ../Monitor/Monitor_Control.c:412:9
	b	.LBB11_36
.Ltmp159:
.LBB11_18:
	.loc	2 413 18                        @ ../Monitor/Monitor_Control.c:413:18
	ldr	r0, __arm_cp.11_1
	ldrb	r0, [r0]
.Ltmp160:
	.loc	2 413 18 is_stmt 0              @ ../Monitor/Monitor_Control.c:413:18
	cmp	r0, #3
	bne	.LBB11_20
	b	.LBB11_19
.LBB11_19:
.Ltmp161:
	.loc	2 415 25 is_stmt 1              @ ../Monitor/Monitor_Control.c:415:25
	ldr	r1, __arm_cp.11_1
	ldrb	r0, [r1]
	adds	r0, r0, #1
	strb	r0, [r1]
	.loc	2 417 13                        @ ../Monitor/Monitor_Control.c:417:13
	ldr	r0, [sp, #20]
	ldr	r0, [r0, #92]
	movs	r1, #34
	orrs	r0, r1
	movs	r1, #12
	bics	r0, r1
	ldr	r1, [sp, #20]
	str	r0, [r1, #92]
	.loc	2 418 9                         @ ../Monitor/Monitor_Control.c:418:9
	b	.LBB11_35
.Ltmp162:
.LBB11_20:
	.loc	2 419 18                        @ ../Monitor/Monitor_Control.c:419:18
	ldr	r0, __arm_cp.11_1
	ldrb	r0, [r0]
.Ltmp163:
	.loc	2 419 18 is_stmt 0              @ ../Monitor/Monitor_Control.c:419:18
	cmp	r0, #4
	bne	.LBB11_22
	b	.LBB11_21
.LBB11_21:
.Ltmp164:
	.loc	2 421 50 is_stmt 1              @ ../Monitor/Monitor_Control.c:421:50
	ldr	r0, [sp, #20]
	ldr	r0, [r0, #52]
	.loc	2 421 34 is_stmt 0              @ ../Monitor/Monitor_Control.c:421:34
	uxtb	r0, r0
	.loc	2 421 32                        @ ../Monitor/Monitor_Control.c:421:32
	ldr	r1, __arm_cp.11_2
	strh	r0, [r1]
	.loc	2 423 25 is_stmt 1              @ ../Monitor/Monitor_Control.c:423:25
	ldr	r1, __arm_cp.11_1
	ldrb	r0, [r1]
	adds	r0, r0, #1
	strb	r0, [r1]
	.loc	2 425 13                        @ ../Monitor/Monitor_Control.c:425:13
	ldr	r0, [sp, #20]
	ldr	r0, [r0, #92]
	movs	r1, #32
	orrs	r0, r1
	movs	r1, #14
	bics	r0, r1
	ldr	r1, [sp, #20]
	str	r0, [r1, #92]
	.loc	2 426 9                         @ ../Monitor/Monitor_Control.c:426:9
	b	.LBB11_34
.Ltmp165:
.LBB11_22:
	.loc	2 427 18                        @ ../Monitor/Monitor_Control.c:427:18
	ldr	r0, __arm_cp.11_1
	ldrb	r0, [r0]
.Ltmp166:
	.loc	2 427 18 is_stmt 0              @ ../Monitor/Monitor_Control.c:427:18
	cmp	r0, #6
	bne	.LBB11_24
	b	.LBB11_23
.LBB11_23:
.Ltmp167:
	.loc	2 429 13 is_stmt 1              @ ../Monitor/Monitor_Control.c:429:13
	ldr	r0, __arm_cp.11_4
	ldrb	r0, [r0]
	lsls	r0, r0, #1
	adds	r0, r0, #2
	ldr	r1, [sp, #20]
	str	r0, [r1, #48]
	.loc	2 431 25                        @ ../Monitor/Monitor_Control.c:431:25
	ldr	r1, __arm_cp.11_1
	ldrb	r0, [r1]
	adds	r0, r0, #1
	strb	r0, [r1]
	.loc	2 433 13                        @ ../Monitor/Monitor_Control.c:433:13
	ldr	r0, [sp, #20]
	ldr	r0, [r0, #92]
	movs	r1, #32
	orrs	r0, r1
	movs	r1, #14
	bics	r0, r1
	ldr	r1, [sp, #20]
	str	r0, [r1, #92]
	.loc	2 434 9                         @ ../Monitor/Monitor_Control.c:434:9
	b	.LBB11_33
.Ltmp168:
.LBB11_24:
	.loc	2 435 18                        @ ../Monitor/Monitor_Control.c:435:18
	ldr	r0, __arm_cp.11_1
	ldrb	r0, [r0]
.Ltmp169:
	.loc	2 435 18 is_stmt 0              @ ../Monitor/Monitor_Control.c:435:18
	cmp	r0, #7
	bne	.LBB11_26
	b	.LBB11_25
.LBB11_25:
.Ltmp170:
	.loc	2 437 25 is_stmt 1              @ ../Monitor/Monitor_Control.c:437:25
	ldr	r1, __arm_cp.11_1
	ldrb	r0, [r1]
	adds	r0, r0, #1
	strb	r0, [r1]
	.loc	2 439 13                        @ ../Monitor/Monitor_Control.c:439:13
	ldr	r0, [sp, #20]
	ldr	r0, [r0, #92]
	movs	r1, #40
	orrs	r0, r1
	movs	r1, #6
	bics	r0, r1
	ldr	r1, [sp, #20]
	str	r0, [r1, #92]
	.loc	2 440 9                         @ ../Monitor/Monitor_Control.c:440:9
	b	.LBB11_32
.Ltmp171:
.LBB11_26:
	.loc	2 441 18                        @ ../Monitor/Monitor_Control.c:441:18
	ldr	r0, __arm_cp.11_1
	ldrb	r0, [r0]
.Ltmp172:
	.loc	2 441 18 is_stmt 0              @ ../Monitor/Monitor_Control.c:441:18
	cmp	r0, #8
	bne	.LBB11_28
	b	.LBB11_27
.LBB11_27:
.Ltmp173:
	.loc	2 443 25 is_stmt 1              @ ../Monitor/Monitor_Control.c:443:25
	ldr	r1, __arm_cp.11_1
	ldrb	r0, [r1]
	adds	r0, r0, #1
	strb	r0, [r1]
	.loc	2 445 13                        @ ../Monitor/Monitor_Control.c:445:13
	ldr	r0, [sp, #20]
	ldr	r0, [r0, #92]
	movs	r1, #34
	orrs	r0, r1
	movs	r1, #12
	bics	r0, r1
	ldr	r1, [sp, #20]
	str	r0, [r1, #92]
	.loc	2 446 9                         @ ../Monitor/Monitor_Control.c:446:9
	b	.LBB11_31
.Ltmp174:
.LBB11_28:
	.loc	2 447 18                        @ ../Monitor/Monitor_Control.c:447:18
	ldr	r0, __arm_cp.11_1
	ldrb	r0, [r0]
.Ltmp175:
	.loc	2 447 18 is_stmt 0              @ ../Monitor/Monitor_Control.c:447:18
	cmp	r0, #9
	bne	.LBB11_30
	b	.LBB11_29
.LBB11_29:
.Ltmp176:
	.loc	2 449 50 is_stmt 1              @ ../Monitor/Monitor_Control.c:449:50
	ldr	r0, [sp, #20]
	ldr	r0, [r0, #52]
	.loc	2 449 34 is_stmt 0              @ ../Monitor/Monitor_Control.c:449:34
	uxtb	r0, r0
	.loc	2 449 32                        @ ../Monitor/Monitor_Control.c:449:32
	ldr	r1, __arm_cp.11_2
	strh	r0, [r1]
	.loc	2 451 25 is_stmt 1              @ ../Monitor/Monitor_Control.c:451:25
	ldr	r1, __arm_cp.11_1
	ldrb	r0, [r1]
	adds	r0, r0, #1
	strb	r0, [r1]
	.loc	2 453 13                        @ ../Monitor/Monitor_Control.c:453:13
	ldr	r0, [sp, #20]
	ldr	r0, [r0, #92]
	movs	r1, #32
	orrs	r0, r1
	movs	r1, #14
	bics	r0, r1
	ldr	r1, [sp, #20]
	str	r0, [r1, #92]
	.loc	2 454 9                         @ ../Monitor/Monitor_Control.c:454:9
	b	.LBB11_30
.Ltmp177:
.LBB11_30:
	.loc	2 0 9 is_stmt 0                 @ ../Monitor/Monitor_Control.c:0:9
	b	.LBB11_31
.LBB11_31:
	b	.LBB11_32
.LBB11_32:
	b	.LBB11_33
.LBB11_33:
	b	.LBB11_34
.LBB11_34:
	b	.LBB11_35
.LBB11_35:
	b	.LBB11_36
.LBB11_36:
	b	.LBB11_37
.LBB11_37:
	.loc	2 455 5 is_stmt 1               @ ../Monitor/Monitor_Control.c:455:5
	b	.LBB11_59
.Ltmp178:
.LBB11_38:
	.loc	2 0 5 is_stmt 0                 @ ../Monitor/Monitor_Control.c:0:5
	add	r0, sp, #16
	.loc	2 456 14 is_stmt 1              @ ../Monitor/Monitor_Control.c:456:14
	ldrb	r0, [r0, #1]
	lsls	r0, r0, #29
	cmp	r0, #0
	bmi	.LBB11_39
	b	.LBB11_55
.LBB11_39:
.Ltmp179:
	.loc	2 458 9                         @ ../Monitor/Monitor_Control.c:458:9
	ldr	r1, [sp, #20]
	movw	r0, #1024
	str	r0, [r1, #100]
.Ltmp180:
	.loc	2 460 13                        @ ../Monitor/Monitor_Control.c:460:13
	ldr	r0, __arm_cp.11_1
	ldrb	r0, [r0]
.Ltmp181:
	.loc	2 460 13 is_stmt 0              @ ../Monitor/Monitor_Control.c:460:13
	cmp	r0, #5
	bne	.LBB11_41
	b	.LBB11_40
.LBB11_40:
.Ltmp182:
	.loc	2 462 50 is_stmt 1              @ ../Monitor/Monitor_Control.c:462:50
	ldr	r0, [sp, #20]
	ldr	r0, [r0, #52]
	.loc	2 462 34 is_stmt 0              @ ../Monitor/Monitor_Control.c:462:34
	uxtb	r0, r0
	.loc	2 462 32                        @ ../Monitor/Monitor_Control.c:462:32
	ldr	r1, __arm_cp.11_2
	strh	r0, [r1, #2]
	.loc	2 464 20 is_stmt 1              @ ../Monitor/Monitor_Control.c:464:20
	ldrh	r0, [r1]
	movs	r2, #128
	.loc	2 464 39 is_stmt 0              @ ../Monitor/Monitor_Control.c:464:39
	ands	r0, r2
	add	r2, sp, #12
	.loc	2 464 18                        @ ../Monitor/Monitor_Control.c:464:18
	strb	r0, [r2]
	.loc	2 465 23 is_stmt 1              @ ../Monitor/Monitor_Control.c:465:23
	ldrh	r0, [r1]
	.loc	2 465 42 is_stmt 0              @ ../Monitor/Monitor_Control.c:465:42
	lsls	r0, r0, #8
	.loc	2 465 50                        @ ../Monitor/Monitor_Control.c:465:50
	ldrh	r1, [r1, #2]
	.loc	2 465 48                        @ ../Monitor/Monitor_Control.c:465:48
	orrs	r0, r1
	ldr	r1, __arm_cp.11_3
	.loc	2 465 70                        @ ../Monitor/Monitor_Control.c:465:70
	ands	r0, r1
	.loc	2 465 80                        @ ../Monitor/Monitor_Control.c:465:80
	lsrs	r1, r0, #3
	add	r0, sp, #8
	.loc	2 465 18                        @ ../Monitor/Monitor_Control.c:465:18
	strh	r1, [r0]
	.loc	2 471 22 is_stmt 1              @ ../Monitor/Monitor_Control.c:471:22
	ldrh	r1, [r0]
	.loc	2 471 58 is_stmt 0              @ ../Monitor/Monitor_Control.c:471:58
	ldr	r2, __arm_cp.11_4
	ldrb	r3, [r2]
	.loc	2 471 34                        @ ../Monitor/Monitor_Control.c:471:34
	lsls	r4, r3, #1
	ldr	r3, __arm_cp.11_7
	ldrh	r4, [r3, r4]
	.loc	2 471 27                        @ ../Monitor/Monitor_Control.c:471:27
	muls	r4, r1, r4
	movs	r1, #40
	.loc	2 471 32                        @ ../Monitor/Monitor_Control.c:471:32
	mov	r3, r1
	muls	r3, r4, r3
	.loc	2 471 105                       @ ../Monitor/Monitor_Control.c:471:105
	ldrb	r4, [r2]
	.loc	2 471 78                        @ ../Monitor/Monitor_Control.c:471:78
	lsls	r5, r4, #1
	ldr	r4, __arm_cp.11_8
	ldrh	r5, [r4, r5]
	movw	r4, #1000
	.loc	2 471 121                       @ ../Monitor/Monitor_Control.c:471:121
	muls	r4, r5, r4
	.loc	2 471 75                        @ ../Monitor/Monitor_Control.c:471:75
	sdiv	r3, r3, r4
	.loc	2 471 129                       @ ../Monitor/Monitor_Control.c:471:129
	adds	r3, r3, #5
	movs	r4, #10
	.loc	2 471 134                       @ ../Monitor/Monitor_Control.c:471:134
	sdiv	r3, r3, r4
	.loc	2 471 18                        @ ../Monitor/Monitor_Control.c:471:18
	strh	r3, [r0]
	.loc	2 472 73 is_stmt 1              @ ../Monitor/Monitor_Control.c:472:73
	ldrb	r2, [r2]
	.loc	2 472 88 is_stmt 0              @ ../Monitor/Monitor_Control.c:472:88
	lsls	r3, r2, #2
	.loc	2 472 69                        @ ../Monitor/Monitor_Control.c:472:69
	adds	r3, #60
	add	r2, sp, #4
	.loc	2 472 22                        @ ../Monitor/Monitor_Control.c:472:22
	strh	r3, [r2]
	.loc	2 473 58 is_stmt 1              @ ../Monitor/Monitor_Control.c:473:58
	ldr	r4, [sp, #8]
	.loc	2 473 24 is_stmt 0              @ ../Monitor/Monitor_Control.c:473:24
	ldrh	r5, [r2]
	.loc	2 473 13                        @ ../Monitor/Monitor_Control.c:473:13
	ldr	r3, __arm_cp.11_5
	.loc	2 473 46                        @ ../Monitor/Monitor_Control.c:473:46
	strb	r4, [r3, r5]
	.loc	2 474 58 is_stmt 1              @ ../Monitor/Monitor_Control.c:474:58
	ldrb	r0, [r0, #1]
	.loc	2 474 24 is_stmt 0              @ ../Monitor/Monitor_Control.c:474:24
	ldrh	r2, [r2]
	.loc	2 474 41                        @ ../Monitor/Monitor_Control.c:474:41
	adds	r2, r2, r3
	.loc	2 474 46                        @ ../Monitor/Monitor_Control.c:474:46
	strb	r0, [r2, #1]
	.loc	2 476 25 is_stmt 1              @ ../Monitor/Monitor_Control.c:476:25
	ldr	r2, __arm_cp.11_1
	ldrb	r0, [r2]
	adds	r0, r0, #1
	strb	r0, [r2]
	.loc	2 479 13                        @ ../Monitor/Monitor_Control.c:479:13
	ldr	r0, [sp, #20]
	ldr	r0, [r0, #92]
	orrs	r0, r1
	movs	r1, #6
	bics	r0, r1
	ldr	r1, [sp, #20]
	str	r0, [r1, #92]
	.loc	2 480 9                         @ ../Monitor/Monitor_Control.c:480:9
	b	.LBB11_54
.Ltmp183:
.LBB11_41:
	.loc	2 481 18                        @ ../Monitor/Monitor_Control.c:481:18
	ldr	r0, __arm_cp.11_1
	ldrb	r0, [r0]
.Ltmp184:
	.loc	2 481 18 is_stmt 0              @ ../Monitor/Monitor_Control.c:481:18
	cmp	r0, #10
	bne	.LBB11_52
	b	.LBB11_42
.LBB11_42:
.Ltmp185:
	.loc	2 483 50 is_stmt 1              @ ../Monitor/Monitor_Control.c:483:50
	ldr	r0, [sp, #20]
	ldr	r0, [r0, #52]
	.loc	2 483 34 is_stmt 0              @ ../Monitor/Monitor_Control.c:483:34
	uxtb	r0, r0
	.loc	2 483 32                        @ ../Monitor/Monitor_Control.c:483:32
	ldr	r1, __arm_cp.11_2
	strh	r0, [r1, #2]
	.loc	2 485 20 is_stmt 1              @ ../Monitor/Monitor_Control.c:485:20
	ldrh	r0, [r1]
	movs	r2, #128
	.loc	2 485 39 is_stmt 0              @ ../Monitor/Monitor_Control.c:485:39
	ands	r0, r2
	add	r2, sp, #12
	.loc	2 485 18                        @ ../Monitor/Monitor_Control.c:485:18
	strb	r0, [r2]
	.loc	2 486 23 is_stmt 1              @ ../Monitor/Monitor_Control.c:486:23
	ldrh	r0, [r1]
	.loc	2 486 42 is_stmt 0              @ ../Monitor/Monitor_Control.c:486:42
	lsls	r0, r0, #8
	.loc	2 486 50                        @ ../Monitor/Monitor_Control.c:486:50
	ldrh	r1, [r1, #2]
	.loc	2 486 48                        @ ../Monitor/Monitor_Control.c:486:48
	orrs	r0, r1
	ldr	r1, __arm_cp.11_3
	.loc	2 486 70                        @ ../Monitor/Monitor_Control.c:486:70
	ands	r0, r1
	.loc	2 486 80                        @ ../Monitor/Monitor_Control.c:486:80
	lsrs	r1, r0, #3
	add	r0, sp, #8
	.loc	2 486 18                        @ ../Monitor/Monitor_Control.c:486:18
	strh	r1, [r0]
	.loc	2 492 21 is_stmt 1              @ ../Monitor/Monitor_Control.c:492:21
	ldrh	r1, [r0]
	.loc	2 492 26 is_stmt 0              @ ../Monitor/Monitor_Control.c:492:26
	lsls	r1, r1, #3
	.loc	2 492 30                        @ ../Monitor/Monitor_Control.c:492:30
	adds	r1, r1, #5
	movs	r2, #10
	.loc	2 492 35                        @ ../Monitor/Monitor_Control.c:492:35
	udiv	r1, r1, r2
	.loc	2 492 18                        @ ../Monitor/Monitor_Control.c:492:18
	strh	r1, [r0]
	.loc	2 493 73 is_stmt 1              @ ../Monitor/Monitor_Control.c:493:73
	ldr	r1, __arm_cp.11_4
	ldrb	r2, [r1]
	.loc	2 493 88 is_stmt 0              @ ../Monitor/Monitor_Control.c:493:88
	lsls	r3, r2, #2
	.loc	2 493 98                        @ ../Monitor/Monitor_Control.c:493:98
	adds	r3, #62
	mov	r2, sp
	.loc	2 493 22                        @ ../Monitor/Monitor_Control.c:493:22
	strh	r3, [r2]
	.loc	2 494 58 is_stmt 1              @ ../Monitor/Monitor_Control.c:494:58
	ldr	r4, [sp, #8]
	.loc	2 494 24 is_stmt 0              @ ../Monitor/Monitor_Control.c:494:24
	ldrh	r5, [r2]
	.loc	2 494 13                        @ ../Monitor/Monitor_Control.c:494:13
	ldr	r3, __arm_cp.11_5
	.loc	2 494 46                        @ ../Monitor/Monitor_Control.c:494:46
	strb	r4, [r3, r5]
	.loc	2 495 58 is_stmt 1              @ ../Monitor/Monitor_Control.c:495:58
	ldrb	r0, [r0, #1]
	.loc	2 495 24 is_stmt 0              @ ../Monitor/Monitor_Control.c:495:24
	ldrh	r2, [r2]
	.loc	2 495 41                        @ ../Monitor/Monitor_Control.c:495:41
	adds	r2, r2, r3
	.loc	2 495 46                        @ ../Monitor/Monitor_Control.c:495:46
	strb	r0, [r2, #1]
	.loc	2 497 27 is_stmt 1              @ ../Monitor/Monitor_Control.c:497:27
	ldrb	r0, [r1]
	adds	r0, r0, #1
	strb	r0, [r1]
	.loc	2 499 13                        @ ../Monitor/Monitor_Control.c:499:13
	b	.LBB11_43
.LBB11_43:                              @ =>This Inner Loop Header: Depth=1
	.loc	2 499 20 is_stmt 0              @ ../Monitor/Monitor_Control.c:499:20
	ldr	r0, __arm_cp.11_4
	ldrb	r0, [r0]
	.loc	2 499 13                        @ ../Monitor/Monitor_Control.c:499:13
	cmp	r0, #2
	bgt	.LBB11_48
	b	.LBB11_44
.LBB11_44:                              @   in Loop: Header=BB11_43 Depth=1
.Ltmp186:
	.loc	2 501 41 is_stmt 1              @ ../Monitor/Monitor_Control.c:501:41
	ldr	r0, __arm_cp.11_4
	ldrb	r1, [r0]
	.loc	2 501 21 is_stmt 0              @ ../Monitor/Monitor_Control.c:501:21
	ldr	r0, __arm_cp.11_6
	ldrb	r0, [r0, r1]
.Ltmp187:
	.loc	2 501 21                        @ ../Monitor/Monitor_Control.c:501:21
	cbnz	r0, .LBB11_46
	b	.LBB11_45
.LBB11_45:                              @   in Loop: Header=BB11_43 Depth=1
.Ltmp188:
	.loc	2 503 35 is_stmt 1              @ ../Monitor/Monitor_Control.c:503:35
	ldr	r1, __arm_cp.11_4
	ldrb	r0, [r1]
	adds	r0, r0, #1
	strb	r0, [r1]
	.loc	2 504 17                        @ ../Monitor/Monitor_Control.c:504:17
	b	.LBB11_47
.Ltmp189:
.LBB11_46:
	.loc	2 506 21                        @ ../Monitor/Monitor_Control.c:506:21
	b	.LBB11_48
.Ltmp190:
.LBB11_47:                              @   in Loop: Header=BB11_43 Depth=1
	.loc	2 499 13                        @ ../Monitor/Monitor_Control.c:499:13
	b	.LBB11_43
.LBB11_48:
.Ltmp191:
	.loc	2 509 17                        @ ../Monitor/Monitor_Control.c:509:17
	ldr	r0, __arm_cp.11_4
	ldrb	r0, [r0]
.Ltmp192:
	.loc	2 509 17 is_stmt 0              @ ../Monitor/Monitor_Control.c:509:17
	cmp	r0, #3
	bne	.LBB11_50
	b	.LBB11_49
.LBB11_49:
.Ltmp193:
	.loc	2 512 17 is_stmt 1              @ ../Monitor/Monitor_Control.c:512:17
	ldr	r0, [sp, #20]
	ldr	r0, [r0, #92]
	movs	r1, #36
	orrs	r0, r1
	movs	r1, #10
	bics	r0, r1
	ldr	r1, [sp, #20]
	str	r0, [r1, #92]
	.loc	2 513 13                        @ ../Monitor/Monitor_Control.c:513:13
	b	.LBB11_51
.Ltmp194:
.LBB11_50:
	.loc	2 516 30                        @ ../Monitor/Monitor_Control.c:516:30
	ldr	r1, __arm_cp.11_1
	movs	r0, #1
	strb	r0, [r1]
	.loc	2 519 17                        @ ../Monitor/Monitor_Control.c:519:17
	ldr	r0, [sp, #20]
	ldr	r0, [r0, #92]
	movs	r1, #40
	orrs	r0, r1
	movs	r1, #6
	bics	r0, r1
	ldr	r1, [sp, #20]
	str	r0, [r1, #92]
	b	.LBB11_51
.Ltmp195:
.LBB11_51:
	.loc	2 521 9                         @ ../Monitor/Monitor_Control.c:521:9
	b	.LBB11_53
.Ltmp196:
.LBB11_52:
	.loc	2 524 13                        @ ../Monitor/Monitor_Control.c:524:13
	ldr	r0, [sp, #20]
	ldr	r0, [r0, #92]
	movs	r1, #36
	orrs	r0, r1
	movs	r1, #10
	bics	r0, r1
	ldr	r1, [sp, #20]
	str	r0, [r1, #92]
	.loc	2 526 33                        @ ../Monitor/Monitor_Control.c:526:33
	ldr	r0, [sp, #20]
	.loc	2 526 13 is_stmt 0              @ ../Monitor/Monitor_Control.c:526:13
	bl	UI2C1_Error_Hanlder
	b	.LBB11_53
.Ltmp197:
.LBB11_53:
	.loc	2 0 13                          @ ../Monitor/Monitor_Control.c:0:13
	b	.LBB11_54
.LBB11_54:
	.loc	2 528 5 is_stmt 1               @ ../Monitor/Monitor_Control.c:528:5
	b	.LBB11_58
.Ltmp198:
.LBB11_55:
	.loc	2 0 5 is_stmt 0                 @ ../Monitor/Monitor_Control.c:0:5
	add	r0, sp, #16
	.loc	2 529 14 is_stmt 1              @ ../Monitor/Monitor_Control.c:529:14
	ldrb	r0, [r0, #1]
	lsls	r0, r0, #30
	cmp	r0, #0
	bpl	.LBB11_57
	b	.LBB11_56
.LBB11_56:
.Ltmp199:
	.loc	2 531 9                         @ ../Monitor/Monitor_Control.c:531:9
	ldr	r1, [sp, #20]
	movw	r0, #512
	str	r0, [r1, #100]
	.loc	2 533 9                         @ ../Monitor/Monitor_Control.c:533:9
	ldr	r0, [sp, #20]
	ldr	r0, [r0, #92]
	movs	r1, #32
	orrs	r0, r1
	movs	r1, #14
	bics	r0, r1
	ldr	r1, [sp, #20]
	str	r0, [r1, #92]
	.loc	2 536 29                        @ ../Monitor/Monitor_Control.c:536:29
	ldr	r0, [sp, #20]
	.loc	2 536 9 is_stmt 0               @ ../Monitor/Monitor_Control.c:536:9
	bl	UI2C_DisableTimeout
	.loc	2 537 9 is_stmt 1               @ ../Monitor/Monitor_Control.c:537:9
	ldr	r2, [sp, #20]
	ldr	r1, [r2, #96]
	movs	r0, #1
	bics	r1, r0
	str	r1, [r2, #96]
	.loc	2 539 26                        @ ../Monitor/Monitor_Control.c:539:26
	ldr	r1, __arm_cp.11_0
	strb	r0, [r1]
	.loc	2 540 5                         @ ../Monitor/Monitor_Control.c:540:5
	b	.LBB11_57
.Ltmp200:
.LBB11_57:
	.loc	2 0 5 is_stmt 0                 @ ../Monitor/Monitor_Control.c:0:5
	b	.LBB11_58
.LBB11_58:
	b	.LBB11_59
.LBB11_59:
	b	.LBB11_60
.LBB11_60:
	.loc	2 541 1 epilogue_begin is_stmt 1 @ ../Monitor/Monitor_Control.c:541:1
	add	sp, #24
	pop	{r4, r5, r7, pc}
.Ltmp201:
	.p2align	2
@ %bb.61:
	.loc	2 0 1 is_stmt 0                 @ ../Monitor/Monitor_Control.c:0:1
__arm_cp.11_0:
	.long	g_u8GetEndFlag_1
.Lcpi_end47:
	.size	__arm_cp.11_0, .Lcpi_end47-__arm_cp.11_0
__arm_cp.11_1:
	.long	g_u8Status_1
.Lcpi_end48:
	.size	__arm_cp.11_1, .Lcpi_end48-__arm_cp.11_1
__arm_cp.11_2:
	.long	g_u16TempData_1
.Lcpi_end49:
	.size	__arm_cp.11_2, .Lcpi_end49-__arm_cp.11_2
__arm_cp.11_3:
	.long	32760                           @ 0x7ff8
.Lcpi_end50:
	.size	__arm_cp.11_3, .Lcpi_end50-__arm_cp.11_3
__arm_cp.11_4:
	.long	g_u8TargetCH_1
.Lcpi_end51:
	.size	__arm_cp.11_4, .Lcpi_end51-__arm_cp.11_4
__arm_cp.11_5:
	.long	eeprom_ram
.Lcpi_end52:
	.size	__arm_cp.11_5, .Lcpi_end52-__arm_cp.11_5
__arm_cp.11_6:
	.long	CH_Enalbe_Monitor_1
.Lcpi_end53:
	.size	__arm_cp.11_6, .Lcpi_end53-__arm_cp.11_6
__arm_cp.11_7:
	.long	Shunt_Ratio_Molecular_1
.Lcpi_end54:
	.size	__arm_cp.11_7, .Lcpi_end54-__arm_cp.11_7
__arm_cp.11_8:
	.long	Shunt_Ratio_Denomination_1
.Lcpi_end55:
	.size	__arm_cp.11_8, .Lcpi_end55-__arm_cp.11_8
.Lfunc_end11:
	.size	UI2C1_MasterTRx, .Lfunc_end11-UI2C1_MasterTRx
	.cfi_endproc
	.cantunwind
	.fnend
                                        @ -- End function
	.section	.text.Read_Monitor_Data_0,"ax",%progbits
	.hidden	Read_Monitor_Data_0             @ -- Begin function Read_Monitor_Data_0
	.globl	Read_Monitor_Data_0
	.p2align	2
	.type	Read_Monitor_Data_0,%function
	.code	16                              @ @Read_Monitor_Data_0
	.thumb_func
Read_Monitor_Data_0:
.Lfunc_begin12:
	.loc	2 583 0 is_stmt 1               @ ../Monitor/Monitor_Control.c:583:0
	.fnstart
	.cfi_startproc
@ %bb.0:
	.save	{r7, lr}
	push	{r7, lr}
	.cfi_def_cfa_offset 8
	.cfi_offset lr, -4
	.cfi_offset r7, -8
	.pad	#8
	sub	sp, #8
	.cfi_def_cfa_offset 16
.Ltmp202:
	.loc	2 584 9 prologue_end            @ ../Monitor/Monitor_Control.c:584:9
	ldr	r0, __arm_cp.12_0
	ldrb	r0, [r0]
.Ltmp203:
	.loc	2 584 9 is_stmt 0               @ ../Monitor/Monitor_Control.c:584:9
	cmp	r0, #1
	bne	.LBB12_11
	b	.LBB12_1
.LBB12_1:
.Ltmp204:
	.loc	2 587 24 is_stmt 1              @ ../Monitor/Monitor_Control.c:587:24
	ldr	r1, __arm_cp.12_1
	movs	r0, #0
	strb	r0, [r1]
	.loc	2 588 26                        @ ../Monitor/Monitor_Control.c:588:26
	ldr	r1, __arm_cp.12_0
	strb	r0, [r1]
	.loc	2 589 28                        @ ../Monitor/Monitor_Control.c:589:28
	ldr	r1, __arm_cp.12_2
	strh	r0, [r1]
	.loc	2 590 28                        @ ../Monitor/Monitor_Control.c:590:28
	strh	r0, [r1, #2]
	.loc	2 593 9                         @ ../Monitor/Monitor_Control.c:593:9
	b	.LBB12_2
.LBB12_2:                               @ =>This Inner Loop Header: Depth=1
	.loc	2 593 16 is_stmt 0              @ ../Monitor/Monitor_Control.c:593:16
	ldr	r0, __arm_cp.12_1
	ldrb	r0, [r0]
	.loc	2 593 9                         @ ../Monitor/Monitor_Control.c:593:9
	cmp	r0, #2
	bgt	.LBB12_7
	b	.LBB12_3
.LBB12_3:                               @   in Loop: Header=BB12_2 Depth=1
.Ltmp205:
	.loc	2 595 37 is_stmt 1              @ ../Monitor/Monitor_Control.c:595:37
	ldr	r0, __arm_cp.12_1
	ldrb	r1, [r0]
	.loc	2 595 17 is_stmt 0              @ ../Monitor/Monitor_Control.c:595:17
	ldr	r0, __arm_cp.12_3
	ldrb	r0, [r0, r1]
.Ltmp206:
	.loc	2 595 17                        @ ../Monitor/Monitor_Control.c:595:17
	cbnz	r0, .LBB12_5
	b	.LBB12_4
.LBB12_4:                               @   in Loop: Header=BB12_2 Depth=1
.Ltmp207:
	.loc	2 597 31 is_stmt 1              @ ../Monitor/Monitor_Control.c:597:31
	ldr	r1, __arm_cp.12_1
	ldrb	r0, [r1]
	adds	r0, r0, #1
	strb	r0, [r1]
	.loc	2 598 13                        @ ../Monitor/Monitor_Control.c:598:13
	b	.LBB12_6
.Ltmp208:
.LBB12_5:
	.loc	2 600 17                        @ ../Monitor/Monitor_Control.c:600:17
	b	.LBB12_7
.Ltmp209:
.LBB12_6:                               @   in Loop: Header=BB12_2 Depth=1
	.loc	2 593 9                         @ ../Monitor/Monitor_Control.c:593:9
	b	.LBB12_2
.LBB12_7:
.Ltmp210:
	.loc	2 603 13                        @ ../Monitor/Monitor_Control.c:603:13
	ldr	r0, __arm_cp.12_1
	ldrb	r0, [r0]
.Ltmp211:
	.loc	2 603 13 is_stmt 0              @ ../Monitor/Monitor_Control.c:603:13
	cmp	r0, #3
	bne	.LBB12_9
	b	.LBB12_8
.LBB12_8:
.Ltmp212:
	.loc	2 605 30 is_stmt 1              @ ../Monitor/Monitor_Control.c:605:30
	ldr	r1, __arm_cp.12_0
	movs	r0, #1
	strb	r0, [r1]
	.loc	2 606 9                         @ ../Monitor/Monitor_Control.c:606:9
	b	.LBB12_10
.Ltmp213:
.LBB12_9:
	.loc	2 0 9 is_stmt 0                 @ ../Monitor/Monitor_Control.c:0:9
	ldr	r0, __arm_cp.12_4
	str	r0, [sp, #4]                    @ 4-byte Spill
	movs	r1, #1
.Ltmp214:
	.loc	2 610 13 is_stmt 1              @ ../Monitor/Monitor_Control.c:610:13
	str	r1, [sp]                        @ 4-byte Spill
	bl	I2C_EnableTimeout
	ldr	r0, [sp]                        @ 4-byte Reload
	ldr	r1, [sp, #4]                    @ 4-byte Reload
	.loc	2 613 26                        @ ../Monitor/Monitor_Control.c:613:26
	ldr	r2, __arm_cp.12_5
	strb	r0, [r2]
	.loc	2 616 13                        @ ../Monitor/Monitor_Control.c:616:13
	ldr	r0, [r1]
	movs	r2, #32
	orrs	r0, r2
	movs	r2, #28
	bics	r0, r2
	str	r0, [r1]
	b	.LBB12_10
.Ltmp215:
.LBB12_10:
	.loc	2 618 5                         @ ../Monitor/Monitor_Control.c:618:5
	b	.LBB12_11
.Ltmp216:
.LBB12_11:
	.loc	2 619 1 epilogue_begin          @ ../Monitor/Monitor_Control.c:619:1
	add	sp, #8
	pop	{r7, pc}
.Ltmp217:
	.p2align	2
@ %bb.12:
	.loc	2 0 1 is_stmt 0                 @ ../Monitor/Monitor_Control.c:0:1
__arm_cp.12_0:
	.long	g_u8GetEndFlag_0
.Lcpi_end56:
	.size	__arm_cp.12_0, .Lcpi_end56-__arm_cp.12_0
__arm_cp.12_1:
	.long	g_u8TargetCH_0
.Lcpi_end57:
	.size	__arm_cp.12_1, .Lcpi_end57-__arm_cp.12_1
__arm_cp.12_2:
	.long	g_u16TempData_0
.Lcpi_end58:
	.size	__arm_cp.12_2, .Lcpi_end58-__arm_cp.12_2
__arm_cp.12_3:
	.long	CH_Enalbe_Monitor_0
.Lcpi_end59:
	.size	__arm_cp.12_3, .Lcpi_end59-__arm_cp.12_3
__arm_cp.12_4:
	.long	1074266112                      @ 0x40080000
.Lcpi_end60:
	.size	__arm_cp.12_4, .Lcpi_end60-__arm_cp.12_4
__arm_cp.12_5:
	.long	g_u8Status_0
.Lcpi_end61:
	.size	__arm_cp.12_5, .Lcpi_end61-__arm_cp.12_5
.Lfunc_end12:
	.size	Read_Monitor_Data_0, .Lfunc_end12-Read_Monitor_Data_0
	.cfi_endproc
	.cantunwind
	.fnend
                                        @ -- End function
	.section	.text.Read_Monitor_Data_1,"ax",%progbits
	.hidden	Read_Monitor_Data_1             @ -- Begin function Read_Monitor_Data_1
	.globl	Read_Monitor_Data_1
	.p2align	2
	.type	Read_Monitor_Data_1,%function
	.code	16                              @ @Read_Monitor_Data_1
	.thumb_func
Read_Monitor_Data_1:
.Lfunc_begin13:
	.loc	2 622 0 is_stmt 1               @ ../Monitor/Monitor_Control.c:622:0
	.fnstart
	.cfi_startproc
@ %bb.0:
	.save	{r7, lr}
	push	{r7, lr}
	.cfi_def_cfa_offset 8
	.cfi_offset lr, -4
	.cfi_offset r7, -8
.Ltmp218:
	.loc	2 623 9 prologue_end            @ ../Monitor/Monitor_Control.c:623:9
	ldr	r0, __arm_cp.13_0
	ldrb	r0, [r0]
.Ltmp219:
	.loc	2 623 9 is_stmt 0               @ ../Monitor/Monitor_Control.c:623:9
	cmp	r0, #1
	bne	.LBB13_11
	b	.LBB13_1
.LBB13_1:
.Ltmp220:
	.loc	2 626 24 is_stmt 1              @ ../Monitor/Monitor_Control.c:626:24
	ldr	r1, __arm_cp.13_1
	movs	r0, #0
	strb	r0, [r1]
	.loc	2 627 26                        @ ../Monitor/Monitor_Control.c:627:26
	ldr	r1, __arm_cp.13_0
	strb	r0, [r1]
	.loc	2 628 28                        @ ../Monitor/Monitor_Control.c:628:28
	ldr	r1, __arm_cp.13_2
	strh	r0, [r1]
	.loc	2 629 28                        @ ../Monitor/Monitor_Control.c:629:28
	strh	r0, [r1, #2]
	.loc	2 632 9                         @ ../Monitor/Monitor_Control.c:632:9
	b	.LBB13_2
.LBB13_2:                               @ =>This Inner Loop Header: Depth=1
	.loc	2 632 16 is_stmt 0              @ ../Monitor/Monitor_Control.c:632:16
	ldr	r0, __arm_cp.13_1
	ldrb	r0, [r0]
	.loc	2 632 9                         @ ../Monitor/Monitor_Control.c:632:9
	cmp	r0, #2
	bgt	.LBB13_7
	b	.LBB13_3
.LBB13_3:                               @   in Loop: Header=BB13_2 Depth=1
.Ltmp221:
	.loc	2 634 37 is_stmt 1              @ ../Monitor/Monitor_Control.c:634:37
	ldr	r0, __arm_cp.13_1
	ldrb	r1, [r0]
	.loc	2 634 17 is_stmt 0              @ ../Monitor/Monitor_Control.c:634:17
	ldr	r0, __arm_cp.13_3
	ldrb	r0, [r0, r1]
.Ltmp222:
	.loc	2 634 17                        @ ../Monitor/Monitor_Control.c:634:17
	cbnz	r0, .LBB13_5
	b	.LBB13_4
.LBB13_4:                               @   in Loop: Header=BB13_2 Depth=1
.Ltmp223:
	.loc	2 636 31 is_stmt 1              @ ../Monitor/Monitor_Control.c:636:31
	ldr	r1, __arm_cp.13_1
	ldrb	r0, [r1]
	adds	r0, r0, #1
	strb	r0, [r1]
	.loc	2 637 13                        @ ../Monitor/Monitor_Control.c:637:13
	b	.LBB13_6
.Ltmp224:
.LBB13_5:
	.loc	2 639 17                        @ ../Monitor/Monitor_Control.c:639:17
	b	.LBB13_7
.Ltmp225:
.LBB13_6:                               @   in Loop: Header=BB13_2 Depth=1
	.loc	2 632 9                         @ ../Monitor/Monitor_Control.c:632:9
	b	.LBB13_2
.LBB13_7:
.Ltmp226:
	.loc	2 642 13                        @ ../Monitor/Monitor_Control.c:642:13
	ldr	r0, __arm_cp.13_1
	ldrb	r0, [r0]
.Ltmp227:
	.loc	2 642 13 is_stmt 0              @ ../Monitor/Monitor_Control.c:642:13
	cmp	r0, #3
	bne	.LBB13_9
	b	.LBB13_8
.LBB13_8:
.Ltmp228:
	.loc	2 644 30 is_stmt 1              @ ../Monitor/Monitor_Control.c:644:30
	ldr	r1, __arm_cp.13_0
	movs	r0, #1
	strb	r0, [r1]
	.loc	2 645 9                         @ ../Monitor/Monitor_Control.c:645:9
	b	.LBB13_10
.Ltmp229:
.LBB13_9:
	.loc	2 0 9 is_stmt 0                 @ ../Monitor/Monitor_Control.c:0:9
	ldr	r0, __arm_cp.13_4
	ldr	r1, __arm_cp.13_5
.Ltmp230:
	.loc	2 649 13 is_stmt 1              @ ../Monitor/Monitor_Control.c:649:13
	bl	UI2C_EnableTimeout
	ldr	r1, __arm_cp.13_6
	movs	r0, #32
	.loc	2 650 13                        @ ../Monitor/Monitor_Control.c:650:13
	str	r0, [r1]
	ldr	r2, __arm_cp.13_7
	.loc	2 651 13                        @ ../Monitor/Monitor_Control.c:651:13
	ldr	r1, [r2]
	movs	r0, #1
	orrs	r1, r0
	str	r1, [r2]
	.loc	2 654 26                        @ ../Monitor/Monitor_Control.c:654:26
	ldr	r1, __arm_cp.13_8
	strb	r0, [r1]
	ldr	r1, __arm_cp.13_9
	.loc	2 657 13                        @ ../Monitor/Monitor_Control.c:657:13
	ldr	r0, [r1]
	movs	r2, #8
	orrs	r0, r2
	movs	r2, #38
	bics	r0, r2
	str	r0, [r1]
	b	.LBB13_10
.Ltmp231:
.LBB13_10:
	.loc	2 659 5                         @ ../Monitor/Monitor_Control.c:659:5
	b	.LBB13_11
.Ltmp232:
.LBB13_11:
	.loc	2 660 1 epilogue_begin          @ ../Monitor/Monitor_Control.c:660:1
	pop	{r7, pc}
.Ltmp233:
	.p2align	2
@ %bb.12:
	.loc	2 0 1 is_stmt 0                 @ ../Monitor/Monitor_Control.c:0:1
__arm_cp.13_0:
	.long	g_u8GetEndFlag_1
.Lcpi_end62:
	.size	__arm_cp.13_0, .Lcpi_end62-__arm_cp.13_0
__arm_cp.13_1:
	.long	g_u8TargetCH_1
.Lcpi_end63:
	.size	__arm_cp.13_1, .Lcpi_end63-__arm_cp.13_1
__arm_cp.13_2:
	.long	g_u16TempData_1
.Lcpi_end64:
	.size	__arm_cp.13_2, .Lcpi_end64-__arm_cp.13_2
__arm_cp.13_3:
	.long	CH_Enalbe_Monitor_1
.Lcpi_end65:
	.size	__arm_cp.13_3, .Lcpi_end65-__arm_cp.13_3
__arm_cp.13_4:
	.long	1074597888                      @ 0x400d1000
.Lcpi_end66:
	.size	__arm_cp.13_4, .Lcpi_end66-__arm_cp.13_4
__arm_cp.13_5:
	.long	1023                            @ 0x3ff
.Lcpi_end67:
	.size	__arm_cp.13_5, .Lcpi_end67-__arm_cp.13_5
__arm_cp.13_6:
	.long	1074597988                      @ 0x400d1064
.Lcpi_end68:
	.size	__arm_cp.13_6, .Lcpi_end68-__arm_cp.13_6
__arm_cp.13_7:
	.long	1074597984                      @ 0x400d1060
.Lcpi_end69:
	.size	__arm_cp.13_7, .Lcpi_end69-__arm_cp.13_7
__arm_cp.13_8:
	.long	g_u8Status_1
.Lcpi_end70:
	.size	__arm_cp.13_8, .Lcpi_end70-__arm_cp.13_8
__arm_cp.13_9:
	.long	1074597980                      @ 0x400d105c
.Lcpi_end71:
	.size	__arm_cp.13_9, .Lcpi_end71-__arm_cp.13_9
.Lfunc_end13:
	.size	Read_Monitor_Data_1, .Lfunc_end13-Read_Monitor_Data_1
	.cfi_endproc
	.cantunwind
	.fnend
                                        @ -- End function
	.hidden	CH_Enalbe_Monitor_0             @ @CH_Enalbe_Monitor_0
	.type	CH_Enalbe_Monitor_0,%object
	.section	.rodata.CH_Enalbe_Monitor_0,"a",%progbits
	.globl	CH_Enalbe_Monitor_0
CH_Enalbe_Monitor_0:
	.zero	3,1
	.size	CH_Enalbe_Monitor_0, 3

	.hidden	g_u8TargetCH_0                  @ @g_u8TargetCH_0
	.type	g_u8TargetCH_0,%object
	.section	.bss.g_u8TargetCH_0,"aw",%nobits
	.globl	g_u8TargetCH_0
g_u8TargetCH_0:
	.byte	0                               @ 0x0
	.size	g_u8TargetCH_0, 1

	.hidden	g_u8GetEndFlag_0                @ @g_u8GetEndFlag_0
	.type	g_u8GetEndFlag_0,%object
	.section	.data.g_u8GetEndFlag_0,"aw",%progbits
	.globl	g_u8GetEndFlag_0
g_u8GetEndFlag_0:
	.byte	1                               @ 0x1
	.size	g_u8GetEndFlag_0, 1

	.hidden	g_u8GetErrorFlag_0              @ @g_u8GetErrorFlag_0
	.type	g_u8GetErrorFlag_0,%object
	.section	.bss.g_u8GetErrorFlag_0,"aw",%nobits
	.globl	g_u8GetErrorFlag_0
g_u8GetErrorFlag_0:
	.byte	0                               @ 0x0
	.size	g_u8GetErrorFlag_0, 1

	.hidden	g_u8Status_0                    @ @g_u8Status_0
	.type	g_u8Status_0,%object
	.section	.bss.g_u8Status_0,"aw",%nobits
	.globl	g_u8Status_0
g_u8Status_0:
	.byte	0                               @ 0x0
	.size	g_u8Status_0, 1

	.hidden	Shunt_Ratio_Molecular_0         @ @Shunt_Ratio_Molecular_0
	.type	Shunt_Ratio_Molecular_0,%object
	.section	.rodata.Shunt_Ratio_Molecular_0,"a",%progbits
	.globl	Shunt_Ratio_Molecular_0
	.p2align	1, 0x0
Shunt_Ratio_Molecular_0:
	.short	200                             @ 0xc8
	.short	200                             @ 0xc8
	.short	200                             @ 0xc8
	.size	Shunt_Ratio_Molecular_0, 6

	.hidden	Shunt_Ratio_Denomination_0      @ @Shunt_Ratio_Denomination_0
	.type	Shunt_Ratio_Denomination_0,%object
	.section	.rodata.Shunt_Ratio_Denomination_0,"a",%progbits
	.globl	Shunt_Ratio_Denomination_0
	.p2align	1, 0x0
Shunt_Ratio_Denomination_0:
	.short	1                               @ 0x1
	.short	1                               @ 0x1
	.short	1                               @ 0x1
	.size	Shunt_Ratio_Denomination_0, 6

	.hidden	Shunt_Ratio_Molecular_1         @ @Shunt_Ratio_Molecular_1
	.type	Shunt_Ratio_Molecular_1,%object
	.section	.rodata.Shunt_Ratio_Molecular_1,"a",%progbits
	.globl	Shunt_Ratio_Molecular_1
	.p2align	1, 0x0
Shunt_Ratio_Molecular_1:
	.short	200                             @ 0xc8
	.short	200                             @ 0xc8
	.short	200                             @ 0xc8
	.size	Shunt_Ratio_Molecular_1, 6

	.hidden	Shunt_Ratio_Denomination_1      @ @Shunt_Ratio_Denomination_1
	.type	Shunt_Ratio_Denomination_1,%object
	.section	.rodata.Shunt_Ratio_Denomination_1,"a",%progbits
	.globl	Shunt_Ratio_Denomination_1
	.p2align	1, 0x0
Shunt_Ratio_Denomination_1:
	.short	1                               @ 0x1
	.short	1                               @ 0x1
	.short	1                               @ 0x1
	.size	Shunt_Ratio_Denomination_1, 6

	.hidden	CH_Enalbe_Monitor_1             @ @CH_Enalbe_Monitor_1
	.type	CH_Enalbe_Monitor_1,%object
	.section	.rodata.CH_Enalbe_Monitor_1,"a",%progbits
	.globl	CH_Enalbe_Monitor_1
CH_Enalbe_Monitor_1:
	.zero	3
	.size	CH_Enalbe_Monitor_1, 3

	.hidden	g_u8TargetCH_1                  @ @g_u8TargetCH_1
	.type	g_u8TargetCH_1,%object
	.section	.bss.g_u8TargetCH_1,"aw",%nobits
	.globl	g_u8TargetCH_1
g_u8TargetCH_1:
	.byte	0                               @ 0x0
	.size	g_u8TargetCH_1, 1

	.hidden	g_u8GetEndFlag_1                @ @g_u8GetEndFlag_1
	.type	g_u8GetEndFlag_1,%object
	.section	.data.g_u8GetEndFlag_1,"aw",%progbits
	.globl	g_u8GetEndFlag_1
g_u8GetEndFlag_1:
	.byte	1                               @ 0x1
	.size	g_u8GetEndFlag_1, 1

	.hidden	g_u8GetErrorFlag_1              @ @g_u8GetErrorFlag_1
	.type	g_u8GetErrorFlag_1,%object
	.section	.bss.g_u8GetErrorFlag_1,"aw",%nobits
	.globl	g_u8GetErrorFlag_1
g_u8GetErrorFlag_1:
	.byte	0                               @ 0x0
	.size	g_u8GetErrorFlag_1, 1

	.hidden	g_u8Status_1                    @ @g_u8Status_1
	.type	g_u8Status_1,%object
	.section	.bss.g_u8Status_1,"aw",%nobits
	.globl	g_u8Status_1
g_u8Status_1:
	.byte	0                               @ 0x0
	.size	g_u8Status_1, 1

	.hidden	au8MonitorData_0                @ @au8MonitorData_0
	.type	au8MonitorData_0,%object
	.section	.bss.au8MonitorData_0,"aw",%nobits
	.globl	au8MonitorData_0
	.p2align	1, 0x0
au8MonitorData_0:
	.zero	12
	.size	au8MonitorData_0, 12

	.type	s_I2C0HandlerFn,%object         @ @s_I2C0HandlerFn
	.section	.bss.s_I2C0HandlerFn,"aw",%nobits
	.p2align	2, 0x0
s_I2C0HandlerFn:
	.long	0
	.size	s_I2C0HandlerFn, 4

	.hidden	g_u16TempData_0                 @ @g_u16TempData_0
	.type	g_u16TempData_0,%object
	.section	.bss.g_u16TempData_0,"aw",%nobits
	.globl	g_u16TempData_0
	.p2align	1, 0x0
g_u16TempData_0:
	.zero	4
	.size	g_u16TempData_0, 4

	.hidden	au8MonitorData_1                @ @au8MonitorData_1
	.type	au8MonitorData_1,%object
	.section	.bss.au8MonitorData_1,"aw",%nobits
	.globl	au8MonitorData_1
	.p2align	1, 0x0
au8MonitorData_1:
	.zero	12
	.size	au8MonitorData_1, 12

	.type	s_UI2C1HandlerFn,%object        @ @s_UI2C1HandlerFn
	.section	.bss.s_UI2C1HandlerFn,"aw",%nobits
	.p2align	2, 0x0
s_UI2C1HandlerFn:
	.long	0
	.size	s_UI2C1HandlerFn, 4

	.hidden	g_u16TempData_1                 @ @g_u16TempData_1
	.type	g_u16TempData_1,%object
	.section	.bss.g_u16TempData_1,"aw",%nobits
	.globl	g_u16TempData_1
	.p2align	1, 0x0
g_u16TempData_1:
	.zero	4
	.size	g_u16TempData_1, 4

	.hidden	TimeCounterMonitorUpdate        @ @TimeCounterMonitorUpdate
	.type	TimeCounterMonitorUpdate,%object
	.section	.bss.TimeCounterMonitorUpdate,"aw",%nobits
	.globl	TimeCounterMonitorUpdate
	.p2align	2, 0x0
TimeCounterMonitorUpdate:
	.long	0                               @ 0x0
	.size	TimeCounterMonitorUpdate, 4

	.hidden	u8MonitorFlag                   @ @u8MonitorFlag
	.type	u8MonitorFlag,%object
	.section	.bss.u8MonitorFlag,"aw",%nobits
	.globl	u8MonitorFlag
u8MonitorFlag:
	.byte	0                               @ 0x0
	.size	u8MonitorFlag, 1

	.section	".note.GNU-stack","",%progbits
	.eabi_attribute	30, 6	@ Tag_ABI_optimization_goals
	.ARM_attribute	16, 1	@ Tag_AV_eba