	.text
	.syntax unified
	.eabi_attribute	67, "2.09"	@ Tag_conformance
	.cpu	cortex-m23
	.eabi_attribute	6, 16	@ Tag_CPU_arch
	.eabi_attribute	7, 77	@ Tag_CPU_arch_profile
	.eabi_attribute	8, 0	@ Tag_ARM_ISA_use
	.eabi_attribute	9, 3	@ Tag_THUMB_ISA_use
	.eabi_attribute	34, 0	@ Tag_CPU_unaligned_access
	.eabi_attribute	17, 1	@ Tag_ABI_PCS_GOT_use
	.eabi_attribute	20, 2	@ Tag_ABI_FP_denormal
	.eabi_attribute	21, 0	@ Tag_ABI_FP_exceptions
	.eabi_attribute	23, 1	@ Tag_ABI_FP_number_model
	.eabi_attribute	24, 1	@ Tag_ABI_align_needed
	.eabi_attribute	25, 1	@ Tag_ABI_align_preserved
	.eabi_attribute	38, 1	@ Tag_ABI_FP_16bit_format
	.eabi_attribute	18, 2	@ Tag_ABI_PCS_wchar_t
	.eabi_attribute	26, 1	@ Tag_ABI_enum_size
	.eabi_attribute	14, 0	@ Tag_ABI_PCS_R9_use
	.file	"usci_i2c.c"
	.file	1 "C:\\Users\\tester" "AppData\\Local\\Keil_v5\\ARM\\ARMCLANG\\bin\\..\\include\\stdint.h"
	.file	2 "C:\\Users\\tester\\Desktop\\M251 dual eeprom\\SampleCode\\StdDriver\\INA3221_CABLE\\KEIL" "../../../../Library/StdDriver/src/usci_i2c.c"
	.file	3 "C:\\Users\\tester\\Desktop\\M251 dual eeprom\\SampleCode\\StdDriver\\INA3221_CABLE\\KEIL" "../../../../Library/StdDriver/inc\\usci_i2c.h"
	.file	4 "C:\\Users\\tester\\Desktop\\M251 dual eeprom\\SampleCode\\StdDriver\\INA3221_CABLE\\KEIL" "../../../../Library/Device/Nuvoton/M251/Include\\ui2c_reg.h"
	.section	.text.UI2C_Open,"ax",%progbits
	.hidden	UI2C_Open                       @ -- Begin function UI2C_Open
	.globl	UI2C_Open
	.p2align	2
	.type	UI2C_Open,%function
	.code	16                              @ @UI2C_Open
	.thumb_func
UI2C_Open:
.Lfunc_begin0:
	.loc	2 36 0                          @ ../../../../Library/StdDriver/src/usci_i2c.c:36:0
	.fnstart
	.cfi_sections .debug_frame
	.cfi_startproc
@ %bb.0:
	.save	{r7, lr}
	push	{r7, lr}
	.cfi_def_cfa_offset 8
	.cfi_offset lr, -4
	.cfi_offset r7, -8
	.pad	#16
	sub	sp, #16
	.cfi_def_cfa_offset 24
	str	r0, [sp, #12]
	str	r1, [sp, #8]
.Ltmp0:
	.loc	2 40 10 prologue_end            @ ../../../../Library/StdDriver/src/usci_i2c.c:40:10
	ldr	r0, [sp, #12]
	ldr	r1, __arm_cp.0_0
	.loc	2 40 25 is_stmt 0               @ ../../../../Library/StdDriver/src/usci_i2c.c:40:25
	cmp	r0, r1
	beq	.LBB0_2
	b	.LBB0_1
.LBB0_1:
	.loc	2 40 29                         @ ../../../../Library/StdDriver/src/usci_i2c.c:40:29
	ldr	r0, [sp, #12]
	ldr	r1, __arm_cp.0_1
.Ltmp1:
	.loc	2 40 9                          @ ../../../../Library/StdDriver/src/usci_i2c.c:40:9
	cmp	r0, r1
	bne	.LBB0_3
	b	.LBB0_2
.LBB0_2:
.Ltmp2:
	.loc	2 42 19 is_stmt 1               @ ../../../../Library/StdDriver/src/usci_i2c.c:42:19
	bl	CLK_GetPCLK0Freq
	.loc	2 42 17 is_stmt 0               @ ../../../../Library/StdDriver/src/usci_i2c.c:42:17
	str	r0, [sp]
	.loc	2 43 5 is_stmt 1                @ ../../../../Library/StdDriver/src/usci_i2c.c:43:5
	b	.LBB0_4
.Ltmp3:
.LBB0_3:
	.loc	2 46 19                         @ ../../../../Library/StdDriver/src/usci_i2c.c:46:19
	bl	CLK_GetPCLK1Freq
	.loc	2 46 17 is_stmt 0               @ ../../../../Library/StdDriver/src/usci_i2c.c:46:17
	str	r0, [sp]
	b	.LBB0_4
.Ltmp4:
.LBB0_4:
	.loc	2 49 33 is_stmt 1               @ ../../../../Library/StdDriver/src/usci_i2c.c:49:33
	ldr	r0, [sp]
	.loc	2 49 41 is_stmt 0               @ ../../../../Library/StdDriver/src/usci_i2c.c:49:41
	lsrs	r2, r0, #1
	movs	r1, #10
	.loc	2 49 47                         @ ../../../../Library/StdDriver/src/usci_i2c.c:49:47
	mov	r0, r1
	muls	r0, r2, r0
	.loc	2 49 57                         @ ../../../../Library/StdDriver/src/usci_i2c.c:49:57
	ldr	r2, [sp, #8]
	.loc	2 49 54                         @ ../../../../Library/StdDriver/src/usci_i2c.c:49:54
	udiv	r0, r0, r2
	.loc	2 49 71                         @ ../../../../Library/StdDriver/src/usci_i2c.c:49:71
	adds	r0, r0, #5
	.loc	2 49 77                         @ ../../../../Library/StdDriver/src/usci_i2c.c:49:77
	udiv	r0, r0, r1
	.loc	2 49 84                         @ ../../../../Library/StdDriver/src/usci_i2c.c:49:84
	subs	r0, r0, #1
	.loc	2 49 15                         @ ../../../../Library/StdDriver/src/usci_i2c.c:49:15
	str	r0, [sp, #4]
	.loc	2 52 18 is_stmt 1               @ ../../../../Library/StdDriver/src/usci_i2c.c:52:18
	ldr	r0, [sp, #12]
	.loc	2 52 24 is_stmt 0               @ ../../../../Library/StdDriver/src/usci_i2c.c:52:24
	ldr	r0, [r0]
	movs	r1, #4
	.loc	2 52 28                         @ ../../../../Library/StdDriver/src/usci_i2c.c:52:28
	orrs	r0, r1
	movs	r1, #3
	.loc	2 52 53                         @ ../../../../Library/StdDriver/src/usci_i2c.c:52:53
	bics	r0, r1
	.loc	2 52 5                          @ ../../../../Library/StdDriver/src/usci_i2c.c:52:5
	ldr	r1, [sp, #12]
	.loc	2 52 15                         @ ../../../../Library/StdDriver/src/usci_i2c.c:52:15
	str	r0, [r1]
	.loc	2 56 5 is_stmt 1                @ ../../../../Library/StdDriver/src/usci_i2c.c:56:5
	ldr	r1, [sp, #12]
	.loc	2 56 19 is_stmt 0               @ ../../../../Library/StdDriver/src/usci_i2c.c:56:19
	ldr	r0, [r1, #44]
	movw	r2, #3840
	bics	r0, r2
	str	r0, [r1, #44]
	.loc	2 57 5 is_stmt 1                @ ../../../../Library/StdDriver/src/usci_i2c.c:57:5
	ldr	r1, [sp, #12]
	.loc	2 57 19 is_stmt 0               @ ../../../../Library/StdDriver/src/usci_i2c.c:57:19
	ldr	r0, [r1, #44]
	movw	r2, #2048
	orrs	r0, r2
	str	r0, [r1, #44]
	.loc	2 60 5 is_stmt 1                @ ../../../../Library/StdDriver/src/usci_i2c.c:60:5
	ldr	r1, [sp, #12]
	.loc	2 60 19 is_stmt 0               @ ../../../../Library/StdDriver/src/usci_i2c.c:60:19
	ldr	r0, [r1, #44]
	movs	r2, #1
	bics	r0, r2
	str	r0, [r1, #44]
	.loc	2 63 5 is_stmt 1                @ ../../../../Library/StdDriver/src/usci_i2c.c:63:5
	ldr	r1, [sp, #12]
	.loc	2 63 17 is_stmt 0               @ ../../../../Library/StdDriver/src/usci_i2c.c:63:17
	ldr	r0, [r1, #8]
	ldr	r3, __arm_cp.0_2
	ands	r0, r3
	str	r0, [r1, #8]
	.loc	2 64 21 is_stmt 1               @ ../../../../Library/StdDriver/src/usci_i2c.c:64:21
	ldr	r0, [sp, #4]
	.loc	2 64 31 is_stmt 0               @ ../../../../Library/StdDriver/src/usci_i2c.c:64:31
	lsls	r3, r0, #16
	.loc	2 64 5                          @ ../../../../Library/StdDriver/src/usci_i2c.c:64:5
	ldr	r1, [sp, #12]
	.loc	2 64 17                         @ ../../../../Library/StdDriver/src/usci_i2c.c:64:17
	ldr	r0, [r1, #8]
	orrs	r0, r3
	str	r0, [r1, #8]
	.loc	2 65 5 is_stmt 1                @ ../../../../Library/StdDriver/src/usci_i2c.c:65:5
	ldr	r1, [sp, #12]
	.loc	2 65 19 is_stmt 0               @ ../../../../Library/StdDriver/src/usci_i2c.c:65:19
	ldr	r0, [r1, #92]
	lsls	r2, r2, #31
	orrs	r0, r2
	str	r0, [r1, #92]
	.loc	2 67 13 is_stmt 1               @ ../../../../Library/StdDriver/src/usci_i2c.c:67:13
	ldr	r0, [sp]
	.loc	2 67 25 is_stmt 0               @ ../../../../Library/StdDriver/src/usci_i2c.c:67:25
	ldr	r1, [sp, #4]
	.loc	2 67 35                         @ ../../../../Library/StdDriver/src/usci_i2c.c:67:35
	lsls	r1, r1, #1
	.loc	2 67 41                         @ ../../../../Library/StdDriver/src/usci_i2c.c:67:41
	adds	r1, r1, #2
	.loc	2 67 21                         @ ../../../../Library/StdDriver/src/usci_i2c.c:67:21
	udiv	r0, r0, r1
	.loc	2 67 5 epilogue_begin           @ ../../../../Library/StdDriver/src/usci_i2c.c:67:5
	add	sp, #16
	pop	{r7, pc}
.Ltmp5:
	.p2align	2
@ %bb.5:
	.loc	2 0 5                           @ ../../../../Library/StdDriver/src/usci_i2c.c:0:5
__arm_cp.0_0:
	.long	1074593792                      @ 0x400d0000
.Lcpi_end0:
	.size	__arm_cp.0_0, .Lcpi_end0-__arm_cp.0_0
__arm_cp.0_1:
	.long	1074601984                      @ 0x400d2000
.Lcpi_end1:
	.size	__arm_cp.0_1, .Lcpi_end1-__arm_cp.0_1
__arm_cp.0_2:
	.long	4227923967                      @ 0xfc00ffff
.Lcpi_end2:
	.size	__arm_cp.0_2, .Lcpi_end2-__arm_cp.0_2
.Lfunc_end0:
	.size	UI2C_Open, .Lfunc_end0-UI2C_Open
	.cfi_endproc
	.cantunwind
	.fnend
                                        @ -- End function
	.section	.text.UI2C_Close,"ax",%progbits
	.hidden	UI2C_Close                      @ -- Begin function UI2C_Close
	.globl	UI2C_Close
	.p2align	1
	.type	UI2C_Close,%function
	.code	16                              @ @UI2C_Close
	.thumb_func
UI2C_Close:
.Lfunc_begin1:
	.loc	2 78 0 is_stmt 1                @ ../../../../Library/StdDriver/src/usci_i2c.c:78:0
	.fnstart
	.cfi_startproc
@ %bb.0:
	.pad	#4
	sub	sp, #4
	.cfi_def_cfa_offset 4
	str	r0, [sp]
.Ltmp6:
	.loc	2 80 5 prologue_end             @ ../../../../Library/StdDriver/src/usci_i2c.c:80:5
	ldr	r1, [sp]
	.loc	2 80 15 is_stmt 0               @ ../../../../Library/StdDriver/src/usci_i2c.c:80:15
	ldr	r0, [r1]
	movs	r2, #7
	bics	r0, r2
	str	r0, [r1]
	.loc	2 81 1 epilogue_begin is_stmt 1 @ ../../../../Library/StdDriver/src/usci_i2c.c:81:1
	add	sp, #4
	bx	lr
.Ltmp7:
.Lfunc_end1:
	.size	UI2C_Close, .Lfunc_end1-UI2C_Close
	.cfi_endproc
	.cantunwind
	.fnend
                                        @ -- End function
	.section	.text.UI2C_ClearTimeoutFlag,"ax",%progbits
	.hidden	UI2C_ClearTimeoutFlag           @ -- Begin function UI2C_ClearTimeoutFlag
	.globl	UI2C_ClearTimeoutFlag
	.p2align	1
	.type	UI2C_ClearTimeoutFlag,%function
	.code	16                              @ @UI2C_ClearTimeoutFlag
	.thumb_func
UI2C_ClearTimeoutFlag:
.Lfunc_begin2:
	.loc	2 91 0                          @ ../../../../Library/StdDriver/src/usci_i2c.c:91:0
	.fnstart
	.cfi_startproc
@ %bb.0:
	.pad	#4
	sub	sp, #4
	.cfi_def_cfa_offset 4
	str	r0, [sp]
.Ltmp8:
	.loc	2 92 5 prologue_end             @ ../../../../Library/StdDriver/src/usci_i2c.c:92:5
	ldr	r1, [sp]
	movs	r0, #32
	.loc	2 92 19 is_stmt 0               @ ../../../../Library/StdDriver/src/usci_i2c.c:92:19
	str	r0, [r1, #100]
	.loc	2 93 1 epilogue_begin is_stmt 1 @ ../../../../Library/StdDriver/src/usci_i2c.c:93:1
	add	sp, #4
	bx	lr
.Ltmp9:
.Lfunc_end2:
	.size	UI2C_ClearTimeoutFlag, .Lfunc_end2-UI2C_ClearTimeoutFlag
	.cfi_endproc
	.cantunwind
	.fnend
                                        @ -- End function
	.section	.text.UI2C_Trigger,"ax",%progbits
	.hidden	UI2C_Trigger                    @ -- Begin function UI2C_Trigger
	.globl	UI2C_Trigger
	.p2align	1
	.type	UI2C_Trigger,%function
	.code	16                              @ @UI2C_Trigger
	.thumb_func
UI2C_Trigger:
.Lfunc_begin3:
	.loc	2 107 0                         @ ../../../../Library/StdDriver/src/usci_i2c.c:107:0
	.fnstart
	.cfi_startproc
@ %bb.0:
	.save	{r4, r5, r7, lr}
	push	{r4, r5, r7, lr}
	.cfi_def_cfa_offset 16
	.cfi_offset lr, -4
	.cfi_offset r7, -8
	.cfi_offset r5, -12
	.cfi_offset r4, -16
	.pad	#28
	sub	sp, #28
	.cfi_def_cfa_offset 44
	mov	r4, r1
	ldr	r1, [sp, #44]
                                        @ kill: def $r5 killed $r3
                                        @ kill: def $r5 killed $r2
                                        @ kill: def $r5 killed $r4
	str	r0, [sp, #24]
	add	r0, sp, #20
	strb	r4, [r0]
	add	r4, sp, #16
	strb	r2, [r4]
	add	r2, sp, #12
	strb	r3, [r2]
	add	r2, sp, #8
	strb	r1, [r2]
	movs	r1, #0
.Ltmp10:
	.loc	2 108 14 prologue_end           @ ../../../../Library/StdDriver/src/usci_i2c.c:108:14
	str	r1, [sp, #4]
	.loc	2 109 23                        @ ../../../../Library/StdDriver/src/usci_i2c.c:109:23
	ldr	r1, [sp, #24]
	.loc	2 109 29 is_stmt 0              @ ../../../../Library/StdDriver/src/usci_i2c.c:109:29
	ldr	r1, [r1, #92]
	movs	r2, #14
	.loc	2 109 37                        @ ../../../../Library/StdDriver/src/usci_i2c.c:109:37
	bics	r1, r2
	.loc	2 109 14                        @ ../../../../Library/StdDriver/src/usci_i2c.c:109:14
	str	r1, [sp]
.Ltmp11:
	.loc	2 111 9 is_stmt 1               @ ../../../../Library/StdDriver/src/usci_i2c.c:111:9
	ldrb	r0, [r0]
.Ltmp12:
	.loc	2 111 9 is_stmt 0               @ ../../../../Library/StdDriver/src/usci_i2c.c:111:9
	cbz	r0, .LBB3_2
	b	.LBB3_1
.LBB3_1:
.Ltmp13:
	.loc	2 113 16 is_stmt 1              @ ../../../../Library/StdDriver/src/usci_i2c.c:113:16
	ldr	r0, [sp, #4]
	movs	r1, #8
	orrs	r0, r1
	str	r0, [sp, #4]
	.loc	2 114 5                         @ ../../../../Library/StdDriver/src/usci_i2c.c:114:5
	b	.LBB3_2
.Ltmp14:
.LBB3_2:
	.loc	2 0 5 is_stmt 0                 @ ../../../../Library/StdDriver/src/usci_i2c.c:0:5
	add	r0, sp, #16
.Ltmp15:
	.loc	2 116 9 is_stmt 1               @ ../../../../Library/StdDriver/src/usci_i2c.c:116:9
	ldrb	r0, [r0]
.Ltmp16:
	.loc	2 116 9 is_stmt 0               @ ../../../../Library/StdDriver/src/usci_i2c.c:116:9
	cbz	r0, .LBB3_4
	b	.LBB3_3
.LBB3_3:
.Ltmp17:
	.loc	2 118 16 is_stmt 1              @ ../../../../Library/StdDriver/src/usci_i2c.c:118:16
	ldr	r0, [sp, #4]
	movs	r1, #4
	orrs	r0, r1
	str	r0, [sp, #4]
	.loc	2 119 5                         @ ../../../../Library/StdDriver/src/usci_i2c.c:119:5
	b	.LBB3_4
.Ltmp18:
.LBB3_4:
	.loc	2 0 5 is_stmt 0                 @ ../../../../Library/StdDriver/src/usci_i2c.c:0:5
	add	r0, sp, #12
.Ltmp19:
	.loc	2 121 9 is_stmt 1               @ ../../../../Library/StdDriver/src/usci_i2c.c:121:9
	ldrb	r0, [r0]
.Ltmp20:
	.loc	2 121 9 is_stmt 0               @ ../../../../Library/StdDriver/src/usci_i2c.c:121:9
	cbz	r0, .LBB3_6
	b	.LBB3_5
.LBB3_5:
.Ltmp21:
	.loc	2 123 16 is_stmt 1              @ ../../../../Library/StdDriver/src/usci_i2c.c:123:16
	ldr	r0, [sp, #4]
	movs	r1, #32
	orrs	r0, r1
	str	r0, [sp, #4]
	.loc	2 124 5                         @ ../../../../Library/StdDriver/src/usci_i2c.c:124:5
	b	.LBB3_6
.Ltmp22:
.LBB3_6:
	.loc	2 0 5 is_stmt 0                 @ ../../../../Library/StdDriver/src/usci_i2c.c:0:5
	add	r0, sp, #8
.Ltmp23:
	.loc	2 126 9 is_stmt 1               @ ../../../../Library/StdDriver/src/usci_i2c.c:126:9
	ldrb	r0, [r0]
.Ltmp24:
	.loc	2 126 9 is_stmt 0               @ ../../../../Library/StdDriver/src/usci_i2c.c:126:9
	cbz	r0, .LBB3_8
	b	.LBB3_7
.LBB3_7:
.Ltmp25:
	.loc	2 128 16 is_stmt 1              @ ../../../../Library/StdDriver/src/usci_i2c.c:128:16
	ldr	r0, [sp, #4]
	movs	r1, #2
	orrs	r0, r1
	str	r0, [sp, #4]
	.loc	2 129 5                         @ ../../../../Library/StdDriver/src/usci_i2c.c:129:5
	b	.LBB3_8
.Ltmp26:
.LBB3_8:
	.loc	2 131 21                        @ ../../../../Library/StdDriver/src/usci_i2c.c:131:21
	ldr	r0, [sp]
	.loc	2 131 30 is_stmt 0              @ ../../../../Library/StdDriver/src/usci_i2c.c:131:30
	ldr	r1, [sp, #4]
	.loc	2 131 28                        @ ../../../../Library/StdDriver/src/usci_i2c.c:131:28
	orrs	r0, r1
	.loc	2 131 5                         @ ../../../../Library/StdDriver/src/usci_i2c.c:131:5
	ldr	r1, [sp, #24]
	.loc	2 131 19                        @ ../../../../Library/StdDriver/src/usci_i2c.c:131:19
	str	r0, [r1, #92]
	.loc	2 132 1 epilogue_begin is_stmt 1 @ ../../../../Library/StdDriver/src/usci_i2c.c:132:1
	add	sp, #28
	pop	{r4, r5, r7, pc}
.Ltmp27:
.Lfunc_end3:
	.size	UI2C_Trigger, .Lfunc_end3-UI2C_Trigger
	.cfi_endproc
	.cantunwind
	.fnend
                                        @ -- End function
	.section	.text.UI2C_DisableInt,"ax",%progbits
	.hidden	UI2C_DisableInt                 @ -- Begin function UI2C_DisableInt
	.globl	UI2C_DisableInt
	.p2align	1
	.type	UI2C_DisableInt,%function
	.code	16                              @ @UI2C_DisableInt
	.thumb_func
UI2C_DisableInt:
.Lfunc_begin4:
	.loc	2 152 0                         @ ../../../../Library/StdDriver/src/usci_i2c.c:152:0
	.fnstart
	.cfi_startproc
@ %bb.0:
	.pad	#8
	sub	sp, #8
	.cfi_def_cfa_offset 8
	str	r0, [sp, #4]
	str	r1, [sp]
	mov	r0, sp
.Ltmp28:
	.loc	2 154 9 prologue_end            @ ../../../../Library/StdDriver/src/usci_i2c.c:154:9
	ldrb	r0, [r0]
	lsls	r0, r0, #31
	cbz	r0, .LBB4_2
	b	.LBB4_1
.LBB4_1:
.Ltmp29:
	.loc	2 156 9                         @ ../../../../Library/StdDriver/src/usci_i2c.c:156:9
	ldr	r1, [sp, #4]
	.loc	2 156 23 is_stmt 0              @ ../../../../Library/StdDriver/src/usci_i2c.c:156:23
	ldr	r0, [r1, #96]
	movs	r2, #1
	bics	r0, r2
	str	r0, [r1, #96]
	.loc	2 157 5 is_stmt 1               @ ../../../../Library/StdDriver/src/usci_i2c.c:157:5
	b	.LBB4_2
.Ltmp30:
.LBB4_2:
	.loc	2 0 5 is_stmt 0                 @ ../../../../Library/StdDriver/src/usci_i2c.c:0:5
	mov	r0, sp
	.loc	2 160 9 is_stmt 1               @ ../../../../Library/StdDriver/src/usci_i2c.c:160:9
	ldrb	r0, [r0]
	lsls	r0, r0, #30
	cmp	r0, #0
	bpl	.LBB4_4
	b	.LBB4_3
.LBB4_3:
.Ltmp31:
	.loc	2 162 9                         @ ../../../../Library/StdDriver/src/usci_i2c.c:162:9
	ldr	r1, [sp, #4]
	.loc	2 162 23 is_stmt 0              @ ../../../../Library/StdDriver/src/usci_i2c.c:162:23
	ldr	r0, [r1, #96]
	movs	r2, #2
	bics	r0, r2
	str	r0, [r1, #96]
	.loc	2 163 5 is_stmt 1               @ ../../../../Library/StdDriver/src/usci_i2c.c:163:5
	b	.LBB4_4
.Ltmp32:
.LBB4_4:
	.loc	2 0 5 is_stmt 0                 @ ../../../../Library/StdDriver/src/usci_i2c.c:0:5
	mov	r0, sp
	.loc	2 166 9 is_stmt 1               @ ../../../../Library/StdDriver/src/usci_i2c.c:166:9
	ldrb	r0, [r0]
	lsls	r0, r0, #29
	cmp	r0, #0
	bpl	.LBB4_6
	b	.LBB4_5
.LBB4_5:
.Ltmp33:
	.loc	2 168 9                         @ ../../../../Library/StdDriver/src/usci_i2c.c:168:9
	ldr	r1, [sp, #4]
	.loc	2 168 23 is_stmt 0              @ ../../../../Library/StdDriver/src/usci_i2c.c:168:23
	ldr	r0, [r1, #96]
	movs	r2, #4
	bics	r0, r2
	str	r0, [r1, #96]
	.loc	2 169 5 is_stmt 1               @ ../../../../Library/StdDriver/src/usci_i2c.c:169:5
	b	.LBB4_6
.Ltmp34:
.LBB4_6:
	.loc	2 0 5 is_stmt 0                 @ ../../../../Library/StdDriver/src/usci_i2c.c:0:5
	mov	r0, sp
	.loc	2 172 9 is_stmt 1               @ ../../../../Library/StdDriver/src/usci_i2c.c:172:9
	ldrb	r0, [r0]
	lsls	r0, r0, #28
	cmp	r0, #0
	bpl	.LBB4_8
	b	.LBB4_7
.LBB4_7:
.Ltmp35:
	.loc	2 174 9                         @ ../../../../Library/StdDriver/src/usci_i2c.c:174:9
	ldr	r1, [sp, #4]
	.loc	2 174 23 is_stmt 0              @ ../../../../Library/StdDriver/src/usci_i2c.c:174:23
	ldr	r0, [r1, #96]
	movs	r2, #8
	bics	r0, r2
	str	r0, [r1, #96]
	.loc	2 175 5 is_stmt 1               @ ../../../../Library/StdDriver/src/usci_i2c.c:175:5
	b	.LBB4_8
.Ltmp36:
.LBB4_8:
	.loc	2 0 5 is_stmt 0                 @ ../../../../Library/StdDriver/src/usci_i2c.c:0:5
	mov	r0, sp
	.loc	2 178 9 is_stmt 1               @ ../../../../Library/StdDriver/src/usci_i2c.c:178:9
	ldrb	r0, [r0]
	lsls	r0, r0, #27
	cmp	r0, #0
	bpl	.LBB4_10
	b	.LBB4_9
.LBB4_9:
.Ltmp37:
	.loc	2 180 9                         @ ../../../../Library/StdDriver/src/usci_i2c.c:180:9
	ldr	r1, [sp, #4]
	.loc	2 180 23 is_stmt 0              @ ../../../../Library/StdDriver/src/usci_i2c.c:180:23
	ldr	r0, [r1, #96]
	movs	r2, #16
	bics	r0, r2
	str	r0, [r1, #96]
	.loc	2 181 5 is_stmt 1               @ ../../../../Library/StdDriver/src/usci_i2c.c:181:5
	b	.LBB4_10
.Ltmp38:
.LBB4_10:
	.loc	2 0 5 is_stmt 0                 @ ../../../../Library/StdDriver/src/usci_i2c.c:0:5
	mov	r0, sp
	.loc	2 184 9 is_stmt 1               @ ../../../../Library/StdDriver/src/usci_i2c.c:184:9
	ldrb	r0, [r0]
	lsls	r0, r0, #26
	cmp	r0, #0
	bpl	.LBB4_12
	b	.LBB4_11
.LBB4_11:
.Ltmp39:
	.loc	2 186 9                         @ ../../../../Library/StdDriver/src/usci_i2c.c:186:9
	ldr	r1, [sp, #4]
	.loc	2 186 23 is_stmt 0              @ ../../../../Library/StdDriver/src/usci_i2c.c:186:23
	ldr	r0, [r1, #96]
	movs	r2, #32
	bics	r0, r2
	str	r0, [r1, #96]
	.loc	2 187 5 is_stmt 1               @ ../../../../Library/StdDriver/src/usci_i2c.c:187:5
	b	.LBB4_12
.Ltmp40:
.LBB4_12:
	.loc	2 0 5 is_stmt 0                 @ ../../../../Library/StdDriver/src/usci_i2c.c:0:5
	mov	r0, sp
	.loc	2 190 9 is_stmt 1               @ ../../../../Library/StdDriver/src/usci_i2c.c:190:9
	ldrb	r0, [r0]
	lsls	r0, r0, #25
	cmp	r0, #0
	bpl	.LBB4_14
	b	.LBB4_13
.LBB4_13:
.Ltmp41:
	.loc	2 192 9                         @ ../../../../Library/StdDriver/src/usci_i2c.c:192:9
	ldr	r1, [sp, #4]
	.loc	2 192 23 is_stmt 0              @ ../../../../Library/StdDriver/src/usci_i2c.c:192:23
	ldr	r0, [r1, #96]
	movs	r2, #64
	bics	r0, r2
	str	r0, [r1, #96]
	.loc	2 193 5 is_stmt 1               @ ../../../../Library/StdDriver/src/usci_i2c.c:193:5
	b	.LBB4_14
.Ltmp42:
.LBB4_14:
	.loc	2 194 1 epilogue_begin          @ ../../../../Library/StdDriver/src/usci_i2c.c:194:1
	add	sp, #8
	bx	lr
.Ltmp43:
.Lfunc_end4:
	.size	UI2C_DisableInt, .Lfunc_end4-UI2C_DisableInt
	.cfi_endproc
	.cantunwind
	.fnend
                                        @ -- End function
	.section	.text.UI2C_EnableInt,"ax",%progbits
	.hidden	UI2C_EnableInt                  @ -- Begin function UI2C_EnableInt
	.globl	UI2C_EnableInt
	.p2align	1
	.type	UI2C_EnableInt,%function
	.code	16                              @ @UI2C_EnableInt
	.thumb_func
UI2C_EnableInt:
.Lfunc_begin5:
	.loc	2 212 0                         @ ../../../../Library/StdDriver/src/usci_i2c.c:212:0
	.fnstart
	.cfi_startproc
@ %bb.0:
	.pad	#8
	sub	sp, #8
	.cfi_def_cfa_offset 8
	str	r0, [sp, #4]
	str	r1, [sp]
	mov	r0, sp
.Ltmp44:
	.loc	2 214 9 prologue_end            @ ../../../../Library/StdDriver/src/usci_i2c.c:214:9
	ldrb	r0, [r0]
	lsls	r0, r0, #31
	cbz	r0, .LBB5_2
	b	.LBB5_1
.LBB5_1:
.Ltmp45:
	.loc	2 216 9                         @ ../../../../Library/StdDriver/src/usci_i2c.c:216:9
	ldr	r1, [sp, #4]
	.loc	2 216 23 is_stmt 0              @ ../../../../Library/StdDriver/src/usci_i2c.c:216:23
	ldr	r0, [r1, #96]
	movs	r2, #1
	orrs	r0, r2
	str	r0, [r1, #96]
	.loc	2 217 5 is_stmt 1               @ ../../../../Library/StdDriver/src/usci_i2c.c:217:5
	b	.LBB5_2
.Ltmp46:
.LBB5_2:
	.loc	2 0 5 is_stmt 0                 @ ../../../../Library/StdDriver/src/usci_i2c.c:0:5
	mov	r0, sp
	.loc	2 220 9 is_stmt 1               @ ../../../../Library/StdDriver/src/usci_i2c.c:220:9
	ldrb	r0, [r0]
	lsls	r0, r0, #30
	cmp	r0, #0
	bpl	.LBB5_4
	b	.LBB5_3
.LBB5_3:
.Ltmp47:
	.loc	2 222 9                         @ ../../../../Library/StdDriver/src/usci_i2c.c:222:9
	ldr	r1, [sp, #4]
	.loc	2 222 23 is_stmt 0              @ ../../../../Library/StdDriver/src/usci_i2c.c:222:23
	ldr	r0, [r1, #96]
	movs	r2, #2
	orrs	r0, r2
	str	r0, [r1, #96]
	.loc	2 223 5 is_stmt 1               @ ../../../../Library/StdDriver/src/usci_i2c.c:223:5
	b	.LBB5_4
.Ltmp48:
.LBB5_4:
	.loc	2 0 5 is_stmt 0                 @ ../../../../Library/StdDriver/src/usci_i2c.c:0:5
	mov	r0, sp
	.loc	2 226 9 is_stmt 1               @ ../../../../Library/StdDriver/src/usci_i2c.c:226:9
	ldrb	r0, [r0]
	lsls	r0, r0, #29
	cmp	r0, #0
	bpl	.LBB5_6
	b	.LBB5_5
.LBB5_5:
.Ltmp49:
	.loc	2 228 9                         @ ../../../../Library/StdDriver/src/usci_i2c.c:228:9
	ldr	r1, [sp, #4]
	.loc	2 228 23 is_stmt 0              @ ../../../../Library/StdDriver/src/usci_i2c.c:228:23
	ldr	r0, [r1, #96]
	movs	r2, #4
	orrs	r0, r2
	str	r0, [r1, #96]
	.loc	2 229 5 is_stmt 1               @ ../../../../Library/StdDriver/src/usci_i2c.c:229:5
	b	.LBB5_6
.Ltmp50:
.LBB5_6:
	.loc	2 0 5 is_stmt 0                 @ ../../../../Library/StdDriver/src/usci_i2c.c:0:5
	mov	r0, sp
	.loc	2 232 9 is_stmt 1               @ ../../../../Library/StdDriver/src/usci_i2c.c:232:9
	ldrb	r0, [r0]
	lsls	r0, r0, #28
	cmp	r0, #0
	bpl	.LBB5_8
	b	.LBB5_7
.LBB5_7:
.Ltmp51:
	.loc	2 234 9                         @ ../../../../Library/StdDriver/src/usci_i2c.c:234:9
	ldr	r1, [sp, #4]
	.loc	2 234 23 is_stmt 0              @ ../../../../Library/StdDriver/src/usci_i2c.c:234:23
	ldr	r0, [r1, #96]
	movs	r2, #8
	orrs	r0, r2
	str	r0, [r1, #96]
	.loc	2 235 5 is_stmt 1               @ ../../../../Library/StdDriver/src/usci_i2c.c:235:5
	b	.LBB5_8
.Ltmp52:
.LBB5_8:
	.loc	2 0 5 is_stmt 0                 @ ../../../../Library/StdDriver/src/usci_i2c.c:0:5
	mov	r0, sp
	.loc	2 238 9 is_stmt 1               @ ../../../../Library/StdDriver/src/usci_i2c.c:238:9
	ldrb	r0, [r0]
	lsls	r0, r0, #27
	cmp	r0, #0
	bpl	.LBB5_10
	b	.LBB5_9
.LBB5_9:
.Ltmp53:
	.loc	2 240 9                         @ ../../../../Library/StdDriver/src/usci_i2c.c:240:9
	ldr	r1, [sp, #4]
	.loc	2 240 23 is_stmt 0              @ ../../../../Library/StdDriver/src/usci_i2c.c:240:23
	ldr	r0, [r1, #96]
	movs	r2, #16
	orrs	r0, r2
	str	r0, [r1, #96]
	.loc	2 241 5 is_stmt 1               @ ../../../../Library/StdDriver/src/usci_i2c.c:241:5
	b	.LBB5_10
.Ltmp54:
.LBB5_10:
	.loc	2 0 5 is_stmt 0                 @ ../../../../Library/StdDriver/src/usci_i2c.c:0:5
	mov	r0, sp
	.loc	2 244 9 is_stmt 1               @ ../../../../Library/StdDriver/src/usci_i2c.c:244:9
	ldrb	r0, [r0]
	lsls	r0, r0, #26
	cmp	r0, #0
	bpl	.LBB5_12
	b	.LBB5_11
.LBB5_11:
.Ltmp55:
	.loc	2 246 9                         @ ../../../../Library/StdDriver/src/usci_i2c.c:246:9
	ldr	r1, [sp, #4]
	.loc	2 246 23 is_stmt 0              @ ../../../../Library/StdDriver/src/usci_i2c.c:246:23
	ldr	r0, [r1, #96]
	movs	r2, #32
	orrs	r0, r2
	str	r0, [r1, #96]
	.loc	2 247 5 is_stmt 1               @ ../../../../Library/StdDriver/src/usci_i2c.c:247:5
	b	.LBB5_12
.Ltmp56:
.LBB5_12:
	.loc	2 0 5 is_stmt 0                 @ ../../../../Library/StdDriver/src/usci_i2c.c:0:5
	mov	r0, sp
	.loc	2 250 9 is_stmt 1               @ ../../../../Library/StdDriver/src/usci_i2c.c:250:9
	ldrb	r0, [r0]
	lsls	r0, r0, #25
	cmp	r0, #0
	bpl	.LBB5_14
	b	.LBB5_13
.LBB5_13:
.Ltmp57:
	.loc	2 252 9                         @ ../../../../Library/StdDriver/src/usci_i2c.c:252:9
	ldr	r1, [sp, #4]
	.loc	2 252 23 is_stmt 0              @ ../../../../Library/StdDriver/src/usci_i2c.c:252:23
	ldr	r0, [r1, #96]
	movs	r2, #64
	orrs	r0, r2
	str	r0, [r1, #96]
	.loc	2 253 5 is_stmt 1               @ ../../../../Library/StdDriver/src/usci_i2c.c:253:5
	b	.LBB5_14
.Ltmp58:
.LBB5_14:
	.loc	2 254 1 epilogue_begin          @ ../../../../Library/StdDriver/src/usci_i2c.c:254:1
	add	sp, #8
	bx	lr
.Ltmp59:
.Lfunc_end5:
	.size	UI2C_EnableInt, .Lfunc_end5-UI2C_EnableInt
	.cfi_endproc
	.cantunwind
	.fnend
                                        @ -- End function
	.section	.text.UI2C_GetBusClockFreq,"ax",%progbits
	.hidden	UI2C_GetBusClockFreq            @ -- Begin function UI2C_GetBusClockFreq
	.globl	UI2C_GetBusClockFreq
	.p2align	2
	.type	UI2C_GetBusClockFreq,%function
	.code	16                              @ @UI2C_GetBusClockFreq
	.thumb_func
UI2C_GetBusClockFreq:
.Lfunc_begin6:
	.loc	2 266 0                         @ ../../../../Library/StdDriver/src/usci_i2c.c:266:0
	.fnstart
	.cfi_startproc
@ %bb.0:
	.save	{r7, lr}
	push	{r7, lr}
	.cfi_def_cfa_offset 8
	.cfi_offset lr, -4
	.cfi_offset r7, -8
	.pad	#16
	sub	sp, #16
	.cfi_def_cfa_offset 24
	str	r0, [sp, #12]
.Ltmp60:
	.loc	2 270 10 prologue_end           @ ../../../../Library/StdDriver/src/usci_i2c.c:270:10
	ldr	r0, [sp, #12]
	ldr	r1, __arm_cp.6_0
	.loc	2 270 25 is_stmt 0              @ ../../../../Library/StdDriver/src/usci_i2c.c:270:25
	cmp	r0, r1
	beq	.LBB6_2
	b	.LBB6_1
.LBB6_1:
	.loc	2 270 29                        @ ../../../../Library/StdDriver/src/usci_i2c.c:270:29
	ldr	r0, [sp, #12]
	ldr	r1, __arm_cp.6_1
.Ltmp61:
	.loc	2 270 9                         @ ../../../../Library/StdDriver/src/usci_i2c.c:270:9
	cmp	r0, r1
	bne	.LBB6_3
	b	.LBB6_2
.LBB6_2:
.Ltmp62:
	.loc	2 272 19 is_stmt 1              @ ../../../../Library/StdDriver/src/usci_i2c.c:272:19
	bl	CLK_GetPCLK0Freq
	.loc	2 272 17 is_stmt 0              @ ../../../../Library/StdDriver/src/usci_i2c.c:272:17
	str	r0, [sp, #4]
	.loc	2 273 5 is_stmt 1               @ ../../../../Library/StdDriver/src/usci_i2c.c:273:5
	b	.LBB6_4
.Ltmp63:
.LBB6_3:
	.loc	2 276 19                        @ ../../../../Library/StdDriver/src/usci_i2c.c:276:19
	bl	CLK_GetPCLK1Freq
	.loc	2 276 17 is_stmt 0              @ ../../../../Library/StdDriver/src/usci_i2c.c:276:17
	str	r0, [sp, #4]
	b	.LBB6_4
.Ltmp64:
.LBB6_4:
	.loc	2 279 19 is_stmt 1              @ ../../../../Library/StdDriver/src/usci_i2c.c:279:19
	ldr	r0, [sp, #12]
	.loc	2 279 25 is_stmt 0              @ ../../../../Library/StdDriver/src/usci_i2c.c:279:25
	ldr	r0, [r0, #8]
	ldr	r1, __arm_cp.6_2
	.loc	2 279 31                        @ ../../../../Library/StdDriver/src/usci_i2c.c:279:31
	ands	r0, r1
	.loc	2 279 56                        @ ../../../../Library/StdDriver/src/usci_i2c.c:279:56
	lsrs	r0, r0, #16
	.loc	2 279 16                        @ ../../../../Library/StdDriver/src/usci_i2c.c:279:16
	str	r0, [sp, #8]
	.loc	2 281 13 is_stmt 1              @ ../../../../Library/StdDriver/src/usci_i2c.c:281:13
	ldr	r0, [sp, #4]
	.loc	2 281 25 is_stmt 0              @ ../../../../Library/StdDriver/src/usci_i2c.c:281:25
	ldr	r1, [sp, #8]
	.loc	2 281 36                        @ ../../../../Library/StdDriver/src/usci_i2c.c:281:36
	lsls	r1, r1, #1
	.loc	2 281 42                        @ ../../../../Library/StdDriver/src/usci_i2c.c:281:42
	adds	r1, r1, #2
	.loc	2 281 21                        @ ../../../../Library/StdDriver/src/usci_i2c.c:281:21
	udiv	r0, r0, r1
	.loc	2 281 5 epilogue_begin          @ ../../../../Library/StdDriver/src/usci_i2c.c:281:5
	add	sp, #16
	pop	{r7, pc}
.Ltmp65:
	.p2align	2
@ %bb.5:
	.loc	2 0 5                           @ ../../../../Library/StdDriver/src/usci_i2c.c:0:5
__arm_cp.6_0:
	.long	1074593792                      @ 0x400d0000
.Lcpi_end3:
	.size	__arm_cp.6_0, .Lcpi_end3-__arm_cp.6_0
__arm_cp.6_1:
	.long	1074601984                      @ 0x400d2000
.Lcpi_end4:
	.size	__arm_cp.6_1, .Lcpi_end4-__arm_cp.6_1
__arm_cp.6_2:
	.long	67043328                        @ 0x3ff0000
.Lcpi_end5:
	.size	__arm_cp.6_2, .Lcpi_end5-__arm_cp.6_2
.Lfunc_end6:
	.size	UI2C_GetBusClockFreq, .Lfunc_end6-UI2C_GetBusClockFreq
	.cfi_endproc
	.cantunwind
	.fnend
                                        @ -- End function
	.section	.text.UI2C_SetBusClockFreq,"ax",%progbits
	.hidden	UI2C_SetBusClockFreq            @ -- Begin function UI2C_SetBusClockFreq
	.globl	UI2C_SetBusClockFreq
	.p2align	2
	.type	UI2C_SetBusClockFreq,%function
	.code	16                              @ @UI2C_SetBusClockFreq
	.thumb_func
UI2C_SetBusClockFreq:
.Lfunc_begin7:
	.loc	2 295 0 is_stmt 1               @ ../../../../Library/StdDriver/src/usci_i2c.c:295:0
	.fnstart
	.cfi_startproc
@ %bb.0:
	.save	{r7, lr}
	push	{r7, lr}
	.cfi_def_cfa_offset 8
	.cfi_offset lr, -4
	.cfi_offset r7, -8
	.pad	#16
	sub	sp, #16
	.cfi_def_cfa_offset 24
	str	r0, [sp, #12]
	str	r1, [sp, #8]
.Ltmp66:
	.loc	2 299 10 prologue_end           @ ../../../../Library/StdDriver/src/usci_i2c.c:299:10
	ldr	r0, [sp, #12]
	ldr	r1, __arm_cp.7_0
	.loc	2 299 25 is_stmt 0              @ ../../../../Library/StdDriver/src/usci_i2c.c:299:25
	cmp	r0, r1
	beq	.LBB7_2
	b	.LBB7_1
.LBB7_1:
	.loc	2 299 29                        @ ../../../../Library/StdDriver/src/usci_i2c.c:299:29
	ldr	r0, [sp, #12]
	ldr	r1, __arm_cp.7_1
.Ltmp67:
	.loc	2 299 9                         @ ../../../../Library/StdDriver/src/usci_i2c.c:299:9
	cmp	r0, r1
	bne	.LBB7_3
	b	.LBB7_2
.LBB7_2:
.Ltmp68:
	.loc	2 301 19 is_stmt 1              @ ../../../../Library/StdDriver/src/usci_i2c.c:301:19
	bl	CLK_GetPCLK0Freq
	.loc	2 301 17 is_stmt 0              @ ../../../../Library/StdDriver/src/usci_i2c.c:301:17
	str	r0, [sp]
	.loc	2 302 5 is_stmt 1               @ ../../../../Library/StdDriver/src/usci_i2c.c:302:5
	b	.LBB7_4
.Ltmp69:
.LBB7_3:
	.loc	2 305 19                        @ ../../../../Library/StdDriver/src/usci_i2c.c:305:19
	bl	CLK_GetPCLK1Freq
	.loc	2 305 17 is_stmt 0              @ ../../../../Library/StdDriver/src/usci_i2c.c:305:17
	str	r0, [sp]
	b	.LBB7_4
.Ltmp70:
.LBB7_4:
	.loc	2 308 33 is_stmt 1              @ ../../../../Library/StdDriver/src/usci_i2c.c:308:33
	ldr	r0, [sp]
	.loc	2 308 41 is_stmt 0              @ ../../../../Library/StdDriver/src/usci_i2c.c:308:41
	lsrs	r2, r0, #1
	movs	r1, #10
	.loc	2 308 47                        @ ../../../../Library/StdDriver/src/usci_i2c.c:308:47
	mov	r0, r1
	muls	r0, r2, r0
	.loc	2 308 57                        @ ../../../../Library/StdDriver/src/usci_i2c.c:308:57
	ldr	r2, [sp, #8]
	.loc	2 308 54                        @ ../../../../Library/StdDriver/src/usci_i2c.c:308:54
	udiv	r0, r0, r2
	.loc	2 308 71                        @ ../../../../Library/StdDriver/src/usci_i2c.c:308:71
	adds	r0, r0, #5
	.loc	2 308 77                        @ ../../../../Library/StdDriver/src/usci_i2c.c:308:77
	udiv	r0, r0, r1
	.loc	2 308 84                        @ ../../../../Library/StdDriver/src/usci_i2c.c:308:84
	subs	r0, r0, #1
	.loc	2 308 15                        @ ../../../../Library/StdDriver/src/usci_i2c.c:308:15
	str	r0, [sp, #4]
	.loc	2 311 5 is_stmt 1               @ ../../../../Library/StdDriver/src/usci_i2c.c:311:5
	ldr	r1, [sp, #12]
	.loc	2 311 17 is_stmt 0              @ ../../../../Library/StdDriver/src/usci_i2c.c:311:17
	ldr	r0, [r1, #8]
	ldr	r2, __arm_cp.7_2
	ands	r0, r2
	str	r0, [r1, #8]
	.loc	2 312 21 is_stmt 1              @ ../../../../Library/StdDriver/src/usci_i2c.c:312:21
	ldr	r0, [sp, #4]
	.loc	2 312 31 is_stmt 0              @ ../../../../Library/StdDriver/src/usci_i2c.c:312:31
	lsls	r2, r0, #16
	.loc	2 312 5                         @ ../../../../Library/StdDriver/src/usci_i2c.c:312:5
	ldr	r1, [sp, #12]
	.loc	2 312 17                        @ ../../../../Library/StdDriver/src/usci_i2c.c:312:17
	ldr	r0, [r1, #8]
	orrs	r0, r2
	str	r0, [r1, #8]
	.loc	2 314 13 is_stmt 1              @ ../../../../Library/StdDriver/src/usci_i2c.c:314:13
	ldr	r0, [sp]
	.loc	2 314 25 is_stmt 0              @ ../../../../Library/StdDriver/src/usci_i2c.c:314:25
	ldr	r1, [sp, #4]
	.loc	2 314 35                        @ ../../../../Library/StdDriver/src/usci_i2c.c:314:35
	lsls	r1, r1, #1
	.loc	2 314 41                        @ ../../../../Library/StdDriver/src/usci_i2c.c:314:41
	adds	r1, r1, #2
	.loc	2 314 21                        @ ../../../../Library/StdDriver/src/usci_i2c.c:314:21
	udiv	r0, r0, r1
	.loc	2 314 5 epilogue_begin          @ ../../../../Library/StdDriver/src/usci_i2c.c:314:5
	add	sp, #16
	pop	{r7, pc}
.Ltmp71:
	.p2align	2
@ %bb.5:
	.loc	2 0 5                           @ ../../../../Library/StdDriver/src/usci_i2c.c:0:5
__arm_cp.7_0:
	.long	1074593792                      @ 0x400d0000
.Lcpi_end6:
	.size	__arm_cp.7_0, .Lcpi_end6-__arm_cp.7_0
__arm_cp.7_1:
	.long	1074601984                      @ 0x400d2000
.Lcpi_end7:
	.size	__arm_cp.7_1, .Lcpi_end7-__arm_cp.7_1
__arm_cp.7_2:
	.long	4227923967                      @ 0xfc00ffff
.Lcpi_end8:
	.size	__arm_cp.7_2, .Lcpi_end8-__arm_cp.7_2
.Lfunc_end7:
	.size	UI2C_SetBusClockFreq, .Lfunc_end7-UI2C_SetBusClockFreq
	.cfi_endproc
	.cantunwind
	.fnend
                                        @ -- End function
	.section	.text.UI2C_GetIntFlag,"ax",%progbits
	.hidden	UI2C_GetIntFlag                 @ -- Begin function UI2C_GetIntFlag
	.globl	UI2C_GetIntFlag
	.p2align	1
	.type	UI2C_GetIntFlag,%function
	.code	16                              @ @UI2C_GetIntFlag
	.thumb_func
UI2C_GetIntFlag:
.Lfunc_begin8:
	.loc	2 337 0 is_stmt 1               @ ../../../../Library/StdDriver/src/usci_i2c.c:337:0
	.fnstart
	.cfi_startproc
@ %bb.0:
	.pad	#16
	sub	sp, #16
	.cfi_def_cfa_offset 16
	str	r0, [sp, #12]
	str	r1, [sp, #8]
	movs	r0, #0
.Ltmp72:
	.loc	2 338 14 prologue_end           @ ../../../../Library/StdDriver/src/usci_i2c.c:338:14
	str	r0, [sp, #4]
	.loc	2 341 19                        @ ../../../../Library/StdDriver/src/usci_i2c.c:341:19
	ldr	r0, [sp, #12]
	.loc	2 341 25 is_stmt 0              @ ../../../../Library/StdDriver/src/usci_i2c.c:341:25
	ldr	r0, [r0, #100]
	movs	r1, #32
	.loc	2 341 33                        @ ../../../../Library/StdDriver/src/usci_i2c.c:341:33
	ands	r0, r1
	.loc	2 341 17                        @ ../../../../Library/StdDriver/src/usci_i2c.c:341:17
	str	r0, [sp]
	add	r0, sp, #8
.Ltmp73:
	.loc	2 344 38 is_stmt 1              @ ../../../../Library/StdDriver/src/usci_i2c.c:344:38
	ldrb	r0, [r0]
	lsls	r0, r0, #31
	cbz	r0, .LBB8_3
	b	.LBB8_1
.LBB8_1:
	.loc	2 344 42 is_stmt 0              @ ../../../../Library/StdDriver/src/usci_i2c.c:344:42
	ldr	r0, [sp]
.Ltmp74:
	.loc	2 344 9                         @ ../../../../Library/StdDriver/src/usci_i2c.c:344:9
	cbz	r0, .LBB8_3
	b	.LBB8_2
.LBB8_2:
.Ltmp75:
	.loc	2 346 20 is_stmt 1              @ ../../../../Library/StdDriver/src/usci_i2c.c:346:20
	ldr	r0, [sp, #4]
	movs	r1, #1
	orrs	r0, r1
	str	r0, [sp, #4]
	.loc	2 347 5                         @ ../../../../Library/StdDriver/src/usci_i2c.c:347:5
	b	.LBB8_3
.Ltmp76:
.LBB8_3:
	.loc	2 349 19                        @ ../../../../Library/StdDriver/src/usci_i2c.c:349:19
	ldr	r0, [sp, #12]
	.loc	2 349 25 is_stmt 0              @ ../../../../Library/StdDriver/src/usci_i2c.c:349:25
	ldr	r0, [r0, #100]
	movw	r1, #256
	.loc	2 349 33                        @ ../../../../Library/StdDriver/src/usci_i2c.c:349:33
	ands	r0, r1
	.loc	2 349 17                        @ ../../../../Library/StdDriver/src/usci_i2c.c:349:17
	str	r0, [sp]
	add	r0, sp, #8
.Ltmp77:
	.loc	2 352 40 is_stmt 1              @ ../../../../Library/StdDriver/src/usci_i2c.c:352:40
	ldrb	r0, [r0]
	lsls	r0, r0, #30
	cmp	r0, #0
	bpl	.LBB8_6
	b	.LBB8_4
.LBB8_4:
	.loc	2 352 44 is_stmt 0              @ ../../../../Library/StdDriver/src/usci_i2c.c:352:44
	ldr	r0, [sp]
.Ltmp78:
	.loc	2 352 9                         @ ../../../../Library/StdDriver/src/usci_i2c.c:352:9
	cbz	r0, .LBB8_6
	b	.LBB8_5
.LBB8_5:
.Ltmp79:
	.loc	2 354 20 is_stmt 1              @ ../../../../Library/StdDriver/src/usci_i2c.c:354:20
	ldr	r0, [sp, #4]
	movs	r1, #2
	orrs	r0, r1
	str	r0, [sp, #4]
	.loc	2 355 5                         @ ../../../../Library/StdDriver/src/usci_i2c.c:355:5
	b	.LBB8_6
.Ltmp80:
.LBB8_6:
	.loc	2 357 19                        @ ../../../../Library/StdDriver/src/usci_i2c.c:357:19
	ldr	r0, [sp, #12]
	.loc	2 357 25 is_stmt 0              @ ../../../../Library/StdDriver/src/usci_i2c.c:357:25
	ldr	r0, [r0, #100]
	movw	r1, #512
	.loc	2 357 33                        @ ../../../../Library/StdDriver/src/usci_i2c.c:357:33
	ands	r0, r1
	.loc	2 357 17                        @ ../../../../Library/StdDriver/src/usci_i2c.c:357:17
	str	r0, [sp]
	add	r0, sp, #8
.Ltmp81:
	.loc	2 360 40 is_stmt 1              @ ../../../../Library/StdDriver/src/usci_i2c.c:360:40
	ldrb	r0, [r0]
	lsls	r0, r0, #29
	cmp	r0, #0
	bpl	.LBB8_9
	b	.LBB8_7
.LBB8_7:
	.loc	2 360 44 is_stmt 0              @ ../../../../Library/StdDriver/src/usci_i2c.c:360:44
	ldr	r0, [sp]
.Ltmp82:
	.loc	2 360 9                         @ ../../../../Library/StdDriver/src/usci_i2c.c:360:9
	cbz	r0, .LBB8_9
	b	.LBB8_8
.LBB8_8:
.Ltmp83:
	.loc	2 362 20 is_stmt 1              @ ../../../../Library/StdDriver/src/usci_i2c.c:362:20
	ldr	r0, [sp, #4]
	movs	r1, #4
	orrs	r0, r1
	str	r0, [sp, #4]
	.loc	2 363 5                         @ ../../../../Library/StdDriver/src/usci_i2c.c:363:5
	b	.LBB8_9
.Ltmp84:
.LBB8_9:
	.loc	2 365 19                        @ ../../../../Library/StdDriver/src/usci_i2c.c:365:19
	ldr	r0, [sp, #12]
	.loc	2 365 25 is_stmt 0              @ ../../../../Library/StdDriver/src/usci_i2c.c:365:25
	ldr	r0, [r0, #100]
	movw	r1, #1024
	.loc	2 365 33                        @ ../../../../Library/StdDriver/src/usci_i2c.c:365:33
	ands	r0, r1
	.loc	2 365 17                        @ ../../../../Library/StdDriver/src/usci_i2c.c:365:17
	str	r0, [sp]
	add	r0, sp, #8
.Ltmp85:
	.loc	2 368 40 is_stmt 1              @ ../../../../Library/StdDriver/src/usci_i2c.c:368:40
	ldrb	r0, [r0]
	lsls	r0, r0, #28
	cmp	r0, #0
	bpl	.LBB8_12
	b	.LBB8_10
.LBB8_10:
	.loc	2 368 44 is_stmt 0              @ ../../../../Library/StdDriver/src/usci_i2c.c:368:44
	ldr	r0, [sp]
.Ltmp86:
	.loc	2 368 9                         @ ../../../../Library/StdDriver/src/usci_i2c.c:368:9
	cbz	r0, .LBB8_12
	b	.LBB8_11
.LBB8_11:
.Ltmp87:
	.loc	2 370 20 is_stmt 1              @ ../../../../Library/StdDriver/src/usci_i2c.c:370:20
	ldr	r0, [sp, #4]
	movs	r1, #8
	orrs	r0, r1
	str	r0, [sp, #4]
	.loc	2 371 5                         @ ../../../../Library/StdDriver/src/usci_i2c.c:371:5
	b	.LBB8_12
.Ltmp88:
.LBB8_12:
	.loc	2 373 19                        @ ../../../../Library/StdDriver/src/usci_i2c.c:373:19
	ldr	r0, [sp, #12]
	.loc	2 373 25 is_stmt 0              @ ../../../../Library/StdDriver/src/usci_i2c.c:373:25
	ldr	r0, [r0, #100]
	movw	r1, #2048
	.loc	2 373 33                        @ ../../../../Library/StdDriver/src/usci_i2c.c:373:33
	ands	r0, r1
	.loc	2 373 17                        @ ../../../../Library/StdDriver/src/usci_i2c.c:373:17
	str	r0, [sp]
	add	r0, sp, #8
.Ltmp89:
	.loc	2 376 41 is_stmt 1              @ ../../../../Library/StdDriver/src/usci_i2c.c:376:41
	ldrb	r0, [r0]
	lsls	r0, r0, #27
	cmp	r0, #0
	bpl	.LBB8_15
	b	.LBB8_13
.LBB8_13:
	.loc	2 376 45 is_stmt 0              @ ../../../../Library/StdDriver/src/usci_i2c.c:376:45
	ldr	r0, [sp]
.Ltmp90:
	.loc	2 376 9                         @ ../../../../Library/StdDriver/src/usci_i2c.c:376:9
	cbz	r0, .LBB8_15
	b	.LBB8_14
.LBB8_14:
.Ltmp91:
	.loc	2 378 20 is_stmt 1              @ ../../../../Library/StdDriver/src/usci_i2c.c:378:20
	ldr	r0, [sp, #4]
	movs	r1, #16
	orrs	r0, r1
	str	r0, [sp, #4]
	.loc	2 379 5                         @ ../../../../Library/StdDriver/src/usci_i2c.c:379:5
	b	.LBB8_15
.Ltmp92:
.LBB8_15:
	.loc	2 381 19                        @ ../../../../Library/StdDriver/src/usci_i2c.c:381:19
	ldr	r0, [sp, #12]
	.loc	2 381 25 is_stmt 0              @ ../../../../Library/StdDriver/src/usci_i2c.c:381:25
	ldr	r0, [r0, #100]
	movw	r1, #4096
	.loc	2 381 33                        @ ../../../../Library/StdDriver/src/usci_i2c.c:381:33
	ands	r0, r1
	.loc	2 381 17                        @ ../../../../Library/StdDriver/src/usci_i2c.c:381:17
	str	r0, [sp]
	add	r0, sp, #8
.Ltmp93:
	.loc	2 384 39 is_stmt 1              @ ../../../../Library/StdDriver/src/usci_i2c.c:384:39
	ldrb	r0, [r0]
	lsls	r0, r0, #26
	cmp	r0, #0
	bpl	.LBB8_18
	b	.LBB8_16
.LBB8_16:
	.loc	2 384 43 is_stmt 0              @ ../../../../Library/StdDriver/src/usci_i2c.c:384:43
	ldr	r0, [sp]
.Ltmp94:
	.loc	2 384 9                         @ ../../../../Library/StdDriver/src/usci_i2c.c:384:9
	cbz	r0, .LBB8_18
	b	.LBB8_17
.LBB8_17:
.Ltmp95:
	.loc	2 386 20 is_stmt 1              @ ../../../../Library/StdDriver/src/usci_i2c.c:386:20
	ldr	r0, [sp, #4]
	movs	r1, #32
	orrs	r0, r1
	str	r0, [sp, #4]
	.loc	2 387 5                         @ ../../../../Library/StdDriver/src/usci_i2c.c:387:5
	b	.LBB8_18
.Ltmp96:
.LBB8_18:
	.loc	2 389 19                        @ ../../../../Library/StdDriver/src/usci_i2c.c:389:19
	ldr	r0, [sp, #12]
	.loc	2 389 25 is_stmt 0              @ ../../../../Library/StdDriver/src/usci_i2c.c:389:25
	ldr	r0, [r0, #100]
	movw	r1, #8192
	.loc	2 389 33                        @ ../../../../Library/StdDriver/src/usci_i2c.c:389:33
	ands	r0, r1
	.loc	2 389 17                        @ ../../../../Library/StdDriver/src/usci_i2c.c:389:17
	str	r0, [sp]
	add	r0, sp, #8
.Ltmp97:
	.loc	2 392 39 is_stmt 1              @ ../../../../Library/StdDriver/src/usci_i2c.c:392:39
	ldrb	r0, [r0]
	lsls	r0, r0, #25
	cmp	r0, #0
	bpl	.LBB8_21
	b	.LBB8_19
.LBB8_19:
	.loc	2 392 43 is_stmt 0              @ ../../../../Library/StdDriver/src/usci_i2c.c:392:43
	ldr	r0, [sp]
.Ltmp98:
	.loc	2 392 9                         @ ../../../../Library/StdDriver/src/usci_i2c.c:392:9
	cbz	r0, .LBB8_21
	b	.LBB8_20
.LBB8_20:
.Ltmp99:
	.loc	2 394 20 is_stmt 1              @ ../../../../Library/StdDriver/src/usci_i2c.c:394:20
	ldr	r0, [sp, #4]
	movs	r1, #64
	orrs	r0, r1
	str	r0, [sp, #4]
	.loc	2 395 5                         @ ../../../../Library/StdDriver/src/usci_i2c.c:395:5
	b	.LBB8_21
.Ltmp100:
.LBB8_21:
	.loc	2 397 12                        @ ../../../../Library/StdDriver/src/usci_i2c.c:397:12
	ldr	r0, [sp, #4]
	.loc	2 397 5 epilogue_begin is_stmt 0 @ ../../../../Library/StdDriver/src/usci_i2c.c:397:5
	add	sp, #16
	bx	lr
.Ltmp101:
.Lfunc_end8:
	.size	UI2C_GetIntFlag, .Lfunc_end8-UI2C_GetIntFlag
	.cfi_endproc
	.cantunwind
	.fnend
                                        @ -- End function
	.section	.text.UI2C_ClearIntFlag,"ax",%progbits
	.hidden	UI2C_ClearIntFlag               @ -- Begin function UI2C_ClearIntFlag
	.globl	UI2C_ClearIntFlag
	.p2align	1
	.type	UI2C_ClearIntFlag,%function
	.code	16                              @ @UI2C_ClearIntFlag
	.thumb_func
UI2C_ClearIntFlag:
.Lfunc_begin9:
	.loc	2 417 0 is_stmt 1               @ ../../../../Library/StdDriver/src/usci_i2c.c:417:0
	.fnstart
	.cfi_startproc
@ %bb.0:
	.pad	#8
	sub	sp, #8
	.cfi_def_cfa_offset 8
	str	r0, [sp, #4]
	str	r1, [sp]
	mov	r0, sp
.Ltmp102:
	.loc	2 419 9 prologue_end            @ ../../../../Library/StdDriver/src/usci_i2c.c:419:9
	ldrb	r0, [r0]
	lsls	r0, r0, #31
	cbz	r0, .LBB9_2
	b	.LBB9_1
.LBB9_1:
.Ltmp103:
	.loc	2 421 9                         @ ../../../../Library/StdDriver/src/usci_i2c.c:421:9
	ldr	r1, [sp, #4]
	movs	r0, #32
	.loc	2 421 23 is_stmt 0              @ ../../../../Library/StdDriver/src/usci_i2c.c:421:23
	str	r0, [r1, #100]
	.loc	2 422 5 is_stmt 1               @ ../../../../Library/StdDriver/src/usci_i2c.c:422:5
	b	.LBB9_2
.Ltmp104:
.LBB9_2:
	.loc	2 0 5 is_stmt 0                 @ ../../../../Library/StdDriver/src/usci_i2c.c:0:5
	mov	r0, sp
	.loc	2 425 9 is_stmt 1               @ ../../../../Library/StdDriver/src/usci_i2c.c:425:9
	ldrb	r0, [r0]
	lsls	r0, r0, #30
	cmp	r0, #0
	bpl	.LBB9_4
	b	.LBB9_3
.LBB9_3:
.Ltmp105:
	.loc	2 427 9                         @ ../../../../Library/StdDriver/src/usci_i2c.c:427:9
	ldr	r1, [sp, #4]
	movw	r0, #256
	.loc	2 427 23 is_stmt 0              @ ../../../../Library/StdDriver/src/usci_i2c.c:427:23
	str	r0, [r1, #100]
	.loc	2 428 5 is_stmt 1               @ ../../../../Library/StdDriver/src/usci_i2c.c:428:5
	b	.LBB9_4
.Ltmp106:
.LBB9_4:
	.loc	2 0 5 is_stmt 0                 @ ../../../../Library/StdDriver/src/usci_i2c.c:0:5
	mov	r0, sp
	.loc	2 431 9 is_stmt 1               @ ../../../../Library/StdDriver/src/usci_i2c.c:431:9
	ldrb	r0, [r0]
	lsls	r0, r0, #29
	cmp	r0, #0
	bpl	.LBB9_6
	b	.LBB9_5
.LBB9_5:
.Ltmp107:
	.loc	2 433 9                         @ ../../../../Library/StdDriver/src/usci_i2c.c:433:9
	ldr	r1, [sp, #4]
	movw	r0, #512
	.loc	2 433 23 is_stmt 0              @ ../../../../Library/StdDriver/src/usci_i2c.c:433:23
	str	r0, [r1, #100]
	.loc	2 434 5 is_stmt 1               @ ../../../../Library/StdDriver/src/usci_i2c.c:434:5
	b	.LBB9_6
.Ltmp108:
.LBB9_6:
	.loc	2 0 5 is_stmt 0                 @ ../../../../Library/StdDriver/src/usci_i2c.c:0:5
	mov	r0, sp
	.loc	2 437 9 is_stmt 1               @ ../../../../Library/StdDriver/src/usci_i2c.c:437:9
	ldrb	r0, [r0]
	lsls	r0, r0, #28
	cmp	r0, #0
	bpl	.LBB9_8
	b	.LBB9_7
.LBB9_7:
.Ltmp109:
	.loc	2 439 9                         @ ../../../../Library/StdDriver/src/usci_i2c.c:439:9
	ldr	r1, [sp, #4]
	movw	r0, #1024
	.loc	2 439 23 is_stmt 0              @ ../../../../Library/StdDriver/src/usci_i2c.c:439:23
	str	r0, [r1, #100]
	.loc	2 440 5 is_stmt 1               @ ../../../../Library/StdDriver/src/usci_i2c.c:440:5
	b	.LBB9_8
.Ltmp110:
.LBB9_8:
	.loc	2 0 5 is_stmt 0                 @ ../../../../Library/StdDriver/src/usci_i2c.c:0:5
	mov	r0, sp
	.loc	2 443 9 is_stmt 1               @ ../../../../Library/StdDriver/src/usci_i2c.c:443:9
	ldrb	r0, [r0]
	lsls	r0, r0, #27
	cmp	r0, #0
	bpl	.LBB9_10
	b	.LBB9_9
.LBB9_9:
.Ltmp111:
	.loc	2 445 9                         @ ../../../../Library/StdDriver/src/usci_i2c.c:445:9
	ldr	r1, [sp, #4]
	movw	r0, #2048
	.loc	2 445 23 is_stmt 0              @ ../../../../Library/StdDriver/src/usci_i2c.c:445:23
	str	r0, [r1, #100]
	.loc	2 446 5 is_stmt 1               @ ../../../../Library/StdDriver/src/usci_i2c.c:446:5
	b	.LBB9_10
.Ltmp112:
.LBB9_10:
	.loc	2 0 5 is_stmt 0                 @ ../../../../Library/StdDriver/src/usci_i2c.c:0:5
	mov	r0, sp
	.loc	2 449 9 is_stmt 1               @ ../../../../Library/StdDriver/src/usci_i2c.c:449:9
	ldrb	r0, [r0]
	lsls	r0, r0, #26
	cmp	r0, #0
	bpl	.LBB9_12
	b	.LBB9_11
.LBB9_11:
.Ltmp113:
	.loc	2 451 9                         @ ../../../../Library/StdDriver/src/usci_i2c.c:451:9
	ldr	r1, [sp, #4]
	movw	r0, #4096
	.loc	2 451 23 is_stmt 0              @ ../../../../Library/StdDriver/src/usci_i2c.c:451:23
	str	r0, [r1, #100]
	.loc	2 452 5 is_stmt 1               @ ../../../../Library/StdDriver/src/usci_i2c.c:452:5
	b	.LBB9_12
.Ltmp114:
.LBB9_12:
	.loc	2 0 5 is_stmt 0                 @ ../../../../Library/StdDriver/src/usci_i2c.c:0:5
	mov	r0, sp
	.loc	2 455 9 is_stmt 1               @ ../../../../Library/StdDriver/src/usci_i2c.c:455:9
	ldrb	r0, [r0]
	lsls	r0, r0, #25
	cmp	r0, #0
	bpl	.LBB9_14
	b	.LBB9_13
.LBB9_13:
.Ltmp115:
	.loc	2 457 9                         @ ../../../../Library/StdDriver/src/usci_i2c.c:457:9
	ldr	r1, [sp, #4]
	movw	r0, #8192
	.loc	2 457 23 is_stmt 0              @ ../../../../Library/StdDriver/src/usci_i2c.c:457:23
	str	r0, [r1, #100]
	.loc	2 458 5 is_stmt 1               @ ../../../../Library/StdDriver/src/usci_i2c.c:458:5
	b	.LBB9_14
.Ltmp116:
.LBB9_14:
	.loc	2 459 1 epilogue_begin          @ ../../../../Library/StdDriver/src/usci_i2c.c:459:1
	add	sp, #8
	bx	lr
.Ltmp117:
.Lfunc_end9:
	.size	UI2C_ClearIntFlag, .Lfunc_end9-UI2C_ClearIntFlag
	.cfi_endproc
	.cantunwind
	.fnend
                                        @ -- End function
	.section	.text.UI2C_GetData,"ax",%progbits
	.hidden	UI2C_GetData                    @ -- Begin function UI2C_GetData
	.globl	UI2C_GetData
	.p2align	1
	.type	UI2C_GetData,%function
	.code	16                              @ @UI2C_GetData
	.thumb_func
UI2C_GetData:
.Lfunc_begin10:
	.loc	2 471 0                         @ ../../../../Library/StdDriver/src/usci_i2c.c:471:0
	.fnstart
	.cfi_startproc
@ %bb.0:
	.pad	#4
	sub	sp, #4
	.cfi_def_cfa_offset 4
	str	r0, [sp]
.Ltmp118:
	.loc	2 472 13 prologue_end           @ ../../../../Library/StdDriver/src/usci_i2c.c:472:13
	ldr	r0, [sp]
	.loc	2 472 19 is_stmt 0              @ ../../../../Library/StdDriver/src/usci_i2c.c:472:19
	ldr	r0, [r0, #52]
	.loc	2 472 5 epilogue_begin          @ ../../../../Library/StdDriver/src/usci_i2c.c:472:5
	add	sp, #4
	bx	lr
.Ltmp119:
.Lfunc_end10:
	.size	UI2C_GetData, .Lfunc_end10-UI2C_GetData
	.cfi_endproc
	.cantunwind
	.fnend
                                        @ -- End function
	.section	.text.UI2C_SetData,"ax",%progbits
	.hidden	UI2C_SetData                    @ -- Begin function UI2C_SetData
	.globl	UI2C_SetData
	.p2align	1
	.type	UI2C_SetData,%function
	.code	16                              @ @UI2C_SetData
	.thumb_func
UI2C_SetData:
.Lfunc_begin11:
	.loc	2 484 0 is_stmt 1               @ ../../../../Library/StdDriver/src/usci_i2c.c:484:0
	.fnstart
	.cfi_startproc
@ %bb.0:
	.pad	#8
	sub	sp, #8
	.cfi_def_cfa_offset 8
                                        @ kill: def $r2 killed $r1
	str	r0, [sp, #4]
	mov	r0, sp
	strb	r1, [r0]
.Ltmp120:
	.loc	2 485 19 prologue_end           @ ../../../../Library/StdDriver/src/usci_i2c.c:485:19
	ldrb	r0, [r0]
	.loc	2 485 5 is_stmt 0               @ ../../../../Library/StdDriver/src/usci_i2c.c:485:5
	ldr	r1, [sp, #4]
	.loc	2 485 17                        @ ../../../../Library/StdDriver/src/usci_i2c.c:485:17
	str	r0, [r1, #48]
	.loc	2 486 1 epilogue_begin is_stmt 1 @ ../../../../Library/StdDriver/src/usci_i2c.c:486:1
	add	sp, #8
	bx	lr
.Ltmp121:
.Lfunc_end11:
	.size	UI2C_SetData, .Lfunc_end11-UI2C_SetData
	.cfi_endproc
	.cantunwind
	.fnend
                                        @ -- End function
	.section	.text.UI2C_SetSlaveAddr,"ax",%progbits
	.hidden	UI2C_SetSlaveAddr               @ -- Begin function UI2C_SetSlaveAddr
	.globl	UI2C_SetSlaveAddr
	.p2align	1
	.type	UI2C_SetSlaveAddr,%function
	.code	16                              @ @UI2C_SetSlaveAddr
	.thumb_func
UI2C_SetSlaveAddr:
.Lfunc_begin12:
	.loc	2 501 0                         @ ../../../../Library/StdDriver/src/usci_i2c.c:501:0
	.fnstart
	.cfi_startproc
@ %bb.0:
	.save	{r4, lr}
	push	{r4, lr}
	.cfi_def_cfa_offset 8
	.cfi_offset lr, -4
	.cfi_offset r4, -8
	.pad	#16
	sub	sp, #16
	.cfi_def_cfa_offset 24
                                        @ kill: def $r4 killed $r3
                                        @ kill: def $r4 killed $r2
                                        @ kill: def $r4 killed $r1
	str	r0, [sp, #12]
	add	r0, sp, #8
	strb	r1, [r0]
	add	r1, sp, #4
	strh	r2, [r1]
	mov	r1, sp
	strb	r3, [r1]
.Ltmp122:
	.loc	2 502 9 prologue_end            @ ../../../../Library/StdDriver/src/usci_i2c.c:502:9
	ldrb	r0, [r0]
.Ltmp123:
	.loc	2 502 9 is_stmt 0               @ ../../../../Library/StdDriver/src/usci_i2c.c:502:9
	cbz	r0, .LBB12_2
	b	.LBB12_1
.LBB12_1:
	.loc	2 0 9                           @ ../../../../Library/StdDriver/src/usci_i2c.c:0:9
	add	r0, sp, #4
.Ltmp124:
	.loc	2 504 27 is_stmt 1              @ ../../../../Library/StdDriver/src/usci_i2c.c:504:27
	ldrh	r0, [r0]
	.loc	2 504 9 is_stmt 0               @ ../../../../Library/StdDriver/src/usci_i2c.c:504:9
	ldr	r1, [sp, #12]
	.loc	2 504 25                        @ ../../../../Library/StdDriver/src/usci_i2c.c:504:25
	str	r0, [r1, #72]
	.loc	2 505 5 is_stmt 1               @ ../../../../Library/StdDriver/src/usci_i2c.c:505:5
	b	.LBB12_3
.Ltmp125:
.LBB12_2:
	.loc	2 0 5 is_stmt 0                 @ ../../../../Library/StdDriver/src/usci_i2c.c:0:5
	add	r0, sp, #4
.Ltmp126:
	.loc	2 508 27 is_stmt 1              @ ../../../../Library/StdDriver/src/usci_i2c.c:508:27
	ldrh	r0, [r0]
	.loc	2 508 9 is_stmt 0               @ ../../../../Library/StdDriver/src/usci_i2c.c:508:9
	ldr	r1, [sp, #12]
	.loc	2 508 25                        @ ../../../../Library/StdDriver/src/usci_i2c.c:508:25
	str	r0, [r1, #68]
	b	.LBB12_3
.Ltmp127:
.LBB12_3:
	.loc	2 511 23 is_stmt 1              @ ../../../../Library/StdDriver/src/usci_i2c.c:511:23
	ldr	r0, [sp, #12]
	.loc	2 511 29 is_stmt 0              @ ../../../../Library/StdDriver/src/usci_i2c.c:511:29
	ldr	r0, [r0, #92]
	movs	r1, #1
	.loc	2 511 37                        @ ../../../../Library/StdDriver/src/usci_i2c.c:511:37
	bics	r0, r1
	mov	r1, sp
	.loc	2 511 67                        @ ../../../../Library/StdDriver/src/usci_i2c.c:511:67
	ldrb	r1, [r1]
	.loc	2 511 65                        @ ../../../../Library/StdDriver/src/usci_i2c.c:511:65
	orrs	r0, r1
	.loc	2 511 5                         @ ../../../../Library/StdDriver/src/usci_i2c.c:511:5
	ldr	r1, [sp, #12]
	.loc	2 511 20                        @ ../../../../Library/StdDriver/src/usci_i2c.c:511:20
	str	r0, [r1, #92]
	.loc	2 512 1 epilogue_begin is_stmt 1 @ ../../../../Library/StdDriver/src/usci_i2c.c:512:1
	add	sp, #16
	pop	{r4, pc}
.Ltmp128:
.Lfunc_end12:
	.size	UI2C_SetSlaveAddr, .Lfunc_end12-UI2C_SetSlaveAddr
	.cfi_endproc
	.cantunwind
	.fnend
                                        @ -- End function
	.section	.text.UI2C_SetSlaveAddrMask,"ax",%progbits
	.hidden	UI2C_SetSlaveAddrMask           @ -- Begin function UI2C_SetSlaveAddrMask
	.globl	UI2C_SetSlaveAddrMask
	.p2align	1
	.type	UI2C_SetSlaveAddrMask,%function
	.code	16                              @ @UI2C_SetSlaveAddrMask
	.thumb_func
UI2C_SetSlaveAddrMask:
.Lfunc_begin13:
	.loc	2 526 0                         @ ../../../../Library/StdDriver/src/usci_i2c.c:526:0
	.fnstart
	.cfi_startproc
@ %bb.0:
	.pad	#12
	sub	sp, #12
	.cfi_def_cfa_offset 12
                                        @ kill: def $r3 killed $r2
                                        @ kill: def $r3 killed $r1
	str	r0, [sp, #8]
	add	r0, sp, #4
	strb	r1, [r0]
	mov	r1, sp
	strh	r2, [r1]
.Ltmp129:
	.loc	2 527 9 prologue_end            @ ../../../../Library/StdDriver/src/usci_i2c.c:527:9
	ldrb	r0, [r0]
.Ltmp130:
	.loc	2 527 9 is_stmt 0               @ ../../../../Library/StdDriver/src/usci_i2c.c:527:9
	cbz	r0, .LBB13_2
	b	.LBB13_1
.LBB13_1:
	.loc	2 0 9                           @ ../../../../Library/StdDriver/src/usci_i2c.c:0:9
	mov	r0, sp
.Ltmp131:
	.loc	2 529 27 is_stmt 1              @ ../../../../Library/StdDriver/src/usci_i2c.c:529:27
	ldrh	r0, [r0]
	.loc	2 529 9 is_stmt 0               @ ../../../../Library/StdDriver/src/usci_i2c.c:529:9
	ldr	r1, [sp, #8]
	.loc	2 529 25                        @ ../../../../Library/StdDriver/src/usci_i2c.c:529:25
	str	r0, [r1, #80]
	.loc	2 530 5 is_stmt 1               @ ../../../../Library/StdDriver/src/usci_i2c.c:530:5
	b	.LBB13_3
.Ltmp132:
.LBB13_2:
	.loc	2 0 5 is_stmt 0                 @ ../../../../Library/StdDriver/src/usci_i2c.c:0:5
	mov	r0, sp
.Ltmp133:
	.loc	2 533 27 is_stmt 1              @ ../../../../Library/StdDriver/src/usci_i2c.c:533:27
	ldrh	r0, [r0]
	.loc	2 533 9 is_stmt 0               @ ../../../../Library/StdDriver/src/usci_i2c.c:533:9
	ldr	r1, [sp, #8]
	.loc	2 533 25                        @ ../../../../Library/StdDriver/src/usci_i2c.c:533:25
	str	r0, [r1, #76]
	b	.LBB13_3
.Ltmp134:
.LBB13_3:
	.loc	2 535 1 epilogue_begin is_stmt 1 @ ../../../../Library/StdDriver/src/usci_i2c.c:535:1
	add	sp, #12
	bx	lr
.Ltmp135:
.Lfunc_end13:
	.size	UI2C_SetSlaveAddrMask, .Lfunc_end13-UI2C_SetSlaveAddrMask
	.cfi_endproc
	.cantunwind
	.fnend
                                        @ -- End function
	.section	.text.UI2C_EnableTimeout,"ax",%progbits
	.hidden	UI2C_EnableTimeout              @ -- Begin function UI2C_EnableTimeout
	.globl	UI2C_EnableTimeout
	.p2align	2
	.type	UI2C_EnableTimeout,%function
	.code	16                              @ @UI2C_EnableTimeout
	.thumb_func
UI2C_EnableTimeout:
.Lfunc_begin14:
	.loc	2 546 0                         @ ../../../../Library/StdDriver/src/usci_i2c.c:546:0
	.fnstart
	.cfi_startproc
@ %bb.0:
	.pad	#8
	sub	sp, #8
	.cfi_def_cfa_offset 8
	str	r0, [sp, #4]
	str	r1, [sp]
.Ltmp136:
	.loc	2 547 22 prologue_end           @ ../../../../Library/StdDriver/src/usci_i2c.c:547:22
	ldr	r0, [sp, #4]
	.loc	2 547 28 is_stmt 0              @ ../../../../Library/StdDriver/src/usci_i2c.c:547:28
	ldr	r0, [r0, #92]
	ldr	r1, __arm_cp.14_0
	.loc	2 547 36                        @ ../../../../Library/StdDriver/src/usci_i2c.c:547:36
	ands	r0, r1
	.loc	2 547 66                        @ ../../../../Library/StdDriver/src/usci_i2c.c:547:66
	ldr	r1, [sp]
	.loc	2 547 80                        @ ../../../../Library/StdDriver/src/usci_i2c.c:547:80
	lsls	r1, r1, #16
	.loc	2 547 63                        @ ../../../../Library/StdDriver/src/usci_i2c.c:547:63
	orrs	r0, r1
	.loc	2 547 5                         @ ../../../../Library/StdDriver/src/usci_i2c.c:547:5
	ldr	r1, [sp, #4]
	.loc	2 547 19                        @ ../../../../Library/StdDriver/src/usci_i2c.c:547:19
	str	r0, [r1, #92]
	.loc	2 548 20 is_stmt 1              @ ../../../../Library/StdDriver/src/usci_i2c.c:548:20
	ldr	r0, [sp, #4]
	.loc	2 548 26 is_stmt 0              @ ../../../../Library/StdDriver/src/usci_i2c.c:548:26
	ldr	r0, [r0, #8]
	movs	r1, #16
	.loc	2 548 32                        @ ../../../../Library/StdDriver/src/usci_i2c.c:548:32
	orrs	r0, r1
	movs	r1, #32
	.loc	2 548 60                        @ ../../../../Library/StdDriver/src/usci_i2c.c:548:60
	bics	r0, r1
	.loc	2 548 5                         @ ../../../../Library/StdDriver/src/usci_i2c.c:548:5
	ldr	r1, [sp, #4]
	.loc	2 548 17                        @ ../../../../Library/StdDriver/src/usci_i2c.c:548:17
	str	r0, [r1, #8]
	.loc	2 549 1 epilogue_begin is_stmt 1 @ ../../../../Library/StdDriver/src/usci_i2c.c:549:1
	add	sp, #8
	bx	lr
.Ltmp137:
	.p2align	2
@ %bb.1:
	.loc	2 0 1 is_stmt 0                 @ ../../../../Library/StdDriver/src/usci_i2c.c:0:1
__arm_cp.14_0:
	.long	4227923967                      @ 0xfc00ffff
.Lcpi_end9:
	.size	__arm_cp.14_0, .Lcpi_end9-__arm_cp.14_0
.Lfunc_end14:
	.size	UI2C_EnableTimeout, .Lfunc_end14-UI2C_EnableTimeout
	.cfi_endproc
	.cantunwind
	.fnend
                                        @ -- End function
	.section	.text.UI2C_DisableTimeout,"ax",%progbits
	.hidden	UI2C_DisableTimeout             @ -- Begin function UI2C_DisableTimeout
	.globl	UI2C_DisableTimeout
	.p2align	2
	.type	UI2C_DisableTimeout,%function
	.code	16                              @ @UI2C_DisableTimeout
	.thumb_func
UI2C_DisableTimeout:
.Lfunc_begin15:
	.loc	2 559 0 is_stmt 1               @ ../../../../Library/StdDriver/src/usci_i2c.c:559:0
	.fnstart
	.cfi_startproc
@ %bb.0:
	.pad	#4
	sub	sp, #4
	.cfi_def_cfa_offset 4
	str	r0, [sp]
.Ltmp138:
	.loc	2 560 5 prologue_end            @ ../../../../Library/StdDriver/src/usci_i2c.c:560:5
	ldr	r1, [sp]
	.loc	2 560 19 is_stmt 0              @ ../../../../Library/StdDriver/src/usci_i2c.c:560:19
	ldr	r0, [r1, #92]
	ldr	r2, __arm_cp.15_0
	ands	r0, r2
	str	r0, [r1, #92]
	.loc	2 561 5 is_stmt 1               @ ../../../../Library/StdDriver/src/usci_i2c.c:561:5
	ldr	r1, [sp]
	.loc	2 561 17 is_stmt 0              @ ../../../../Library/StdDriver/src/usci_i2c.c:561:17
	ldr	r0, [r1, #8]
	movs	r2, #16
	bics	r0, r2
	str	r0, [r1, #8]
	.loc	2 562 1 epilogue_begin is_stmt 1 @ ../../../../Library/StdDriver/src/usci_i2c.c:562:1
	add	sp, #4
	bx	lr
.Ltmp139:
	.p2align	2
@ %bb.1:
	.loc	2 0 1 is_stmt 0                 @ ../../../../Library/StdDriver/src/usci_i2c.c:0:1
__arm_cp.15_0:
	.long	4227923967                      @ 0xfc00ffff
.Lcpi_end10:
	.size	__arm_cp.15_0, .Lcpi_end10-__arm_cp.15_0
.Lfunc_end15:
	.size	UI2C_DisableTimeout, .Lfunc_end15-UI2C_DisableTimeout
	.cfi_endproc
	.cantunwind
	.fnend
                                        @ -- End function
	.section	.text.UI2C_EnableWakeup,"ax",%progbits
	.hidden	UI2C_EnableWakeup               @ -- Begin function UI2C_EnableWakeup
	.globl	UI2C_EnableWakeup
	.p2align	1
	.type	UI2C_EnableWakeup,%function
	.code	16                              @ @UI2C_EnableWakeup
	.thumb_func
UI2C_EnableWakeup:
.Lfunc_begin16:
	.loc	2 575 0 is_stmt 1               @ ../../../../Library/StdDriver/src/usci_i2c.c:575:0
	.fnstart
	.cfi_startproc
@ %bb.0:
	.pad	#8
	sub	sp, #8
	.cfi_def_cfa_offset 8
                                        @ kill: def $r2 killed $r1
	str	r0, [sp, #4]
	mov	r0, sp
	strb	r1, [r0]
.Ltmp140:
	.loc	2 576 20 prologue_end           @ ../../../../Library/StdDriver/src/usci_i2c.c:576:20
	ldr	r1, [sp, #4]
	.loc	2 576 26 is_stmt 0              @ ../../../../Library/StdDriver/src/usci_i2c.c:576:26
	ldr	r1, [r1, #84]
	movs	r2, #2
	.loc	2 576 32                        @ ../../../../Library/StdDriver/src/usci_i2c.c:576:32
	bics	r1, r2
	.loc	2 576 63                        @ ../../../../Library/StdDriver/src/usci_i2c.c:576:63
	ldrb	r0, [r0]
	.loc	2 576 76                        @ ../../../../Library/StdDriver/src/usci_i2c.c:576:76
	orrs	r0, r1
	movs	r1, #1
	.loc	2 576 60                        @ ../../../../Library/StdDriver/src/usci_i2c.c:576:60
	orrs	r0, r1
	.loc	2 576 5                         @ ../../../../Library/StdDriver/src/usci_i2c.c:576:5
	ldr	r1, [sp, #4]
	.loc	2 576 17                        @ ../../../../Library/StdDriver/src/usci_i2c.c:576:17
	str	r0, [r1, #84]
	.loc	2 577 1 epilogue_begin is_stmt 1 @ ../../../../Library/StdDriver/src/usci_i2c.c:577:1
	add	sp, #8
	bx	lr
.Ltmp141:
.Lfunc_end16:
	.size	UI2C_EnableWakeup, .Lfunc_end16-UI2C_EnableWakeup
	.cfi_endproc
	.cantunwind
	.fnend
                                        @ -- End function
	.section	.text.UI2C_DisableWakeup,"ax",%progbits
	.hidden	UI2C_DisableWakeup              @ -- Begin function UI2C_DisableWakeup
	.globl	UI2C_DisableWakeup
	.p2align	1
	.type	UI2C_DisableWakeup,%function
	.code	16                              @ @UI2C_DisableWakeup
	.thumb_func
UI2C_DisableWakeup:
.Lfunc_begin17:
	.loc	2 587 0                         @ ../../../../Library/StdDriver/src/usci_i2c.c:587:0
	.fnstart
	.cfi_startproc
@ %bb.0:
	.pad	#4
	sub	sp, #4
	.cfi_def_cfa_offset 4
	str	r0, [sp]
.Ltmp142:
	.loc	2 588 5 prologue_end            @ ../../../../Library/StdDriver/src/usci_i2c.c:588:5
	ldr	r1, [sp]
	.loc	2 588 17 is_stmt 0              @ ../../../../Library/StdDriver/src/usci_i2c.c:588:17
	ldr	r0, [r1, #84]
	movs	r2, #1
	bics	r0, r2
	str	r0, [r1, #84]
	.loc	2 589 1 epilogue_begin is_stmt 1 @ ../../../../Library/StdDriver/src/usci_i2c.c:589:1
	add	sp, #4
	bx	lr
.Ltmp143:
.Lfunc_end17:
	.size	UI2C_DisableWakeup, .Lfunc_end17-UI2C_DisableWakeup
	.cfi_endproc
	.cantunwind
	.fnend
                                        @ -- End function
	.section	.text.UI2C_WriteByte,"ax",%progbits
	.hidden	UI2C_WriteByte                  @ -- Begin function UI2C_WriteByte
	.globl	UI2C_WriteByte
	.p2align	1
	.type	UI2C_WriteByte,%function
	.code	16                              @ @UI2C_WriteByte
	.thumb_func
UI2C_WriteByte:
.Lfunc_begin18:
	.loc	2 608 0                         @ ../../../../Library/StdDriver/src/usci_i2c.c:608:0
	.fnstart
	.cfi_startproc
@ %bb.0:
	.save	{r7, lr}
	push	{r7, lr}
	.cfi_def_cfa_offset 8
	.cfi_offset lr, -4
	.cfi_offset r7, -8
	.pad	#24
	sub	sp, #24
	.cfi_def_cfa_offset 32
	str	r2, [sp]                        @ 4-byte Spill
	mov	r2, r1
	mov	r1, r0
	ldr	r0, [sp]                        @ 4-byte Reload
                                        @ kill: def $r3 killed $r0
                                        @ kill: def $r3 killed $r2
	str	r1, [sp, #16]
	add	r1, sp, #12
	strb	r2, [r1]
	add	r2, sp, #8
	strb	r0, [r2]
.Ltmp144:
	.loc	2 609 46 prologue_end           @ ../../../../Library/StdDriver/src/usci_i2c.c:609:46
	ldr	r0, [sp, #16]
	.loc	2 609 52 is_stmt 0              @ ../../../../Library/StdDriver/src/usci_i2c.c:609:52
	ldrb	r1, [r1]
	movs	r3, #1
	.loc	2 609 25                        @ ../../../../Library/StdDriver/src/usci_i2c.c:609:25
	bl	UI2C_WriteMultiBytes
	.loc	2 609 14                        @ ../../../../Library/StdDriver/src/usci_i2c.c:609:14
	str	r0, [sp, #4]
.Ltmp145:
	.loc	2 611 9 is_stmt 1               @ ../../../../Library/StdDriver/src/usci_i2c.c:611:9
	ldr	r0, [sp, #4]
.Ltmp146:
	.loc	2 611 9 is_stmt 0               @ ../../../../Library/StdDriver/src/usci_i2c.c:611:9
	cmp	r0, #1
	bne	.LBB18_2
	b	.LBB18_1
.LBB18_1:
	.loc	2 0 9                           @ ../../../../Library/StdDriver/src/usci_i2c.c:0:9
	add	r1, sp, #20
	movs	r0, #0
.Ltmp147:
	.loc	2 613 9 is_stmt 1               @ ../../../../Library/StdDriver/src/usci_i2c.c:613:9
	strb	r0, [r1]
	b	.LBB18_3
.Ltmp148:
.LBB18_2:
	.loc	2 0 9 is_stmt 0                 @ ../../../../Library/StdDriver/src/usci_i2c.c:0:9
	add	r1, sp, #20
	movs	r0, #1
.Ltmp149:
	.loc	2 617 9 is_stmt 1               @ ../../../../Library/StdDriver/src/usci_i2c.c:617:9
	strb	r0, [r1]
	b	.LBB18_3
.Ltmp150:
.LBB18_3:
	.loc	2 0 9 is_stmt 0                 @ ../../../../Library/StdDriver/src/usci_i2c.c:0:9
	add	r0, sp, #20
	.loc	2 619 1 is_stmt 1               @ ../../../../Library/StdDriver/src/usci_i2c.c:619:1
	ldrb	r0, [r0]
	.loc	2 619 1 epilogue_begin is_stmt 0 @ ../../../../Library/StdDriver/src/usci_i2c.c:619:1
	add	sp, #24
	pop	{r7, pc}
.Ltmp151:
.Lfunc_end18:
	.size	UI2C_WriteByte, .Lfunc_end18-UI2C_WriteByte
	.cfi_endproc
	.cantunwind
	.fnend
                                        @ -- End function
	.section	.text.UI2C_WriteMultiBytes,"ax",%progbits
	.hidden	UI2C_WriteMultiBytes            @ -- Begin function UI2C_WriteMultiBytes
	.globl	UI2C_WriteMultiBytes
	.p2align	2
	.type	UI2C_WriteMultiBytes,%function
	.code	16                              @ @UI2C_WriteMultiBytes
	.thumb_func
UI2C_WriteMultiBytes:
.Lfunc_begin19:
	.loc	2 638 0 is_stmt 1               @ ../../../../Library/StdDriver/src/usci_i2c.c:638:0
	.fnstart
	.cfi_startproc
@ %bb.0:
	.save	{r4, lr}
	push	{r4, lr}
	.cfi_def_cfa_offset 8
	.cfi_offset lr, -4
	.cfi_offset r4, -8
	.pad	#44
	sub	sp, #44
	.cfi_def_cfa_offset 52
                                        @ kill: def $r4 killed $r1
	str	r0, [sp, #40]
	add	r0, sp, #36
	strb	r1, [r0]
	str	r2, [sp, #32]
	str	r3, [sp, #28]
	add	r1, sp, #24
	movs	r0, #1
.Ltmp152:
	.loc	2 639 13 prologue_end           @ ../../../../Library/StdDriver/src/usci_i2c.c:639:13
	strb	r0, [r1]
	add	r1, sp, #20
	movs	r0, #0
	.loc	2 639 29 is_stmt 0              @ ../../../../Library/StdDriver/src/usci_i2c.c:639:29
	strb	r0, [r1]
	add	r1, sp, #16
	.loc	2 639 41                        @ ../../../../Library/StdDriver/src/usci_i2c.c:639:41
	strb	r0, [r1]
	.loc	2 640 14 is_stmt 1              @ ../../../../Library/StdDriver/src/usci_i2c.c:640:14
	str	r0, [sp, #12]
	.loc	2 640 29 is_stmt 0              @ ../../../../Library/StdDriver/src/usci_i2c.c:640:29
	str	r0, [sp, #8]
	.loc	2 642 23 is_stmt 1              @ ../../../../Library/StdDriver/src/usci_i2c.c:642:23
	ldr	r1, __arm_cp.19_0
	str	r0, [r1]
	.loc	2 644 5                         @ ../../../../Library/StdDriver/src/usci_i2c.c:644:5
	ldr	r0, [sp, #40]
	ldr	r0, [r0, #92]
	movs	r1, #8
	orrs	r0, r1
	movs	r1, #32
	bics	r0, r1
	ldr	r1, [sp, #40]
	str	r0, [r1, #92]
	.loc	2 646 5                         @ ../../../../Library/StdDriver/src/usci_i2c.c:646:5
	b	.LBB19_1
.LBB19_1:                               @ =>This Loop Header: Depth=1
                                        @     Child Loop BB19_5 Depth 2
	.loc	2 0 5 is_stmt 0                 @ ../../../../Library/StdDriver/src/usci_i2c.c:0:5
	add	r0, sp, #24
	.loc	2 646 12                        @ ../../../../Library/StdDriver/src/usci_i2c.c:646:12
	ldrb	r1, [r0]
	movs	r0, #0
	.loc	2 646 22                        @ ../../../../Library/StdDriver/src/usci_i2c.c:646:22
	str	r0, [sp, #4]                    @ 4-byte Spill
	cbz	r1, .LBB19_3
	b	.LBB19_2
.LBB19_2:                               @   in Loop: Header=BB19_1 Depth=1
	.loc	2 0 22                          @ ../../../../Library/StdDriver/src/usci_i2c.c:0:22
	add	r0, sp, #20
	.loc	2 646 26                        @ ../../../../Library/StdDriver/src/usci_i2c.c:646:26
	ldrb	r0, [r0]
	.loc	2 646 32                        @ ../../../../Library/StdDriver/src/usci_i2c.c:646:32
	rsbs	r1, r0, #0
	adcs	r0, r1
	str	r0, [sp, #4]                    @ 4-byte Spill
	b	.LBB19_3
.LBB19_3:                               @   in Loop: Header=BB19_1 Depth=1
	.loc	2 0 0                           @ ../../../../Library/StdDriver/src/usci_i2c.c:0:0
	ldr	r0, [sp, #4]                    @ 4-byte Reload
	.loc	2 646 5                         @ ../../../../Library/StdDriver/src/usci_i2c.c:646:5
	lsls	r0, r0, #31
	cbnz	r0, .LBB19_4
	b	.LBB19_24
.LBB19_4:                               @   in Loop: Header=BB19_1 Depth=1
.Ltmp153:
	.loc	2 648 27 is_stmt 1              @ ../../../../Library/StdDriver/src/usci_i2c.c:648:27
	ldr	r0, __arm_cp.19_1
	ldr	r0, [r0]
	.loc	2 648 25 is_stmt 0              @ ../../../../Library/StdDriver/src/usci_i2c.c:648:25
	str	r0, [sp, #8]
	.loc	2 650 9 is_stmt 1               @ ../../../../Library/StdDriver/src/usci_i2c.c:650:9
	b	.LBB19_5
.LBB19_5:                               @   Parent Loop BB19_1 Depth=1
                                        @ =>  This Inner Loop Header: Depth=2
	.loc	2 650 18 is_stmt 0              @ ../../../../Library/StdDriver/src/usci_i2c.c:650:18
	ldr	r0, [sp, #40]
	ldr	r0, [r0, #100]
	.loc	2 650 9                         @ ../../../../Library/StdDriver/src/usci_i2c.c:650:9
	lsls	r0, r0, #18
	lsrs	r0, r0, #26
	cbnz	r0, .LBB19_9
	b	.LBB19_6
.LBB19_6:                               @   in Loop: Header=BB19_5 Depth=2
.Ltmp154:
	.loc	2 652 17 is_stmt 1              @ ../../../../Library/StdDriver/src/usci_i2c.c:652:17
	ldr	r0, [sp, #8]
	subs	r0, r0, #1
	str	r0, [sp, #8]
.Ltmp155:
	.loc	2 652 17 is_stmt 0              @ ../../../../Library/StdDriver/src/usci_i2c.c:652:17
	cbnz	r0, .LBB19_8
	b	.LBB19_7
.LBB19_7:                               @   in Loop: Header=BB19_1 Depth=1
.Ltmp156:
	.loc	2 654 35 is_stmt 1              @ ../../../../Library/StdDriver/src/usci_i2c.c:654:35
	ldr	r1, __arm_cp.19_0
	movs	r0, #1
	mvns	r0, r0
	str	r0, [r1]
	.loc	2 655 17                        @ ../../../../Library/StdDriver/src/usci_i2c.c:655:17
	b	.LBB19_9
.Ltmp157:
.LBB19_8:                               @   in Loop: Header=BB19_5 Depth=2
	.loc	2 650 9                         @ ../../../../Library/StdDriver/src/usci_i2c.c:650:9
	b	.LBB19_5
.LBB19_9:                               @   in Loop: Header=BB19_1 Depth=1
	.loc	2 659 17                        @ ../../../../Library/StdDriver/src/usci_i2c.c:659:17
	ldr	r0, [sp, #40]
	ldr	r0, [r0, #100]
	movw	r1, #16128
	.loc	2 659 44 is_stmt 0              @ ../../../../Library/StdDriver/src/usci_i2c.c:659:44
	ands	r0, r1
	str	r0, [sp]                        @ 4-byte Spill
	movw	r1, #256
	.loc	2 659 9                         @ ../../../../Library/StdDriver/src/usci_i2c.c:659:9
	cmp	r0, r1
	beq	.LBB19_14
	b	.LBB19_10
.LBB19_10:                              @   in Loop: Header=BB19_1 Depth=1
	.loc	2 0 9                           @ ../../../../Library/StdDriver/src/usci_i2c.c:0:9
	ldr	r0, [sp]                        @ 4-byte Reload
	movw	r1, #512
	.loc	2 659 9                         @ ../../../../Library/StdDriver/src/usci_i2c.c:659:9
	cmp	r0, r1
	beq	.LBB19_20
	b	.LBB19_11
.LBB19_11:                              @   in Loop: Header=BB19_1 Depth=1
	.loc	2 0 9                           @ ../../../../Library/StdDriver/src/usci_i2c.c:0:9
	ldr	r0, [sp]                        @ 4-byte Reload
	movw	r1, #1024
	.loc	2 659 9                         @ ../../../../Library/StdDriver/src/usci_i2c.c:659:9
	cmp	r0, r1
	beq	.LBB19_19
	b	.LBB19_12
.LBB19_12:                              @   in Loop: Header=BB19_1 Depth=1
	.loc	2 0 9                           @ ../../../../Library/StdDriver/src/usci_i2c.c:0:9
	ldr	r0, [sp]                        @ 4-byte Reload
	movw	r1, #2048
	.loc	2 659 9                         @ ../../../../Library/StdDriver/src/usci_i2c.c:659:9
	cmp	r0, r1
	beq	.LBB19_21
	b	.LBB19_13
.LBB19_13:                              @   in Loop: Header=BB19_1 Depth=1
	.loc	2 0 9                           @ ../../../../Library/StdDriver/src/usci_i2c.c:0:9
	ldr	r0, [sp]                        @ 4-byte Reload
	movw	r1, #8192
	.loc	2 659 9                         @ ../../../../Library/StdDriver/src/usci_i2c.c:659:9
	cmp	r0, r1
	beq	.LBB19_15
	b	.LBB19_22
.LBB19_14:                              @   in Loop: Header=BB19_1 Depth=1
.Ltmp158:
	.loc	2 662 17 is_stmt 1              @ ../../../../Library/StdDriver/src/usci_i2c.c:662:17
	ldr	r1, [sp, #40]
	movw	r0, #256
	str	r0, [r1, #100]
	add	r0, sp, #36
	.loc	2 663 17                        @ ../../../../Library/StdDriver/src/usci_i2c.c:663:17
	ldrb	r0, [r0]
	lsls	r0, r0, #1
	ldr	r1, [sp, #40]
	str	r0, [r1, #48]
	add	r1, sp, #16
	movs	r0, #32
	.loc	2 664 24                        @ ../../../../Library/StdDriver/src/usci_i2c.c:664:24
	strb	r0, [r1]
	.loc	2 665 17                        @ ../../../../Library/StdDriver/src/usci_i2c.c:665:17
	b	.LBB19_23
.LBB19_15:                              @   in Loop: Header=BB19_1 Depth=1
	.loc	2 668 17                        @ ../../../../Library/StdDriver/src/usci_i2c.c:668:17
	ldr	r1, [sp, #40]
	movw	r0, #8192
	str	r0, [r1, #100]
.Ltmp159:
	.loc	2 670 21                        @ ../../../../Library/StdDriver/src/usci_i2c.c:670:21
	ldr	r0, [sp, #12]
	.loc	2 670 32 is_stmt 0              @ ../../../../Library/StdDriver/src/usci_i2c.c:670:32
	ldr	r1, [sp, #28]
.Ltmp160:
	.loc	2 670 21                        @ ../../../../Library/StdDriver/src/usci_i2c.c:670:21
	cmp	r0, r1
	bhs	.LBB19_17
	b	.LBB19_16
.LBB19_16:                              @   in Loop: Header=BB19_1 Depth=1
.Ltmp161:
	.loc	2 672 21 is_stmt 1              @ ../../../../Library/StdDriver/src/usci_i2c.c:672:21
	ldr	r0, [sp, #32]
	ldr	r1, [sp, #12]
	adds	r2, r1, #1
	str	r2, [sp, #12]
	ldrb	r0, [r0, r1]
	ldr	r1, [sp, #40]
	str	r0, [r1, #48]
	.loc	2 673 17                        @ ../../../../Library/StdDriver/src/usci_i2c.c:673:17
	b	.LBB19_18
.Ltmp162:
.LBB19_17:                              @   in Loop: Header=BB19_1 Depth=1
	.loc	2 0 17 is_stmt 0                @ ../../../../Library/StdDriver/src/usci_i2c.c:0:17
	add	r1, sp, #16
	movs	r0, #36
.Ltmp163:
	.loc	2 676 28 is_stmt 1              @ ../../../../Library/StdDriver/src/usci_i2c.c:676:28
	strb	r0, [r1]
	b	.LBB19_18
.Ltmp164:
.LBB19_18:                              @   in Loop: Header=BB19_1 Depth=1
	.loc	2 679 17                        @ ../../../../Library/StdDriver/src/usci_i2c.c:679:17
	b	.LBB19_23
.LBB19_19:                              @   in Loop: Header=BB19_1 Depth=1
	.loc	2 682 17                        @ ../../../../Library/StdDriver/src/usci_i2c.c:682:17
	ldr	r1, [sp, #40]
	movw	r0, #1024
	str	r0, [r1, #100]
	add	r1, sp, #16
	movs	r0, #36
	.loc	2 683 24                        @ ../../../../Library/StdDriver/src/usci_i2c.c:683:24
	strb	r0, [r1]
	add	r1, sp, #20
	movs	r0, #1
	.loc	2 684 23                        @ ../../../../Library/StdDriver/src/usci_i2c.c:684:23
	strb	r0, [r1]
	.loc	2 685 17                        @ ../../../../Library/StdDriver/src/usci_i2c.c:685:17
	b	.LBB19_23
.LBB19_20:                              @   in Loop: Header=BB19_1 Depth=1
	.loc	2 688 17                        @ ../../../../Library/StdDriver/src/usci_i2c.c:688:17
	ldr	r1, [sp, #40]
	movw	r0, #512
	str	r0, [r1, #100]
	add	r1, sp, #16
	movs	r0, #32
	.loc	2 689 24                        @ ../../../../Library/StdDriver/src/usci_i2c.c:689:24
	strb	r0, [r1]
	add	r1, sp, #24
	movs	r0, #0
	.loc	2 690 27                        @ ../../../../Library/StdDriver/src/usci_i2c.c:690:27
	strb	r0, [r1]
	.loc	2 691 17                        @ ../../../../Library/StdDriver/src/usci_i2c.c:691:17
	b	.LBB19_23
.LBB19_21:                              @   in Loop: Header=BB19_1 Depth=1
	.loc	2 693 13                        @ ../../../../Library/StdDriver/src/usci_i2c.c:693:13
	b	.LBB19_22
.LBB19_22:                              @   in Loop: Header=BB19_1 Depth=1
	.loc	2 0 13 is_stmt 0                @ ../../../../Library/StdDriver/src/usci_i2c.c:0:13
	add	r1, sp, #16
	movs	r0, #36
	.loc	2 695 24 is_stmt 1              @ ../../../../Library/StdDriver/src/usci_i2c.c:695:24
	strb	r0, [r1]
	add	r1, sp, #20
	movs	r0, #1
	.loc	2 696 23                        @ ../../../../Library/StdDriver/src/usci_i2c.c:696:23
	strb	r0, [r1]
	.loc	2 697 17                        @ ../../../../Library/StdDriver/src/usci_i2c.c:697:17
	b	.LBB19_23
.Ltmp165:
.LBB19_23:                              @   in Loop: Header=BB19_1 Depth=1
	.loc	2 700 9                         @ ../../../../Library/StdDriver/src/usci_i2c.c:700:9
	ldr	r0, [sp, #40]
	ldr	r0, [r0, #92]
	movs	r1, #46
	bics	r0, r1
	add	r1, sp, #16
	ldrb	r1, [r1]
	orrs	r0, r1
	ldr	r1, [sp, #40]
	str	r0, [r1, #92]
.Ltmp166:
	.loc	2 646 5                         @ ../../../../Library/StdDriver/src/usci_i2c.c:646:5
	b	.LBB19_1
.LBB19_24:
	.loc	2 703 12                        @ ../../../../Library/StdDriver/src/usci_i2c.c:703:12
	ldr	r0, [sp, #12]
	.loc	2 703 5 epilogue_begin is_stmt 0 @ ../../../../Library/StdDriver/src/usci_i2c.c:703:5
	add	sp, #44
	pop	{r4, pc}
.Ltmp167:
	.p2align	2
@ %bb.25:
	.loc	2 0 5                           @ ../../../../Library/StdDriver/src/usci_i2c.c:0:5
__arm_cp.19_0:
	.long	g_UI2C_i32ErrCode
.Lcpi_end11:
	.size	__arm_cp.19_0, .Lcpi_end11-__arm_cp.19_0
__arm_cp.19_1:
	.long	SystemCoreClock
.Lcpi_end12:
	.size	__arm_cp.19_1, .Lcpi_end12-__arm_cp.19_1
.Lfunc_end19:
	.size	UI2C_WriteMultiBytes, .Lfunc_end19-UI2C_WriteMultiBytes
	.cfi_endproc
	.cantunwind
	.fnend
                                        @ -- End function
	.section	.text.UI2C_WriteByteOneReg,"ax",%progbits
	.hidden	UI2C_WriteByteOneReg            @ -- Begin function UI2C_WriteByteOneReg
	.globl	UI2C_WriteByteOneReg
	.p2align	1
	.type	UI2C_WriteByteOneReg,%function
	.code	16                              @ @UI2C_WriteByteOneReg
	.thumb_func
UI2C_WriteByteOneReg:
.Lfunc_begin20:
	.loc	2 724 0 is_stmt 1               @ ../../../../Library/StdDriver/src/usci_i2c.c:724:0
	.fnstart
	.cfi_startproc
@ %bb.0:
	.save	{r4, lr}
	push	{r4, lr}
	.cfi_def_cfa_offset 8
	.cfi_offset lr, -4
	.cfi_offset r4, -8
	.pad	#32
	sub	sp, #32
	.cfi_def_cfa_offset 40
	str	r3, [sp, #4]                    @ 4-byte Spill
	mov	r3, r2
	mov	r2, r1
	mov	r1, r0
	ldr	r0, [sp, #4]                    @ 4-byte Reload
                                        @ kill: def $r4 killed $r0
                                        @ kill: def $r4 killed $r3
                                        @ kill: def $r4 killed $r2
	str	r1, [sp, #24]
	add	r1, sp, #20
	strb	r2, [r1]
	add	r2, sp, #16
	strb	r3, [r2]
	add	r3, sp, #12
	strb	r0, [r3]
.Ltmp168:
	.loc	2 725 52 prologue_end           @ ../../../../Library/StdDriver/src/usci_i2c.c:725:52
	ldr	r0, [sp, #24]
	.loc	2 725 58 is_stmt 0              @ ../../../../Library/StdDriver/src/usci_i2c.c:725:58
	ldrb	r1, [r1]
	.loc	2 725 71                        @ ../../../../Library/StdDriver/src/usci_i2c.c:725:71
	ldrb	r2, [r2]
	movs	r4, #1
	.loc	2 725 25                        @ ../../../../Library/StdDriver/src/usci_i2c.c:725:25
	str	r4, [sp]
	bl	UI2C_WriteMultiBytesOneReg
	.loc	2 725 14                        @ ../../../../Library/StdDriver/src/usci_i2c.c:725:14
	str	r0, [sp, #8]
.Ltmp169:
	.loc	2 727 9 is_stmt 1               @ ../../../../Library/StdDriver/src/usci_i2c.c:727:9
	ldr	r0, [sp, #8]
.Ltmp170:
	.loc	2 727 9 is_stmt 0               @ ../../../../Library/StdDriver/src/usci_i2c.c:727:9
	cmp	r0, #1
	bne	.LBB20_2
	b	.LBB20_1
.LBB20_1:
	.loc	2 0 9                           @ ../../../../Library/StdDriver/src/usci_i2c.c:0:9
	add	r1, sp, #28
	movs	r0, #0
.Ltmp171:
	.loc	2 729 9 is_stmt 1               @ ../../../../Library/StdDriver/src/usci_i2c.c:729:9
	strb	r0, [r1]
	b	.LBB20_3
.Ltmp172:
.LBB20_2:
	.loc	2 0 9 is_stmt 0                 @ ../../../../Library/StdDriver/src/usci_i2c.c:0:9
	add	r1, sp, #28
	movs	r0, #1
.Ltmp173:
	.loc	2 733 9 is_stmt 1               @ ../../../../Library/StdDriver/src/usci_i2c.c:733:9
	strb	r0, [r1]
	b	.LBB20_3
.Ltmp174:
.LBB20_3:
	.loc	2 0 9 is_stmt 0                 @ ../../../../Library/StdDriver/src/usci_i2c.c:0:9
	add	r0, sp, #28
	.loc	2 735 1 is_stmt 1               @ ../../../../Library/StdDriver/src/usci_i2c.c:735:1
	ldrb	r0, [r0]
	.loc	2 735 1 epilogue_begin is_stmt 0 @ ../../../../Library/StdDriver/src/usci_i2c.c:735:1
	add	sp, #32
	pop	{r4, pc}
.Ltmp175:
.Lfunc_end20:
	.size	UI2C_WriteByteOneReg, .Lfunc_end20-UI2C_WriteByteOneReg
	.cfi_endproc
	.cantunwind
	.fnend
                                        @ -- End function
	.section	.text.UI2C_WriteMultiBytesOneReg,"ax",%progbits
	.hidden	UI2C_WriteMultiBytesOneReg      @ -- Begin function UI2C_WriteMultiBytesOneReg
	.globl	UI2C_WriteMultiBytesOneReg
	.p2align	2
	.type	UI2C_WriteMultiBytesOneReg,%function
	.code	16                              @ @UI2C_WriteMultiBytesOneReg
	.thumb_func
UI2C_WriteMultiBytesOneReg:
.Lfunc_begin21:
	.loc	2 756 0 is_stmt 1               @ ../../../../Library/StdDriver/src/usci_i2c.c:756:0
	.fnstart
	.cfi_startproc
@ %bb.0:
	.save	{r4, lr}
	push	{r4, lr}
	.cfi_def_cfa_offset 8
	.cfi_offset lr, -4
	.cfi_offset r4, -8
	.pad	#48
	sub	sp, #48
	.cfi_def_cfa_offset 56
	ldr	r4, [sp, #56]
                                        @ kill: def $r4 killed $r2
                                        @ kill: def $r4 killed $r1
	str	r0, [sp, #44]
	add	r0, sp, #40
	strb	r1, [r0]
	add	r0, sp, #36
	strb	r2, [r0]
	str	r3, [sp, #32]
	add	r1, sp, #28
	movs	r0, #1
.Ltmp176:
	.loc	2 757 13 prologue_end           @ ../../../../Library/StdDriver/src/usci_i2c.c:757:13
	strb	r0, [r1]
	add	r1, sp, #24
	movs	r0, #0
	.loc	2 757 29 is_stmt 0              @ ../../../../Library/StdDriver/src/usci_i2c.c:757:29
	strb	r0, [r1]
	add	r1, sp, #20
	.loc	2 757 41                        @ ../../../../Library/StdDriver/src/usci_i2c.c:757:41
	strb	r0, [r1]
	.loc	2 758 14 is_stmt 1              @ ../../../../Library/StdDriver/src/usci_i2c.c:758:14
	str	r0, [sp, #16]
	.loc	2 758 29 is_stmt 0              @ ../../../../Library/StdDriver/src/usci_i2c.c:758:29
	str	r0, [sp, #12]
	add	r2, sp, #8
	movs	r1, #18
	.loc	2 759 28 is_stmt 1              @ ../../../../Library/StdDriver/src/usci_i2c.c:759:28
	strb	r1, [r2]
	.loc	2 761 23                        @ ../../../../Library/StdDriver/src/usci_i2c.c:761:23
	ldr	r1, __arm_cp.21_0
	str	r0, [r1]
	.loc	2 763 5                         @ ../../../../Library/StdDriver/src/usci_i2c.c:763:5
	ldr	r0, [sp, #44]
	ldr	r0, [r0, #92]
	movs	r1, #8
	orrs	r0, r1
	movs	r1, #32
	bics	r0, r1
	ldr	r1, [sp, #44]
	str	r0, [r1, #92]
	.loc	2 765 5                         @ ../../../../Library/StdDriver/src/usci_i2c.c:765:5
	b	.LBB21_1
.LBB21_1:                               @ =>This Loop Header: Depth=1
                                        @     Child Loop BB21_5 Depth 2
	.loc	2 0 5 is_stmt 0                 @ ../../../../Library/StdDriver/src/usci_i2c.c:0:5
	add	r0, sp, #28
	.loc	2 765 12                        @ ../../../../Library/StdDriver/src/usci_i2c.c:765:12
	ldrb	r1, [r0]
	movs	r0, #0
	.loc	2 765 22                        @ ../../../../Library/StdDriver/src/usci_i2c.c:765:22
	str	r0, [sp, #4]                    @ 4-byte Spill
	cbz	r1, .LBB21_3
	b	.LBB21_2
.LBB21_2:                               @   in Loop: Header=BB21_1 Depth=1
	.loc	2 0 22                          @ ../../../../Library/StdDriver/src/usci_i2c.c:0:22
	add	r0, sp, #24
	.loc	2 765 26                        @ ../../../../Library/StdDriver/src/usci_i2c.c:765:26
	ldrb	r0, [r0]
	.loc	2 765 32                        @ ../../../../Library/StdDriver/src/usci_i2c.c:765:32
	rsbs	r1, r0, #0
	adcs	r0, r1
	str	r0, [sp, #4]                    @ 4-byte Spill
	b	.LBB21_3
.LBB21_3:                               @   in Loop: Header=BB21_1 Depth=1
	.loc	2 0 0                           @ ../../../../Library/StdDriver/src/usci_i2c.c:0:0
	ldr	r0, [sp, #4]                    @ 4-byte Reload
	.loc	2 765 5                         @ ../../../../Library/StdDriver/src/usci_i2c.c:765:5
	lsls	r0, r0, #31
	cbnz	r0, .LBB21_4
	b	.LBB21_27
.LBB21_4:                               @   in Loop: Header=BB21_1 Depth=1
.Ltmp177:
	.loc	2 767 27 is_stmt 1              @ ../../../../Library/StdDriver/src/usci_i2c.c:767:27
	ldr	r0, __arm_cp.21_1
	ldr	r0, [r0]
	.loc	2 767 25 is_stmt 0              @ ../../../../Library/StdDriver/src/usci_i2c.c:767:25
	str	r0, [sp, #12]
	.loc	2 769 9 is_stmt 1               @ ../../../../Library/StdDriver/src/usci_i2c.c:769:9
	b	.LBB21_5
.LBB21_5:                               @   Parent Loop BB21_1 Depth=1
                                        @ =>  This Inner Loop Header: Depth=2
	.loc	2 769 18 is_stmt 0              @ ../../../../Library/StdDriver/src/usci_i2c.c:769:18
	ldr	r0, [sp, #44]
	ldr	r0, [r0, #100]
	.loc	2 769 9                         @ ../../../../Library/StdDriver/src/usci_i2c.c:769:9
	lsls	r0, r0, #18
	lsrs	r0, r0, #26
	cbnz	r0, .LBB21_9
	b	.LBB21_6
.LBB21_6:                               @   in Loop: Header=BB21_5 Depth=2
.Ltmp178:
	.loc	2 771 17 is_stmt 1              @ ../../../../Library/StdDriver/src/usci_i2c.c:771:17
	ldr	r0, [sp, #12]
	subs	r0, r0, #1
	str	r0, [sp, #12]
.Ltmp179:
	.loc	2 771 17 is_stmt 0              @ ../../../../Library/StdDriver/src/usci_i2c.c:771:17
	cbnz	r0, .LBB21_8
	b	.LBB21_7
.LBB21_7:                               @   in Loop: Header=BB21_1 Depth=1
.Ltmp180:
	.loc	2 773 35 is_stmt 1              @ ../../../../Library/StdDriver/src/usci_i2c.c:773:35
	ldr	r1, __arm_cp.21_0
	movs	r0, #1
	mvns	r0, r0
	str	r0, [r1]
	.loc	2 774 17                        @ ../../../../Library/StdDriver/src/usci_i2c.c:774:17
	b	.LBB21_9
.Ltmp181:
.LBB21_8:                               @   in Loop: Header=BB21_5 Depth=2
	.loc	2 769 9                         @ ../../../../Library/StdDriver/src/usci_i2c.c:769:9
	b	.LBB21_5
.LBB21_9:                               @   in Loop: Header=BB21_1 Depth=1
	.loc	2 778 17                        @ ../../../../Library/StdDriver/src/usci_i2c.c:778:17
	ldr	r0, [sp, #44]
	ldr	r0, [r0, #100]
	movw	r1, #16128
	.loc	2 778 44 is_stmt 0              @ ../../../../Library/StdDriver/src/usci_i2c.c:778:44
	ands	r0, r1
	str	r0, [sp]                        @ 4-byte Spill
	movw	r1, #256
	.loc	2 778 9                         @ ../../../../Library/StdDriver/src/usci_i2c.c:778:9
	cmp	r0, r1
	beq	.LBB21_14
	b	.LBB21_10
.LBB21_10:                              @   in Loop: Header=BB21_1 Depth=1
	.loc	2 0 9                           @ ../../../../Library/StdDriver/src/usci_i2c.c:0:9
	ldr	r0, [sp]                        @ 4-byte Reload
	movw	r1, #512
	.loc	2 778 9                         @ ../../../../Library/StdDriver/src/usci_i2c.c:778:9
	cmp	r0, r1
	beq	.LBB21_23
	b	.LBB21_11
.LBB21_11:                              @   in Loop: Header=BB21_1 Depth=1
	.loc	2 0 9                           @ ../../../../Library/StdDriver/src/usci_i2c.c:0:9
	ldr	r0, [sp]                        @ 4-byte Reload
	movw	r1, #1024
	.loc	2 778 9                         @ ../../../../Library/StdDriver/src/usci_i2c.c:778:9
	cmp	r0, r1
	beq	.LBB21_22
	b	.LBB21_12
.LBB21_12:                              @   in Loop: Header=BB21_1 Depth=1
	.loc	2 0 9                           @ ../../../../Library/StdDriver/src/usci_i2c.c:0:9
	ldr	r0, [sp]                        @ 4-byte Reload
	movw	r1, #2048
	.loc	2 778 9                         @ ../../../../Library/StdDriver/src/usci_i2c.c:778:9
	cmp	r0, r1
	beq	.LBB21_24
	b	.LBB21_13
.LBB21_13:                              @   in Loop: Header=BB21_1 Depth=1
	.loc	2 0 9                           @ ../../../../Library/StdDriver/src/usci_i2c.c:0:9
	ldr	r0, [sp]                        @ 4-byte Reload
	movw	r1, #8192
	.loc	2 778 9                         @ ../../../../Library/StdDriver/src/usci_i2c.c:778:9
	cmp	r0, r1
	beq	.LBB21_15
	b	.LBB21_25
.LBB21_14:                              @   in Loop: Header=BB21_1 Depth=1
.Ltmp182:
	.loc	2 781 17 is_stmt 1              @ ../../../../Library/StdDriver/src/usci_i2c.c:781:17
	ldr	r1, [sp, #44]
	movw	r0, #256
	str	r0, [r1, #100]
	add	r0, sp, #40
	.loc	2 782 17                        @ ../../../../Library/StdDriver/src/usci_i2c.c:782:17
	ldrb	r0, [r0]
	lsls	r0, r0, #1
	ldr	r1, [sp, #44]
	str	r0, [r1, #48]
	add	r1, sp, #8
	movs	r0, #10
	.loc	2 783 24                        @ ../../../../Library/StdDriver/src/usci_i2c.c:783:24
	strb	r0, [r1]
	add	r1, sp, #20
	movs	r0, #32
	.loc	2 784 24                        @ ../../../../Library/StdDriver/src/usci_i2c.c:784:24
	strb	r0, [r1]
	.loc	2 785 17                        @ ../../../../Library/StdDriver/src/usci_i2c.c:785:17
	b	.LBB21_26
.LBB21_15:                              @   in Loop: Header=BB21_1 Depth=1
	.loc	2 788 17                        @ ../../../../Library/StdDriver/src/usci_i2c.c:788:17
	ldr	r1, [sp, #44]
	movw	r0, #8192
	str	r0, [r1, #100]
	add	r0, sp, #8
.Ltmp183:
	.loc	2 790 21                        @ ../../../../Library/StdDriver/src/usci_i2c.c:790:21
	ldrb	r0, [r0]
.Ltmp184:
	.loc	2 790 21 is_stmt 0              @ ../../../../Library/StdDriver/src/usci_i2c.c:790:21
	cmp	r0, #10
	bne	.LBB21_17
	b	.LBB21_16
.LBB21_16:                              @   in Loop: Header=BB21_1 Depth=1
	.loc	2 0 21                          @ ../../../../Library/StdDriver/src/usci_i2c.c:0:21
	add	r0, sp, #36
.Ltmp185:
	.loc	2 792 21 is_stmt 1              @ ../../../../Library/StdDriver/src/usci_i2c.c:792:21
	ldrb	r0, [r0]
	ldr	r1, [sp, #44]
	str	r0, [r1, #48]
	add	r1, sp, #8
	movs	r0, #14
	.loc	2 793 28                        @ ../../../../Library/StdDriver/src/usci_i2c.c:793:28
	strb	r0, [r1]
	.loc	2 794 17                        @ ../../../../Library/StdDriver/src/usci_i2c.c:794:17
	b	.LBB21_21
.Ltmp186:
.LBB21_17:                              @   in Loop: Header=BB21_1 Depth=1
	.loc	2 797 25                        @ ../../../../Library/StdDriver/src/usci_i2c.c:797:25
	ldr	r0, [sp, #16]
	.loc	2 797 36 is_stmt 0              @ ../../../../Library/StdDriver/src/usci_i2c.c:797:36
	ldr	r1, [sp, #56]
.Ltmp187:
	.loc	2 797 25                        @ ../../../../Library/StdDriver/src/usci_i2c.c:797:25
	cmp	r0, r1
	bhs	.LBB21_19
	b	.LBB21_18
.LBB21_18:                              @   in Loop: Header=BB21_1 Depth=1
.Ltmp188:
	.loc	2 798 25 is_stmt 1              @ ../../../../Library/StdDriver/src/usci_i2c.c:798:25
	ldr	r0, [sp, #32]
	ldr	r1, [sp, #16]
	adds	r2, r1, #1
	str	r2, [sp, #16]
	ldrb	r0, [r0, r1]
	ldr	r1, [sp, #44]
	str	r0, [r1, #48]
	b	.LBB21_20
.LBB21_19:                              @   in Loop: Header=BB21_1 Depth=1
	.loc	2 0 25 is_stmt 0                @ ../../../../Library/StdDriver/src/usci_i2c.c:0:25
	add	r1, sp, #20
	movs	r0, #36
.Ltmp189:
	.loc	2 801 32 is_stmt 1              @ ../../../../Library/StdDriver/src/usci_i2c.c:801:32
	strb	r0, [r1]
	b	.LBB21_20
.Ltmp190:
.LBB21_20:                              @   in Loop: Header=BB21_1 Depth=1
	.loc	2 0 32 is_stmt 0                @ ../../../../Library/StdDriver/src/usci_i2c.c:0:32
	b	.LBB21_21
.LBB21_21:                              @   in Loop: Header=BB21_1 Depth=1
	.loc	2 805 17 is_stmt 1              @ ../../../../Library/StdDriver/src/usci_i2c.c:805:17
	b	.LBB21_26
.LBB21_22:                              @   in Loop: Header=BB21_1 Depth=1
	.loc	2 808 17                        @ ../../../../Library/StdDriver/src/usci_i2c.c:808:17
	ldr	r1, [sp, #44]
	movw	r0, #1024
	str	r0, [r1, #100]
	add	r1, sp, #20
	movs	r0, #36
	.loc	2 809 24                        @ ../../../../Library/StdDriver/src/usci_i2c.c:809:24
	strb	r0, [r1]
	add	r1, sp, #24
	movs	r0, #1
	.loc	2 810 23                        @ ../../../../Library/StdDriver/src/usci_i2c.c:810:23
	strb	r0, [r1]
	.loc	2 811 17                        @ ../../../../Library/StdDriver/src/usci_i2c.c:811:17
	b	.LBB21_26
.LBB21_23:                              @   in Loop: Header=BB21_1 Depth=1
	.loc	2 814 17                        @ ../../../../Library/StdDriver/src/usci_i2c.c:814:17
	ldr	r1, [sp, #44]
	movw	r0, #512
	str	r0, [r1, #100]
	add	r1, sp, #20
	movs	r0, #32
	.loc	2 815 24                        @ ../../../../Library/StdDriver/src/usci_i2c.c:815:24
	strb	r0, [r1]
	add	r1, sp, #28
	movs	r0, #0
	.loc	2 816 27                        @ ../../../../Library/StdDriver/src/usci_i2c.c:816:27
	strb	r0, [r1]
	.loc	2 817 17                        @ ../../../../Library/StdDriver/src/usci_i2c.c:817:17
	b	.LBB21_26
.LBB21_24:                              @   in Loop: Header=BB21_1 Depth=1
	.loc	2 819 13                        @ ../../../../Library/StdDriver/src/usci_i2c.c:819:13
	b	.LBB21_25
.LBB21_25:                              @   in Loop: Header=BB21_1 Depth=1
	.loc	2 0 13 is_stmt 0                @ ../../../../Library/StdDriver/src/usci_i2c.c:0:13
	add	r1, sp, #20
	movs	r0, #36
	.loc	2 821 24 is_stmt 1              @ ../../../../Library/StdDriver/src/usci_i2c.c:821:24
	strb	r0, [r1]
	add	r1, sp, #24
	movs	r0, #1
	.loc	2 822 23                        @ ../../../../Library/StdDriver/src/usci_i2c.c:822:23
	strb	r0, [r1]
	.loc	2 823 17                        @ ../../../../Library/StdDriver/src/usci_i2c.c:823:17
	b	.LBB21_26
.Ltmp191:
.LBB21_26:                              @   in Loop: Header=BB21_1 Depth=1
	.loc	2 826 9                         @ ../../../../Library/StdDriver/src/usci_i2c.c:826:9
	ldr	r0, [sp, #44]
	ldr	r0, [r0, #92]
	movs	r1, #46
	bics	r0, r1
	add	r1, sp, #20
	ldrb	r1, [r1]
	orrs	r0, r1
	ldr	r1, [sp, #44]
	str	r0, [r1, #92]
.Ltmp192:
	.loc	2 765 5                         @ ../../../../Library/StdDriver/src/usci_i2c.c:765:5
	b	.LBB21_1
.LBB21_27:
	.loc	2 829 12                        @ ../../../../Library/StdDriver/src/usci_i2c.c:829:12
	ldr	r0, [sp, #16]
	.loc	2 829 5 epilogue_begin is_stmt 0 @ ../../../../Library/StdDriver/src/usci_i2c.c:829:5
	add	sp, #48
	pop	{r4, pc}
.Ltmp193:
	.p2align	2
@ %bb.28:
	.loc	2 0 5                           @ ../../../../Library/StdDriver/src/usci_i2c.c:0:5
__arm_cp.21_0:
	.long	g_UI2C_i32ErrCode
.Lcpi_end13:
	.size	__arm_cp.21_0, .Lcpi_end13-__arm_cp.21_0
__arm_cp.21_1:
	.long	SystemCoreClock
.Lcpi_end14:
	.size	__arm_cp.21_1, .Lcpi_end14-__arm_cp.21_1
.Lfunc_end21:
	.size	UI2C_WriteMultiBytesOneReg, .Lfunc_end21-UI2C_WriteMultiBytesOneReg
	.cfi_endproc
	.cantunwind
	.fnend
                                        @ -- End function
	.section	.text.UI2C_WriteByteTwoRegs,"ax",%progbits
	.hidden	UI2C_WriteByteTwoRegs           @ -- Begin function UI2C_WriteByteTwoRegs
	.globl	UI2C_WriteByteTwoRegs
	.p2align	1
	.type	UI2C_WriteByteTwoRegs,%function
	.code	16                              @ @UI2C_WriteByteTwoRegs
	.thumb_func
UI2C_WriteByteTwoRegs:
.Lfunc_begin22:
	.loc	2 850 0 is_stmt 1               @ ../../../../Library/StdDriver/src/usci_i2c.c:850:0
	.fnstart
	.cfi_startproc
@ %bb.0:
	.save	{r4, lr}
	push	{r4, lr}
	.cfi_def_cfa_offset 8
	.cfi_offset lr, -4
	.cfi_offset r4, -8
	.pad	#32
	sub	sp, #32
	.cfi_def_cfa_offset 40
	str	r3, [sp, #4]                    @ 4-byte Spill
	mov	r3, r2
	mov	r2, r1
	mov	r1, r0
	ldr	r0, [sp, #4]                    @ 4-byte Reload
                                        @ kill: def $r4 killed $r0
                                        @ kill: def $r4 killed $r3
                                        @ kill: def $r4 killed $r2
	str	r1, [sp, #24]
	add	r1, sp, #20
	strb	r2, [r1]
	add	r2, sp, #16
	strh	r3, [r2]
	add	r3, sp, #12
	strb	r0, [r3]
.Ltmp194:
	.loc	2 851 53 prologue_end           @ ../../../../Library/StdDriver/src/usci_i2c.c:851:53
	ldr	r0, [sp, #24]
	.loc	2 851 59 is_stmt 0              @ ../../../../Library/StdDriver/src/usci_i2c.c:851:59
	ldrb	r1, [r1]
	.loc	2 851 72                        @ ../../../../Library/StdDriver/src/usci_i2c.c:851:72
	ldrh	r2, [r2]
	movs	r4, #1
	.loc	2 851 25                        @ ../../../../Library/StdDriver/src/usci_i2c.c:851:25
	str	r4, [sp]
	bl	UI2C_WriteMultiBytesTwoRegs
	.loc	2 851 14                        @ ../../../../Library/StdDriver/src/usci_i2c.c:851:14
	str	r0, [sp, #8]
.Ltmp195:
	.loc	2 853 9 is_stmt 1               @ ../../../../Library/StdDriver/src/usci_i2c.c:853:9
	ldr	r0, [sp, #8]
.Ltmp196:
	.loc	2 853 9 is_stmt 0               @ ../../../../Library/StdDriver/src/usci_i2c.c:853:9
	cmp	r0, #1
	bne	.LBB22_2
	b	.LBB22_1
.LBB22_1:
	.loc	2 0 9                           @ ../../../../Library/StdDriver/src/usci_i2c.c:0:9
	add	r1, sp, #28
	movs	r0, #0
.Ltmp197:
	.loc	2 855 9 is_stmt 1               @ ../../../../Library/StdDriver/src/usci_i2c.c:855:9
	strb	r0, [r1]
	b	.LBB22_3
.Ltmp198:
.LBB22_2:
	.loc	2 0 9 is_stmt 0                 @ ../../../../Library/StdDriver/src/usci_i2c.c:0:9
	add	r1, sp, #28
	movs	r0, #1
.Ltmp199:
	.loc	2 859 9 is_stmt 1               @ ../../../../Library/StdDriver/src/usci_i2c.c:859:9
	strb	r0, [r1]
	b	.LBB22_3
.Ltmp200:
.LBB22_3:
	.loc	2 0 9 is_stmt 0                 @ ../../../../Library/StdDriver/src/usci_i2c.c:0:9
	add	r0, sp, #28
	.loc	2 861 1 is_stmt 1               @ ../../../../Library/StdDriver/src/usci_i2c.c:861:1
	ldrb	r0, [r0]
	.loc	2 861 1 epilogue_begin is_stmt 0 @ ../../../../Library/StdDriver/src/usci_i2c.c:861:1
	add	sp, #32
	pop	{r4, pc}
.Ltmp201:
.Lfunc_end22:
	.size	UI2C_WriteByteTwoRegs, .Lfunc_end22-UI2C_WriteByteTwoRegs
	.cfi_endproc
	.cantunwind
	.fnend
                                        @ -- End function
	.section	.text.UI2C_WriteMultiBytesTwoRegs,"ax",%progbits
	.hidden	UI2C_WriteMultiBytesTwoRegs     @ -- Begin function UI2C_WriteMultiBytesTwoRegs
	.globl	UI2C_WriteMultiBytesTwoRegs
	.p2align	2
	.type	UI2C_WriteMultiBytesTwoRegs,%function
	.code	16                              @ @UI2C_WriteMultiBytesTwoRegs
	.thumb_func
UI2C_WriteMultiBytesTwoRegs:
.Lfunc_begin23:
	.loc	2 882 0 is_stmt 1               @ ../../../../Library/StdDriver/src/usci_i2c.c:882:0
	.fnstart
	.cfi_startproc
@ %bb.0:
	.save	{r4, lr}
	push	{r4, lr}
	.cfi_def_cfa_offset 8
	.cfi_offset lr, -4
	.cfi_offset r4, -8
	.pad	#52
	sub	sp, #52
	.cfi_def_cfa_offset 60
	ldr	r4, [sp, #60]
                                        @ kill: def $r4 killed $r2
                                        @ kill: def $r4 killed $r1
	str	r0, [sp, #48]
	add	r0, sp, #44
	strb	r1, [r0]
	add	r0, sp, #40
	strh	r2, [r0]
	str	r3, [sp, #36]
	add	r0, sp, #32
	movs	r1, #1
.Ltmp202:
	.loc	2 883 13 prologue_end           @ ../../../../Library/StdDriver/src/usci_i2c.c:883:13
	strb	r1, [r0]
	add	r2, sp, #28
	movs	r0, #0
	.loc	2 883 29 is_stmt 0              @ ../../../../Library/StdDriver/src/usci_i2c.c:883:29
	strb	r0, [r2]
	add	r2, sp, #24
	.loc	2 883 41                        @ ../../../../Library/StdDriver/src/usci_i2c.c:883:41
	strb	r1, [r2]
	add	r1, sp, #20
	.loc	2 883 54                        @ ../../../../Library/StdDriver/src/usci_i2c.c:883:54
	strb	r0, [r1]
	.loc	2 884 14 is_stmt 1              @ ../../../../Library/StdDriver/src/usci_i2c.c:884:14
	str	r0, [sp, #16]
	.loc	2 884 29 is_stmt 0              @ ../../../../Library/StdDriver/src/usci_i2c.c:884:29
	str	r0, [sp, #12]
	add	r2, sp, #8
	movs	r1, #18
	.loc	2 885 28 is_stmt 1              @ ../../../../Library/StdDriver/src/usci_i2c.c:885:28
	strb	r1, [r2]
	.loc	2 887 23                        @ ../../../../Library/StdDriver/src/usci_i2c.c:887:23
	ldr	r1, __arm_cp.23_0
	str	r0, [r1]
	.loc	2 889 5                         @ ../../../../Library/StdDriver/src/usci_i2c.c:889:5
	ldr	r0, [sp, #48]
	ldr	r0, [r0, #92]
	movs	r1, #8
	orrs	r0, r1
	movs	r1, #32
	bics	r0, r1
	ldr	r1, [sp, #48]
	str	r0, [r1, #92]
	.loc	2 891 5                         @ ../../../../Library/StdDriver/src/usci_i2c.c:891:5
	b	.LBB23_1
.LBB23_1:                               @ =>This Loop Header: Depth=1
                                        @     Child Loop BB23_5 Depth 2
	.loc	2 0 5 is_stmt 0                 @ ../../../../Library/StdDriver/src/usci_i2c.c:0:5
	add	r0, sp, #32
	.loc	2 891 12                        @ ../../../../Library/StdDriver/src/usci_i2c.c:891:12
	ldrb	r1, [r0]
	movs	r0, #0
	.loc	2 891 22                        @ ../../../../Library/StdDriver/src/usci_i2c.c:891:22
	str	r0, [sp, #4]                    @ 4-byte Spill
	cbz	r1, .LBB23_3
	b	.LBB23_2
.LBB23_2:                               @   in Loop: Header=BB23_1 Depth=1
	.loc	2 0 22                          @ ../../../../Library/StdDriver/src/usci_i2c.c:0:22
	add	r0, sp, #28
	.loc	2 891 26                        @ ../../../../Library/StdDriver/src/usci_i2c.c:891:26
	ldrb	r0, [r0]
	.loc	2 891 32                        @ ../../../../Library/StdDriver/src/usci_i2c.c:891:32
	rsbs	r1, r0, #0
	adcs	r0, r1
	str	r0, [sp, #4]                    @ 4-byte Spill
	b	.LBB23_3
.LBB23_3:                               @   in Loop: Header=BB23_1 Depth=1
	.loc	2 0 0                           @ ../../../../Library/StdDriver/src/usci_i2c.c:0:0
	ldr	r0, [sp, #4]                    @ 4-byte Reload
	.loc	2 891 5                         @ ../../../../Library/StdDriver/src/usci_i2c.c:891:5
	lsls	r0, r0, #31
	cbnz	r0, .LBB23_4
	b	.LBB23_32
.LBB23_4:                               @   in Loop: Header=BB23_1 Depth=1
.Ltmp203:
	.loc	2 893 27 is_stmt 1              @ ../../../../Library/StdDriver/src/usci_i2c.c:893:27
	ldr	r0, __arm_cp.23_1
	ldr	r0, [r0]
	.loc	2 893 25 is_stmt 0              @ ../../../../Library/StdDriver/src/usci_i2c.c:893:25
	str	r0, [sp, #12]
	.loc	2 895 9 is_stmt 1               @ ../../../../Library/StdDriver/src/usci_i2c.c:895:9
	b	.LBB23_5
.LBB23_5:                               @   Parent Loop BB23_1 Depth=1
                                        @ =>  This Inner Loop Header: Depth=2
	.loc	2 895 18 is_stmt 0              @ ../../../../Library/StdDriver/src/usci_i2c.c:895:18
	ldr	r0, [sp, #48]
	ldr	r0, [r0, #100]
	.loc	2 895 9                         @ ../../../../Library/StdDriver/src/usci_i2c.c:895:9
	lsls	r0, r0, #18
	lsrs	r0, r0, #26
	cbnz	r0, .LBB23_9
	b	.LBB23_6
.LBB23_6:                               @   in Loop: Header=BB23_5 Depth=2
.Ltmp204:
	.loc	2 897 17 is_stmt 1              @ ../../../../Library/StdDriver/src/usci_i2c.c:897:17
	ldr	r0, [sp, #12]
	subs	r0, r0, #1
	str	r0, [sp, #12]
.Ltmp205:
	.loc	2 897 17 is_stmt 0              @ ../../../../Library/StdDriver/src/usci_i2c.c:897:17
	cbnz	r0, .LBB23_8
	b	.LBB23_7
.LBB23_7:                               @   in Loop: Header=BB23_1 Depth=1
.Ltmp206:
	.loc	2 899 35 is_stmt 1              @ ../../../../Library/StdDriver/src/usci_i2c.c:899:35
	ldr	r1, __arm_cp.23_0
	movs	r0, #1
	mvns	r0, r0
	str	r0, [r1]
	.loc	2 900 17                        @ ../../../../Library/StdDriver/src/usci_i2c.c:900:17
	b	.LBB23_9
.Ltmp207:
.LBB23_8:                               @   in Loop: Header=BB23_5 Depth=2
	.loc	2 895 9                         @ ../../../../Library/StdDriver/src/usci_i2c.c:895:9
	b	.LBB23_5
.LBB23_9:                               @   in Loop: Header=BB23_1 Depth=1
	.loc	2 904 17                        @ ../../../../Library/StdDriver/src/usci_i2c.c:904:17
	ldr	r0, [sp, #48]
	ldr	r0, [r0, #100]
	movw	r1, #16128
	.loc	2 904 44 is_stmt 0              @ ../../../../Library/StdDriver/src/usci_i2c.c:904:44
	ands	r0, r1
	str	r0, [sp]                        @ 4-byte Spill
	movw	r1, #256
	.loc	2 904 9                         @ ../../../../Library/StdDriver/src/usci_i2c.c:904:9
	cmp	r0, r1
	beq	.LBB23_14
	b	.LBB23_10
.LBB23_10:                              @   in Loop: Header=BB23_1 Depth=1
	.loc	2 0 9                           @ ../../../../Library/StdDriver/src/usci_i2c.c:0:9
	ldr	r0, [sp]                        @ 4-byte Reload
	movw	r1, #512
	.loc	2 904 9                         @ ../../../../Library/StdDriver/src/usci_i2c.c:904:9
	cmp	r0, r1
	beq	.LBB23_28
	b	.LBB23_11
.LBB23_11:                              @   in Loop: Header=BB23_1 Depth=1
	.loc	2 0 9                           @ ../../../../Library/StdDriver/src/usci_i2c.c:0:9
	ldr	r0, [sp]                        @ 4-byte Reload
	movw	r1, #1024
	.loc	2 904 9                         @ ../../../../Library/StdDriver/src/usci_i2c.c:904:9
	cmp	r0, r1
	beq	.LBB23_27
	b	.LBB23_12
.LBB23_12:                              @   in Loop: Header=BB23_1 Depth=1
	.loc	2 0 9                           @ ../../../../Library/StdDriver/src/usci_i2c.c:0:9
	ldr	r0, [sp]                        @ 4-byte Reload
	movw	r1, #2048
	.loc	2 904 9                         @ ../../../../Library/StdDriver/src/usci_i2c.c:904:9
	cmp	r0, r1
	beq	.LBB23_29
	b	.LBB23_13
.LBB23_13:                              @   in Loop: Header=BB23_1 Depth=1
	.loc	2 0 9                           @ ../../../../Library/StdDriver/src/usci_i2c.c:0:9
	ldr	r0, [sp]                        @ 4-byte Reload
	movw	r1, #8192
	.loc	2 904 9                         @ ../../../../Library/StdDriver/src/usci_i2c.c:904:9
	cmp	r0, r1
	beq	.LBB23_15
	b	.LBB23_30
.LBB23_14:                              @   in Loop: Header=BB23_1 Depth=1
.Ltmp208:
	.loc	2 907 17 is_stmt 1              @ ../../../../Library/StdDriver/src/usci_i2c.c:907:17
	ldr	r1, [sp, #48]
	movw	r0, #256
	str	r0, [r1, #100]
	add	r0, sp, #44
	.loc	2 908 17                        @ ../../../../Library/StdDriver/src/usci_i2c.c:908:17
	ldrb	r0, [r0]
	lsls	r0, r0, #1
	ldr	r1, [sp, #48]
	str	r0, [r1, #48]
	add	r1, sp, #8
	movs	r0, #10
	.loc	2 909 24                        @ ../../../../Library/StdDriver/src/usci_i2c.c:909:24
	strb	r0, [r1]
	add	r1, sp, #20
	movs	r0, #32
	.loc	2 910 24                        @ ../../../../Library/StdDriver/src/usci_i2c.c:910:24
	strb	r0, [r1]
	.loc	2 911 17                        @ ../../../../Library/StdDriver/src/usci_i2c.c:911:17
	b	.LBB23_31
.LBB23_15:                              @   in Loop: Header=BB23_1 Depth=1
	.loc	2 914 17                        @ ../../../../Library/StdDriver/src/usci_i2c.c:914:17
	ldr	r1, [sp, #48]
	movw	r0, #8192
	str	r0, [r1, #100]
	add	r0, sp, #8
.Ltmp209:
	.loc	2 916 21                        @ ../../../../Library/StdDriver/src/usci_i2c.c:916:21
	ldrb	r0, [r0]
.Ltmp210:
	.loc	2 916 21 is_stmt 0              @ ../../../../Library/StdDriver/src/usci_i2c.c:916:21
	cmp	r0, #10
	bne	.LBB23_17
	b	.LBB23_16
.LBB23_16:                              @   in Loop: Header=BB23_1 Depth=1
	.loc	2 0 21                          @ ../../../../Library/StdDriver/src/usci_i2c.c:0:21
	add	r0, sp, #40
.Ltmp211:
	.loc	2 918 21 is_stmt 1              @ ../../../../Library/StdDriver/src/usci_i2c.c:918:21
	ldrb	r0, [r0, #1]
	ldr	r1, [sp, #48]
	str	r0, [r1, #48]
	add	r1, sp, #8
	movs	r0, #14
	.loc	2 919 28                        @ ../../../../Library/StdDriver/src/usci_i2c.c:919:28
	strb	r0, [r1]
	.loc	2 920 17                        @ ../../../../Library/StdDriver/src/usci_i2c.c:920:17
	b	.LBB23_26
.Ltmp212:
.LBB23_17:                              @   in Loop: Header=BB23_1 Depth=1
	.loc	2 0 17 is_stmt 0                @ ../../../../Library/StdDriver/src/usci_i2c.c:0:17
	add	r0, sp, #8
.Ltmp213:
	.loc	2 921 26 is_stmt 1              @ ../../../../Library/StdDriver/src/usci_i2c.c:921:26
	ldrb	r0, [r0]
.Ltmp214:
	.loc	2 921 26 is_stmt 0              @ ../../../../Library/StdDriver/src/usci_i2c.c:921:26
	cmp	r0, #14
	bne	.LBB23_25
	b	.LBB23_18
.LBB23_18:                              @   in Loop: Header=BB23_1 Depth=1
	.loc	2 0 26                          @ ../../../../Library/StdDriver/src/usci_i2c.c:0:26
	add	r0, sp, #24
.Ltmp215:
	.loc	2 923 25 is_stmt 1              @ ../../../../Library/StdDriver/src/usci_i2c.c:923:25
	ldrb	r0, [r0]
.Ltmp216:
	.loc	2 923 25 is_stmt 0              @ ../../../../Library/StdDriver/src/usci_i2c.c:923:25
	cbz	r0, .LBB23_20
	b	.LBB23_19
.LBB23_19:                              @   in Loop: Header=BB23_1 Depth=1
	.loc	2 0 25                          @ ../../../../Library/StdDriver/src/usci_i2c.c:0:25
	add	r0, sp, #40
.Ltmp217:
	.loc	2 925 25 is_stmt 1              @ ../../../../Library/StdDriver/src/usci_i2c.c:925:25
	ldrb	r0, [r0]
	ldr	r1, [sp, #48]
	str	r0, [r1, #48]
	add	r1, sp, #24
	movs	r0, #0
	.loc	2 926 32                        @ ../../../../Library/StdDriver/src/usci_i2c.c:926:32
	strb	r0, [r1]
	.loc	2 927 21                        @ ../../../../Library/StdDriver/src/usci_i2c.c:927:21
	b	.LBB23_24
.Ltmp218:
.LBB23_20:                              @   in Loop: Header=BB23_1 Depth=1
	.loc	2 930 29                        @ ../../../../Library/StdDriver/src/usci_i2c.c:930:29
	ldr	r0, [sp, #16]
	.loc	2 930 40 is_stmt 0              @ ../../../../Library/StdDriver/src/usci_i2c.c:930:40
	ldr	r1, [sp, #60]
.Ltmp219:
	.loc	2 930 29                        @ ../../../../Library/StdDriver/src/usci_i2c.c:930:29
	cmp	r0, r1
	bhs	.LBB23_22
	b	.LBB23_21
.LBB23_21:                              @   in Loop: Header=BB23_1 Depth=1
.Ltmp220:
	.loc	2 932 29 is_stmt 1              @ ../../../../Library/StdDriver/src/usci_i2c.c:932:29
	ldr	r0, [sp, #36]
	ldr	r1, [sp, #16]
	adds	r2, r1, #1
	str	r2, [sp, #16]
	ldrb	r0, [r0, r1]
	ldr	r1, [sp, #48]
	str	r0, [r1, #48]
	.loc	2 933 25                        @ ../../../../Library/StdDriver/src/usci_i2c.c:933:25
	b	.LBB23_23
.Ltmp221:
.LBB23_22:                              @   in Loop: Header=BB23_1 Depth=1
	.loc	2 0 25 is_stmt 0                @ ../../../../Library/StdDriver/src/usci_i2c.c:0:25
	add	r1, sp, #20
	movs	r0, #36
.Ltmp222:
	.loc	2 936 36 is_stmt 1              @ ../../../../Library/StdDriver/src/usci_i2c.c:936:36
	strb	r0, [r1]
	b	.LBB23_23
.Ltmp223:
.LBB23_23:                              @   in Loop: Header=BB23_1 Depth=1
	.loc	2 0 36 is_stmt 0                @ ../../../../Library/StdDriver/src/usci_i2c.c:0:36
	b	.LBB23_24
.LBB23_24:                              @   in Loop: Header=BB23_1 Depth=1
	.loc	2 939 17 is_stmt 1              @ ../../../../Library/StdDriver/src/usci_i2c.c:939:17
	b	.LBB23_25
.Ltmp224:
.LBB23_25:                              @   in Loop: Header=BB23_1 Depth=1
	.loc	2 0 17 is_stmt 0                @ ../../../../Library/StdDriver/src/usci_i2c.c:0:17
	b	.LBB23_26
.LBB23_26:                              @   in Loop: Header=BB23_1 Depth=1
	.loc	2 941 17 is_stmt 1              @ ../../../../Library/StdDriver/src/usci_i2c.c:941:17
	b	.LBB23_31
.LBB23_27:                              @   in Loop: Header=BB23_1 Depth=1
	.loc	2 944 17                        @ ../../../../Library/StdDriver/src/usci_i2c.c:944:17
	ldr	r1, [sp, #48]
	movw	r0, #1024
	str	r0, [r1, #100]
	add	r1, sp, #20
	movs	r0, #36
	.loc	2 945 24                        @ ../../../../Library/StdDriver/src/usci_i2c.c:945:24
	strb	r0, [r1]
	add	r1, sp, #28
	movs	r0, #1
	.loc	2 946 23                        @ ../../../../Library/StdDriver/src/usci_i2c.c:946:23
	strb	r0, [r1]
	.loc	2 947 17                        @ ../../../../Library/StdDriver/src/usci_i2c.c:947:17
	b	.LBB23_31
.LBB23_28:                              @   in Loop: Header=BB23_1 Depth=1
	.loc	2 950 17                        @ ../../../../Library/StdDriver/src/usci_i2c.c:950:17
	ldr	r1, [sp, #48]
	movw	r0, #512
	str	r0, [r1, #100]
	add	r1, sp, #20
	movs	r0, #32
	.loc	2 951 24                        @ ../../../../Library/StdDriver/src/usci_i2c.c:951:24
	strb	r0, [r1]
	add	r1, sp, #32
	movs	r0, #0
	.loc	2 952 27                        @ ../../../../Library/StdDriver/src/usci_i2c.c:952:27
	strb	r0, [r1]
	.loc	2 953 17                        @ ../../../../Library/StdDriver/src/usci_i2c.c:953:17
	b	.LBB23_31
.LBB23_29:                              @   in Loop: Header=BB23_1 Depth=1
	.loc	2 955 13                        @ ../../../../Library/StdDriver/src/usci_i2c.c:955:13
	b	.LBB23_30
.LBB23_30:                              @   in Loop: Header=BB23_1 Depth=1
	.loc	2 0 13 is_stmt 0                @ ../../../../Library/StdDriver/src/usci_i2c.c:0:13
	add	r1, sp, #20
	movs	r0, #36
	.loc	2 957 24 is_stmt 1              @ ../../../../Library/StdDriver/src/usci_i2c.c:957:24
	strb	r0, [r1]
	add	r1, sp, #28
	movs	r0, #1
	.loc	2 958 23                        @ ../../../../Library/StdDriver/src/usci_i2c.c:958:23
	strb	r0, [r1]
	.loc	2 959 17                        @ ../../../../Library/StdDriver/src/usci_i2c.c:959:17
	b	.LBB23_31
.Ltmp225:
.LBB23_31:                              @   in Loop: Header=BB23_1 Depth=1
	.loc	2 962 9                         @ ../../../../Library/StdDriver/src/usci_i2c.c:962:9
	ldr	r0, [sp, #48]
	ldr	r0, [r0, #92]
	movs	r1, #46
	bics	r0, r1
	add	r1, sp, #20
	ldrb	r1, [r1]
	orrs	r0, r1
	ldr	r1, [sp, #48]
	str	r0, [r1, #92]
.Ltmp226:
	.loc	2 891 5                         @ ../../../../Library/StdDriver/src/usci_i2c.c:891:5
	b	.LBB23_1
.LBB23_32:
	.loc	2 965 12                        @ ../../../../Library/StdDriver/src/usci_i2c.c:965:12
	ldr	r0, [sp, #16]
	.loc	2 965 5 epilogue_begin is_stmt 0 @ ../../../../Library/StdDriver/src/usci_i2c.c:965:5
	add	sp, #52
	pop	{r4, pc}
.Ltmp227:
	.p2align	2
@ %bb.33:
	.loc	2 0 5                           @ ../../../../Library/StdDriver/src/usci_i2c.c:0:5
__arm_cp.23_0:
	.long	g_UI2C_i32ErrCode
.Lcpi_end15:
	.size	__arm_cp.23_0, .Lcpi_end15-__arm_cp.23_0
__arm_cp.23_1:
	.long	SystemCoreClock
.Lcpi_end16:
	.size	__arm_cp.23_1, .Lcpi_end16-__arm_cp.23_1
.Lfunc_end23:
	.size	UI2C_WriteMultiBytesTwoRegs, .Lfunc_end23-UI2C_WriteMultiBytesTwoRegs
	.cfi_endproc
	.cantunwind
	.fnend
                                        @ -- End function
	.section	.text.UI2C_ReadByte,"ax",%progbits
	.hidden	UI2C_ReadByte                   @ -- Begin function UI2C_ReadByte
	.globl	UI2C_ReadByte
	.p2align	1
	.type	UI2C_ReadByte,%function
	.code	16                              @ @UI2C_ReadByte
	.thumb_func
UI2C_ReadByte:
.Lfunc_begin24:
	.loc	2 982 0 is_stmt 1               @ ../../../../Library/StdDriver/src/usci_i2c.c:982:0
	.fnstart
	.cfi_startproc
@ %bb.0:
	.save	{r7, lr}
	push	{r7, lr}
	.cfi_def_cfa_offset 8
	.cfi_offset lr, -4
	.cfi_offset r7, -8
	.pad	#24
	sub	sp, #24
	.cfi_def_cfa_offset 32
	str	r1, [sp]                        @ 4-byte Spill
	mov	r1, r0
	ldr	r0, [sp]                        @ 4-byte Reload
                                        @ kill: def $r2 killed $r0
	str	r1, [sp, #16]
	add	r1, sp, #12
	strb	r0, [r1]
.Ltmp228:
	.loc	2 985 45 prologue_end           @ ../../../../Library/StdDriver/src/usci_i2c.c:985:45
	ldr	r0, [sp, #16]
	.loc	2 985 51 is_stmt 0              @ ../../../../Library/StdDriver/src/usci_i2c.c:985:51
	ldrb	r1, [r1]
	add	r2, sp, #8
	movs	r3, #1
	.loc	2 985 25                        @ ../../../../Library/StdDriver/src/usci_i2c.c:985:25
	bl	UI2C_ReadMultiBytes
	.loc	2 985 14                        @ ../../../../Library/StdDriver/src/usci_i2c.c:985:14
	str	r0, [sp, #4]
.Ltmp229:
	.loc	2 987 9 is_stmt 1               @ ../../../../Library/StdDriver/src/usci_i2c.c:987:9
	ldr	r0, [sp, #4]
.Ltmp230:
	.loc	2 987 9 is_stmt 0               @ ../../../../Library/StdDriver/src/usci_i2c.c:987:9
	cmp	r0, #1
	bne	.LBB24_2
	b	.LBB24_1
.LBB24_1:
.Ltmp231:
	.loc	2 989 16 is_stmt 1              @ ../../../../Library/StdDriver/src/usci_i2c.c:989:16
	ldr	r0, [sp, #8]
	add	r1, sp, #20
	.loc	2 989 9 is_stmt 0               @ ../../../../Library/StdDriver/src/usci_i2c.c:989:9
	strb	r0, [r1]
	b	.LBB24_3
.Ltmp232:
.LBB24_2:
	.loc	2 0 9                           @ ../../../../Library/StdDriver/src/usci_i2c.c:0:9
	add	r1, sp, #20
	movs	r0, #0
.Ltmp233:
	.loc	2 993 9 is_stmt 1               @ ../../../../Library/StdDriver/src/usci_i2c.c:993:9
	strb	r0, [r1]
	b	.LBB24_3
.Ltmp234:
.LBB24_3:
	.loc	2 0 9 is_stmt 0                 @ ../../../../Library/StdDriver/src/usci_i2c.c:0:9
	add	r0, sp, #20
	.loc	2 995 1 is_stmt 1               @ ../../../../Library/StdDriver/src/usci_i2c.c:995:1
	ldrb	r0, [r0]
	.loc	2 995 1 epilogue_begin is_stmt 0 @ ../../../../Library/StdDriver/src/usci_i2c.c:995:1
	add	sp, #24
	pop	{r7, pc}
.Ltmp235:
.Lfunc_end24:
	.size	UI2C_ReadByte, .Lfunc_end24-UI2C_ReadByte
	.cfi_endproc
	.cantunwind
	.fnend
                                        @ -- End function
	.section	.text.UI2C_ReadMultiBytes,"ax",%progbits
	.hidden	UI2C_ReadMultiBytes             @ -- Begin function UI2C_ReadMultiBytes
	.globl	UI2C_ReadMultiBytes
	.p2align	2
	.type	UI2C_ReadMultiBytes,%function
	.code	16                              @ @UI2C_ReadMultiBytes
	.thumb_func
UI2C_ReadMultiBytes:
.Lfunc_begin25:
	.loc	2 1014 0 is_stmt 1              @ ../../../../Library/StdDriver/src/usci_i2c.c:1014:0
	.fnstart
	.cfi_startproc
@ %bb.0:
	.save	{r4, lr}
	push	{r4, lr}
	.cfi_def_cfa_offset 8
	.cfi_offset lr, -4
	.cfi_offset r4, -8
	.pad	#48
	sub	sp, #48
	.cfi_def_cfa_offset 56
                                        @ kill: def $r4 killed $r1
	str	r0, [sp, #44]
	add	r0, sp, #40
	strb	r1, [r0]
	str	r2, [sp, #36]
	str	r3, [sp, #32]
	add	r1, sp, #28
	movs	r0, #1
.Ltmp236:
	.loc	2 1015 13 prologue_end          @ ../../../../Library/StdDriver/src/usci_i2c.c:1015:13
	strb	r0, [r1]
	add	r1, sp, #24
	movs	r0, #0
	.loc	2 1015 29 is_stmt 0             @ ../../../../Library/StdDriver/src/usci_i2c.c:1015:29
	strb	r0, [r1]
	add	r1, sp, #20
	.loc	2 1015 41                       @ ../../../../Library/StdDriver/src/usci_i2c.c:1015:41
	strb	r0, [r1]
	.loc	2 1016 14 is_stmt 1             @ ../../../../Library/StdDriver/src/usci_i2c.c:1016:14
	str	r0, [sp, #16]
	.loc	2 1016 29 is_stmt 0             @ ../../../../Library/StdDriver/src/usci_i2c.c:1016:29
	str	r0, [sp, #12]
	add	r2, sp, #8
	movs	r1, #18
	.loc	2 1017 28 is_stmt 1             @ ../../../../Library/StdDriver/src/usci_i2c.c:1017:28
	strb	r1, [r2]
	.loc	2 1019 23                       @ ../../../../Library/StdDriver/src/usci_i2c.c:1019:23
	ldr	r1, __arm_cp.25_0
	str	r0, [r1]
	.loc	2 1021 5                        @ ../../../../Library/StdDriver/src/usci_i2c.c:1021:5
	ldr	r0, [sp, #44]
	ldr	r0, [r0, #92]
	movs	r1, #8
	orrs	r0, r1
	movs	r1, #32
	bics	r0, r1
	ldr	r1, [sp, #44]
	str	r0, [r1, #92]
	.loc	2 1023 5                        @ ../../../../Library/StdDriver/src/usci_i2c.c:1023:5
	b	.LBB25_1
.LBB25_1:                               @ =>This Loop Header: Depth=1
                                        @     Child Loop BB25_5 Depth 2
	.loc	2 0 5 is_stmt 0                 @ ../../../../Library/StdDriver/src/usci_i2c.c:0:5
	add	r0, sp, #28
	.loc	2 1023 12                       @ ../../../../Library/StdDriver/src/usci_i2c.c:1023:12
	ldrb	r1, [r0]
	movs	r0, #0
	.loc	2 1023 22                       @ ../../../../Library/StdDriver/src/usci_i2c.c:1023:22
	str	r0, [sp, #4]                    @ 4-byte Spill
	cbz	r1, .LBB25_3
	b	.LBB25_2
.LBB25_2:                               @   in Loop: Header=BB25_1 Depth=1
	.loc	2 0 22                          @ ../../../../Library/StdDriver/src/usci_i2c.c:0:22
	add	r0, sp, #24
	.loc	2 1023 26                       @ ../../../../Library/StdDriver/src/usci_i2c.c:1023:26
	ldrb	r0, [r0]
	.loc	2 1023 32                       @ ../../../../Library/StdDriver/src/usci_i2c.c:1023:32
	rsbs	r1, r0, #0
	adcs	r0, r1
	str	r0, [sp, #4]                    @ 4-byte Spill
	b	.LBB25_3
.LBB25_3:                               @   in Loop: Header=BB25_1 Depth=1
	.loc	2 0 0                           @ ../../../../Library/StdDriver/src/usci_i2c.c:0:0
	ldr	r0, [sp, #4]                    @ 4-byte Reload
	.loc	2 1023 5                        @ ../../../../Library/StdDriver/src/usci_i2c.c:1023:5
	lsls	r0, r0, #31
	cbnz	r0, .LBB25_4
	b	.LBB25_32
.LBB25_4:                               @   in Loop: Header=BB25_1 Depth=1
.Ltmp237:
	.loc	2 1025 27 is_stmt 1             @ ../../../../Library/StdDriver/src/usci_i2c.c:1025:27
	ldr	r0, __arm_cp.25_1
	ldr	r0, [r0]
	.loc	2 1025 25 is_stmt 0             @ ../../../../Library/StdDriver/src/usci_i2c.c:1025:25
	str	r0, [sp, #12]
	.loc	2 1027 9 is_stmt 1              @ ../../../../Library/StdDriver/src/usci_i2c.c:1027:9
	b	.LBB25_5
.LBB25_5:                               @   Parent Loop BB25_1 Depth=1
                                        @ =>  This Inner Loop Header: Depth=2
	.loc	2 1027 18 is_stmt 0             @ ../../../../Library/StdDriver/src/usci_i2c.c:1027:18
	ldr	r0, [sp, #44]
	ldr	r0, [r0, #100]
	.loc	2 1027 9                        @ ../../../../Library/StdDriver/src/usci_i2c.c:1027:9
	lsls	r0, r0, #18
	lsrs	r0, r0, #26
	cbnz	r0, .LBB25_9
	b	.LBB25_6
.LBB25_6:                               @   in Loop: Header=BB25_5 Depth=2
.Ltmp238:
	.loc	2 1029 17 is_stmt 1             @ ../../../../Library/StdDriver/src/usci_i2c.c:1029:17
	ldr	r0, [sp, #12]
	subs	r0, r0, #1
	str	r0, [sp, #12]
.Ltmp239:
	.loc	2 1029 17 is_stmt 0             @ ../../../../Library/StdDriver/src/usci_i2c.c:1029:17
	cbnz	r0, .LBB25_8
	b	.LBB25_7
.LBB25_7:                               @   in Loop: Header=BB25_1 Depth=1
.Ltmp240:
	.loc	2 1031 35 is_stmt 1             @ ../../../../Library/StdDriver/src/usci_i2c.c:1031:35
	ldr	r1, __arm_cp.25_0
	movs	r0, #1
	mvns	r0, r0
	str	r0, [r1]
	.loc	2 1032 17                       @ ../../../../Library/StdDriver/src/usci_i2c.c:1032:17
	b	.LBB25_9
.Ltmp241:
.LBB25_8:                               @   in Loop: Header=BB25_5 Depth=2
	.loc	2 1027 9                        @ ../../../../Library/StdDriver/src/usci_i2c.c:1027:9
	b	.LBB25_5
.LBB25_9:                               @   in Loop: Header=BB25_1 Depth=1
	.loc	2 1036 17                       @ ../../../../Library/StdDriver/src/usci_i2c.c:1036:17
	ldr	r0, [sp, #44]
	ldr	r0, [r0, #100]
	movw	r1, #16128
	.loc	2 1036 44 is_stmt 0             @ ../../../../Library/StdDriver/src/usci_i2c.c:1036:44
	ands	r0, r1
	str	r0, [sp]                        @ 4-byte Spill
	movw	r1, #256
	.loc	2 1036 9                        @ ../../../../Library/StdDriver/src/usci_i2c.c:1036:9
	cmp	r0, r1
	beq	.LBB25_14
	b	.LBB25_10
.LBB25_10:                              @   in Loop: Header=BB25_1 Depth=1
	.loc	2 0 9                           @ ../../../../Library/StdDriver/src/usci_i2c.c:0:9
	ldr	r0, [sp]                        @ 4-byte Reload
	movw	r1, #512
	.loc	2 1036 9                        @ ../../../../Library/StdDriver/src/usci_i2c.c:1036:9
	cmp	r0, r1
	beq	.LBB25_28
	b	.LBB25_11
.LBB25_11:                              @   in Loop: Header=BB25_1 Depth=1
	.loc	2 0 9                           @ ../../../../Library/StdDriver/src/usci_i2c.c:0:9
	ldr	r0, [sp]                        @ 4-byte Reload
	movw	r1, #1024
	.loc	2 1036 9                        @ ../../../../Library/StdDriver/src/usci_i2c.c:1036:9
	cmp	r0, r1
	beq	.LBB25_25
	b	.LBB25_12
.LBB25_12:                              @   in Loop: Header=BB25_1 Depth=1
	.loc	2 0 9                           @ ../../../../Library/StdDriver/src/usci_i2c.c:0:9
	ldr	r0, [sp]                        @ 4-byte Reload
	movw	r1, #2048
	.loc	2 1036 9                        @ ../../../../Library/StdDriver/src/usci_i2c.c:1036:9
	cmp	r0, r1
	beq	.LBB25_29
	b	.LBB25_13
.LBB25_13:                              @   in Loop: Header=BB25_1 Depth=1
	.loc	2 0 9                           @ ../../../../Library/StdDriver/src/usci_i2c.c:0:9
	ldr	r0, [sp]                        @ 4-byte Reload
	movw	r1, #8192
	.loc	2 1036 9                        @ ../../../../Library/StdDriver/src/usci_i2c.c:1036:9
	cmp	r0, r1
	beq	.LBB25_15
	b	.LBB25_30
.LBB25_14:                              @   in Loop: Header=BB25_1 Depth=1
.Ltmp242:
	.loc	2 1039 17 is_stmt 1             @ ../../../../Library/StdDriver/src/usci_i2c.c:1039:17
	ldr	r1, [sp, #44]
	movw	r0, #256
	str	r0, [r1, #100]
	add	r0, sp, #40
	.loc	2 1040 17                       @ ../../../../Library/StdDriver/src/usci_i2c.c:1040:17
	ldrb	r0, [r0]
	lsls	r0, r0, #1
	adds	r0, r0, #1
	ldr	r1, [sp, #44]
	str	r0, [r1, #48]
	add	r1, sp, #8
	movs	r0, #12
	.loc	2 1041 24                       @ ../../../../Library/StdDriver/src/usci_i2c.c:1041:24
	strb	r0, [r1]
	add	r1, sp, #20
	movs	r0, #32
	.loc	2 1042 24                       @ ../../../../Library/StdDriver/src/usci_i2c.c:1042:24
	strb	r0, [r1]
	.loc	2 1043 17                       @ ../../../../Library/StdDriver/src/usci_i2c.c:1043:17
	b	.LBB25_31
.LBB25_15:                              @   in Loop: Header=BB25_1 Depth=1
	.loc	2 1046 17                       @ ../../../../Library/StdDriver/src/usci_i2c.c:1046:17
	ldr	r1, [sp, #44]
	movw	r0, #8192
	str	r0, [r1, #100]
	add	r0, sp, #8
.Ltmp243:
	.loc	2 1048 21                       @ ../../../../Library/StdDriver/src/usci_i2c.c:1048:21
	ldrb	r0, [r0]
.Ltmp244:
	.loc	2 1048 21 is_stmt 0             @ ../../../../Library/StdDriver/src/usci_i2c.c:1048:21
	cmp	r0, #12
	bne	.LBB25_20
	b	.LBB25_16
.LBB25_16:                              @   in Loop: Header=BB25_1 Depth=1
.Ltmp245:
	.loc	2 1050 25 is_stmt 1             @ ../../../../Library/StdDriver/src/usci_i2c.c:1050:25
	ldr	r0, [sp, #32]
.Ltmp246:
	.loc	2 1050 25 is_stmt 0             @ ../../../../Library/StdDriver/src/usci_i2c.c:1050:25
	cmp	r0, #1
	bne	.LBB25_18
	b	.LBB25_17
.LBB25_17:                              @   in Loop: Header=BB25_1 Depth=1
	.loc	2 0 25                          @ ../../../../Library/StdDriver/src/usci_i2c.c:0:25
	add	r1, sp, #20
	movs	r0, #32
.Ltmp247:
	.loc	2 1052 32 is_stmt 1             @ ../../../../Library/StdDriver/src/usci_i2c.c:1052:32
	strb	r0, [r1]
	.loc	2 1053 21                       @ ../../../../Library/StdDriver/src/usci_i2c.c:1053:21
	b	.LBB25_19
.Ltmp248:
.LBB25_18:                              @   in Loop: Header=BB25_1 Depth=1
	.loc	2 0 21 is_stmt 0                @ ../../../../Library/StdDriver/src/usci_i2c.c:0:21
	add	r1, sp, #20
	movs	r0, #34
.Ltmp249:
	.loc	2 1056 32 is_stmt 1             @ ../../../../Library/StdDriver/src/usci_i2c.c:1056:32
	strb	r0, [r1]
	b	.LBB25_19
.Ltmp250:
.LBB25_19:                              @   in Loop: Header=BB25_1 Depth=1
	.loc	2 0 32 is_stmt 0                @ ../../../../Library/StdDriver/src/usci_i2c.c:0:32
	add	r1, sp, #8
	movs	r0, #16
	.loc	2 1059 28 is_stmt 1             @ ../../../../Library/StdDriver/src/usci_i2c.c:1059:28
	strb	r0, [r1]
	.loc	2 1060 17                       @ ../../../../Library/StdDriver/src/usci_i2c.c:1060:17
	b	.LBB25_24
.Ltmp251:
.LBB25_20:                              @   in Loop: Header=BB25_1 Depth=1
	.loc	2 1063 57                       @ ../../../../Library/StdDriver/src/usci_i2c.c:1063:57
	ldr	r0, [sp, #44]
	ldr	r0, [r0, #52]
	.loc	2 1063 21 is_stmt 0             @ ../../../../Library/StdDriver/src/usci_i2c.c:1063:21
	ldr	r1, [sp, #36]
	.loc	2 1063 35                       @ ../../../../Library/StdDriver/src/usci_i2c.c:1063:35
	ldr	r2, [sp, #16]
	adds	r3, r2, #1
	str	r3, [sp, #16]
	.loc	2 1063 39                       @ ../../../../Library/StdDriver/src/usci_i2c.c:1063:39
	strb	r0, [r1, r2]
.Ltmp252:
	.loc	2 1065 25 is_stmt 1             @ ../../../../Library/StdDriver/src/usci_i2c.c:1065:25
	ldr	r0, [sp, #16]
	.loc	2 1065 37 is_stmt 0             @ ../../../../Library/StdDriver/src/usci_i2c.c:1065:37
	ldr	r1, [sp, #32]
	.loc	2 1065 45                       @ ../../../../Library/StdDriver/src/usci_i2c.c:1065:45
	subs	r1, r1, #1
.Ltmp253:
	.loc	2 1065 25                       @ ../../../../Library/StdDriver/src/usci_i2c.c:1065:25
	cmp	r0, r1
	bhs	.LBB25_22
	b	.LBB25_21
.LBB25_21:                              @   in Loop: Header=BB25_1 Depth=1
	.loc	2 0 25                          @ ../../../../Library/StdDriver/src/usci_i2c.c:0:25
	add	r1, sp, #20
	movs	r0, #34
.Ltmp254:
	.loc	2 1066 32 is_stmt 1             @ ../../../../Library/StdDriver/src/usci_i2c.c:1066:32
	strb	r0, [r1]
	.loc	2 1066 25 is_stmt 0             @ ../../../../Library/StdDriver/src/usci_i2c.c:1066:25
	b	.LBB25_23
.LBB25_22:                              @   in Loop: Header=BB25_1 Depth=1
	.loc	2 0 25                          @ ../../../../Library/StdDriver/src/usci_i2c.c:0:25
	add	r1, sp, #20
	movs	r0, #32
	.loc	2 1068 32 is_stmt 1             @ ../../../../Library/StdDriver/src/usci_i2c.c:1068:32
	strb	r0, [r1]
	b	.LBB25_23
.Ltmp255:
.LBB25_23:                              @   in Loop: Header=BB25_1 Depth=1
	.loc	2 0 32 is_stmt 0                @ ../../../../Library/StdDriver/src/usci_i2c.c:0:32
	b	.LBB25_24
.LBB25_24:                              @   in Loop: Header=BB25_1 Depth=1
	.loc	2 1071 17 is_stmt 1             @ ../../../../Library/StdDriver/src/usci_i2c.c:1071:17
	b	.LBB25_31
.LBB25_25:                              @   in Loop: Header=BB25_1 Depth=1
	.loc	2 1074 17                       @ ../../../../Library/StdDriver/src/usci_i2c.c:1074:17
	ldr	r1, [sp, #44]
	movw	r0, #1024
	str	r0, [r1, #100]
	add	r0, sp, #8
.Ltmp256:
	.loc	2 1076 21                       @ ../../../../Library/StdDriver/src/usci_i2c.c:1076:21
	ldrb	r0, [r0]
.Ltmp257:
	.loc	2 1076 21 is_stmt 0             @ ../../../../Library/StdDriver/src/usci_i2c.c:1076:21
	cmp	r0, #16
	bne	.LBB25_27
	b	.LBB25_26
.LBB25_26:                              @   in Loop: Header=BB25_1 Depth=1
.Ltmp258:
	.loc	2 1077 57 is_stmt 1             @ ../../../../Library/StdDriver/src/usci_i2c.c:1077:57
	ldr	r0, [sp, #44]
	ldr	r0, [r0, #52]
	.loc	2 1077 21 is_stmt 0             @ ../../../../Library/StdDriver/src/usci_i2c.c:1077:21
	ldr	r1, [sp, #36]
	.loc	2 1077 35                       @ ../../../../Library/StdDriver/src/usci_i2c.c:1077:35
	ldr	r2, [sp, #16]
	adds	r3, r2, #1
	str	r3, [sp, #16]
	.loc	2 1077 39                       @ ../../../../Library/StdDriver/src/usci_i2c.c:1077:39
	strb	r0, [r1, r2]
	.loc	2 1077 21                       @ ../../../../Library/StdDriver/src/usci_i2c.c:1077:21
	b	.LBB25_27
.Ltmp259:
.LBB25_27:                              @   in Loop: Header=BB25_1 Depth=1
	.loc	2 0 21                          @ ../../../../Library/StdDriver/src/usci_i2c.c:0:21
	add	r1, sp, #20
	movs	r0, #36
	.loc	2 1079 24 is_stmt 1             @ ../../../../Library/StdDriver/src/usci_i2c.c:1079:24
	strb	r0, [r1]
	.loc	2 1081 17                       @ ../../../../Library/StdDriver/src/usci_i2c.c:1081:17
	b	.LBB25_31
.LBB25_28:                              @   in Loop: Header=BB25_1 Depth=1
	.loc	2 1084 17                       @ ../../../../Library/StdDriver/src/usci_i2c.c:1084:17
	ldr	r1, [sp, #44]
	movw	r0, #512
	str	r0, [r1, #100]
	add	r1, sp, #20
	movs	r0, #32
	.loc	2 1085 24                       @ ../../../../Library/StdDriver/src/usci_i2c.c:1085:24
	strb	r0, [r1]
	add	r1, sp, #28
	movs	r0, #0
	.loc	2 1086 27                       @ ../../../../Library/StdDriver/src/usci_i2c.c:1086:27
	strb	r0, [r1]
	.loc	2 1087 17                       @ ../../../../Library/StdDriver/src/usci_i2c.c:1087:17
	b	.LBB25_31
.LBB25_29:                              @   in Loop: Header=BB25_1 Depth=1
	.loc	2 1089 13                       @ ../../../../Library/StdDriver/src/usci_i2c.c:1089:13
	b	.LBB25_30
.LBB25_30:                              @   in Loop: Header=BB25_1 Depth=1
	.loc	2 0 13 is_stmt 0                @ ../../../../Library/StdDriver/src/usci_i2c.c:0:13
	add	r1, sp, #20
	movs	r0, #36
	.loc	2 1091 24 is_stmt 1             @ ../../../../Library/StdDriver/src/usci_i2c.c:1091:24
	strb	r0, [r1]
	add	r1, sp, #24
	movs	r0, #1
	.loc	2 1092 23                       @ ../../../../Library/StdDriver/src/usci_i2c.c:1092:23
	strb	r0, [r1]
	.loc	2 1093 17                       @ ../../../../Library/StdDriver/src/usci_i2c.c:1093:17
	b	.LBB25_31
.Ltmp260:
.LBB25_31:                              @   in Loop: Header=BB25_1 Depth=1
	.loc	2 1096 9                        @ ../../../../Library/StdDriver/src/usci_i2c.c:1096:9
	ldr	r0, [sp, #44]
	ldr	r0, [r0, #92]
	movs	r1, #46
	bics	r0, r1
	add	r1, sp, #20
	ldrb	r1, [r1]
	orrs	r0, r1
	ldr	r1, [sp, #44]
	str	r0, [r1, #92]
.Ltmp261:
	.loc	2 1023 5                        @ ../../../../Library/StdDriver/src/usci_i2c.c:1023:5
	b	.LBB25_1
.LBB25_32:
	.loc	2 1099 12                       @ ../../../../Library/StdDriver/src/usci_i2c.c:1099:12
	ldr	r0, [sp, #16]
	.loc	2 1099 5 epilogue_begin is_stmt 0 @ ../../../../Library/StdDriver/src/usci_i2c.c:1099:5
	add	sp, #48
	pop	{r4, pc}
.Ltmp262:
	.p2align	2
@ %bb.33:
	.loc	2 0 5                           @ ../../../../Library/StdDriver/src/usci_i2c.c:0:5
__arm_cp.25_0:
	.long	g_UI2C_i32ErrCode
.Lcpi_end17:
	.size	__arm_cp.25_0, .Lcpi_end17-__arm_cp.25_0
__arm_cp.25_1:
	.long	SystemCoreClock
.Lcpi_end18:
	.size	__arm_cp.25_1, .Lcpi_end18-__arm_cp.25_1
.Lfunc_end25:
	.size	UI2C_ReadMultiBytes, .Lfunc_end25-UI2C_ReadMultiBytes
	.cfi_endproc
	.cantunwind
	.fnend
                                        @ -- End function
	.section	.text.UI2C_ReadByteOneReg,"ax",%progbits
	.hidden	UI2C_ReadByteOneReg             @ -- Begin function UI2C_ReadByteOneReg
	.globl	UI2C_ReadByteOneReg
	.p2align	1
	.type	UI2C_ReadByteOneReg,%function
	.code	16                              @ @UI2C_ReadByteOneReg
	.thumb_func
UI2C_ReadByteOneReg:
.Lfunc_begin26:
	.loc	2 1117 0 is_stmt 1              @ ../../../../Library/StdDriver/src/usci_i2c.c:1117:0
	.fnstart
	.cfi_startproc
@ %bb.0:
	.save	{r7, lr}
	push	{r7, lr}
	.cfi_def_cfa_offset 8
	.cfi_offset lr, -4
	.cfi_offset r7, -8
	.pad	#32
	sub	sp, #32
	.cfi_def_cfa_offset 40
	str	r2, [sp, #4]                    @ 4-byte Spill
	mov	r2, r1
	mov	r1, r0
	ldr	r0, [sp, #4]                    @ 4-byte Reload
                                        @ kill: def $r3 killed $r0
                                        @ kill: def $r3 killed $r2
	str	r1, [sp, #24]
	add	r1, sp, #20
	strb	r2, [r1]
	add	r2, sp, #16
	strb	r0, [r2]
.Ltmp263:
	.loc	2 1120 51 prologue_end          @ ../../../../Library/StdDriver/src/usci_i2c.c:1120:51
	ldr	r0, [sp, #24]
	.loc	2 1120 57 is_stmt 0             @ ../../../../Library/StdDriver/src/usci_i2c.c:1120:57
	ldrb	r1, [r1]
	.loc	2 1120 70                       @ ../../../../Library/StdDriver/src/usci_i2c.c:1120:70
	ldrb	r2, [r2]
	movs	r3, #1
	.loc	2 1120 25                       @ ../../../../Library/StdDriver/src/usci_i2c.c:1120:25
	str	r3, [sp]
	add	r3, sp, #12
	bl	UI2C_ReadMultiBytesOneReg
	.loc	2 1120 14                       @ ../../../../Library/StdDriver/src/usci_i2c.c:1120:14
	str	r0, [sp, #8]
.Ltmp264:
	.loc	2 1122 9 is_stmt 1              @ ../../../../Library/StdDriver/src/usci_i2c.c:1122:9
	ldr	r0, [sp, #8]
.Ltmp265:
	.loc	2 1122 9 is_stmt 0              @ ../../../../Library/StdDriver/src/usci_i2c.c:1122:9
	cmp	r0, #1
	bne	.LBB26_2
	b	.LBB26_1
.LBB26_1:
.Ltmp266:
	.loc	2 1124 16 is_stmt 1             @ ../../../../Library/StdDriver/src/usci_i2c.c:1124:16
	ldr	r0, [sp, #12]
	add	r1, sp, #28
	.loc	2 1124 9 is_stmt 0              @ ../../../../Library/StdDriver/src/usci_i2c.c:1124:9
	strb	r0, [r1]
	b	.LBB26_3
.Ltmp267:
.LBB26_2:
	.loc	2 0 9                           @ ../../../../Library/StdDriver/src/usci_i2c.c:0:9
	add	r1, sp, #28
	movs	r0, #0
.Ltmp268:
	.loc	2 1128 9 is_stmt 1              @ ../../../../Library/StdDriver/src/usci_i2c.c:1128:9
	strb	r0, [r1]
	b	.LBB26_3
.Ltmp269:
.LBB26_3:
	.loc	2 0 9 is_stmt 0                 @ ../../../../Library/StdDriver/src/usci_i2c.c:0:9
	add	r0, sp, #28
	.loc	2 1130 1 is_stmt 1              @ ../../../../Library/StdDriver/src/usci_i2c.c:1130:1
	ldrb	r0, [r0]
	.loc	2 1130 1 epilogue_begin is_stmt 0 @ ../../../../Library/StdDriver/src/usci_i2c.c:1130:1
	add	sp, #32
	pop	{r7, pc}
.Ltmp270:
.Lfunc_end26:
	.size	UI2C_ReadByteOneReg, .Lfunc_end26-UI2C_ReadByteOneReg
	.cfi_endproc
	.cantunwind
	.fnend
                                        @ -- End function
	.section	.text.UI2C_ReadMultiBytesOneReg,"ax",%progbits
	.hidden	UI2C_ReadMultiBytesOneReg       @ -- Begin function UI2C_ReadMultiBytesOneReg
	.globl	UI2C_ReadMultiBytesOneReg
	.p2align	2
	.type	UI2C_ReadMultiBytesOneReg,%function
	.code	16                              @ @UI2C_ReadMultiBytesOneReg
	.thumb_func
UI2C_ReadMultiBytesOneReg:
.Lfunc_begin27:
	.loc	2 1149 0 is_stmt 1              @ ../../../../Library/StdDriver/src/usci_i2c.c:1149:0
	.fnstart
	.cfi_startproc
@ %bb.0:
	.save	{r4, lr}
	push	{r4, lr}
	.cfi_def_cfa_offset 8
	.cfi_offset lr, -4
	.cfi_offset r4, -8
	.pad	#48
	sub	sp, #48
	.cfi_def_cfa_offset 56
	ldr	r4, [sp, #56]
                                        @ kill: def $r4 killed $r2
                                        @ kill: def $r4 killed $r1
	str	r0, [sp, #44]
	add	r0, sp, #40
	strb	r1, [r0]
	add	r0, sp, #36
	strb	r2, [r0]
	str	r3, [sp, #32]
	add	r1, sp, #28
	movs	r0, #1
.Ltmp271:
	.loc	2 1150 13 prologue_end          @ ../../../../Library/StdDriver/src/usci_i2c.c:1150:13
	strb	r0, [r1]
	add	r1, sp, #24
	movs	r0, #0
	.loc	2 1150 29 is_stmt 0             @ ../../../../Library/StdDriver/src/usci_i2c.c:1150:29
	strb	r0, [r1]
	add	r1, sp, #20
	.loc	2 1150 41                       @ ../../../../Library/StdDriver/src/usci_i2c.c:1150:41
	strb	r0, [r1]
	.loc	2 1151 14 is_stmt 1             @ ../../../../Library/StdDriver/src/usci_i2c.c:1151:14
	str	r0, [sp, #16]
	.loc	2 1151 29 is_stmt 0             @ ../../../../Library/StdDriver/src/usci_i2c.c:1151:29
	str	r0, [sp, #12]
	add	r2, sp, #8
	movs	r1, #18
	.loc	2 1152 28 is_stmt 1             @ ../../../../Library/StdDriver/src/usci_i2c.c:1152:28
	strb	r1, [r2]
	.loc	2 1154 23                       @ ../../../../Library/StdDriver/src/usci_i2c.c:1154:23
	ldr	r1, __arm_cp.27_0
	str	r0, [r1]
	.loc	2 1156 5                        @ ../../../../Library/StdDriver/src/usci_i2c.c:1156:5
	ldr	r0, [sp, #44]
	ldr	r0, [r0, #92]
	movs	r1, #8
	orrs	r0, r1
	movs	r1, #32
	bics	r0, r1
	ldr	r1, [sp, #44]
	str	r0, [r1, #92]
	.loc	2 1158 5                        @ ../../../../Library/StdDriver/src/usci_i2c.c:1158:5
	b	.LBB27_1
.LBB27_1:                               @ =>This Loop Header: Depth=1
                                        @     Child Loop BB27_5 Depth 2
	.loc	2 0 5 is_stmt 0                 @ ../../../../Library/StdDriver/src/usci_i2c.c:0:5
	add	r0, sp, #28
	.loc	2 1158 12                       @ ../../../../Library/StdDriver/src/usci_i2c.c:1158:12
	ldrb	r1, [r0]
	movs	r0, #0
	.loc	2 1158 22                       @ ../../../../Library/StdDriver/src/usci_i2c.c:1158:22
	str	r0, [sp, #4]                    @ 4-byte Spill
	cbz	r1, .LBB27_3
	b	.LBB27_2
.LBB27_2:                               @   in Loop: Header=BB27_1 Depth=1
	.loc	2 0 22                          @ ../../../../Library/StdDriver/src/usci_i2c.c:0:22
	add	r0, sp, #24
	.loc	2 1158 26                       @ ../../../../Library/StdDriver/src/usci_i2c.c:1158:26
	ldrb	r0, [r0]
	.loc	2 1158 32                       @ ../../../../Library/StdDriver/src/usci_i2c.c:1158:32
	rsbs	r1, r0, #0
	adcs	r0, r1
	str	r0, [sp, #4]                    @ 4-byte Spill
	b	.LBB27_3
.LBB27_3:                               @   in Loop: Header=BB27_1 Depth=1
	.loc	2 0 0                           @ ../../../../Library/StdDriver/src/usci_i2c.c:0:0
	ldr	r0, [sp, #4]                    @ 4-byte Reload
	.loc	2 1158 5                        @ ../../../../Library/StdDriver/src/usci_i2c.c:1158:5
	lsls	r0, r0, #31
	cbnz	r0, .LBB27_4
	b	.LBB27_43
.LBB27_4:                               @   in Loop: Header=BB27_1 Depth=1
.Ltmp272:
	.loc	2 1160 27 is_stmt 1             @ ../../../../Library/StdDriver/src/usci_i2c.c:1160:27
	ldr	r0, __arm_cp.27_1
	ldr	r0, [r0]
	.loc	2 1160 25 is_stmt 0             @ ../../../../Library/StdDriver/src/usci_i2c.c:1160:25
	str	r0, [sp, #12]
	.loc	2 1162 9 is_stmt 1              @ ../../../../Library/StdDriver/src/usci_i2c.c:1162:9
	b	.LBB27_5
.LBB27_5:                               @   Parent Loop BB27_1 Depth=1
                                        @ =>  This Inner Loop Header: Depth=2
	.loc	2 1162 18 is_stmt 0             @ ../../../../Library/StdDriver/src/usci_i2c.c:1162:18
	ldr	r0, [sp, #44]
	ldr	r0, [r0, #100]
	.loc	2 1162 9                        @ ../../../../Library/StdDriver/src/usci_i2c.c:1162:9
	lsls	r0, r0, #18
	lsrs	r0, r0, #26
	cbnz	r0, .LBB27_9
	b	.LBB27_6
.LBB27_6:                               @   in Loop: Header=BB27_5 Depth=2
.Ltmp273:
	.loc	2 1164 17 is_stmt 1             @ ../../../../Library/StdDriver/src/usci_i2c.c:1164:17
	ldr	r0, [sp, #12]
	subs	r0, r0, #1
	str	r0, [sp, #12]
.Ltmp274:
	.loc	2 1164 17 is_stmt 0             @ ../../../../Library/StdDriver/src/usci_i2c.c:1164:17
	cbnz	r0, .LBB27_8
	b	.LBB27_7
.LBB27_7:                               @   in Loop: Header=BB27_1 Depth=1
.Ltmp275:
	.loc	2 1166 35 is_stmt 1             @ ../../../../Library/StdDriver/src/usci_i2c.c:1166:35
	ldr	r1, __arm_cp.27_0
	movs	r0, #1
	mvns	r0, r0
	str	r0, [r1]
	.loc	2 1167 17                       @ ../../../../Library/StdDriver/src/usci_i2c.c:1167:17
	b	.LBB27_9
.Ltmp276:
.LBB27_8:                               @   in Loop: Header=BB27_5 Depth=2
	.loc	2 1162 9                        @ ../../../../Library/StdDriver/src/usci_i2c.c:1162:9
	b	.LBB27_5
.LBB27_9:                               @   in Loop: Header=BB27_1 Depth=1
	.loc	2 1171 17                       @ ../../../../Library/StdDriver/src/usci_i2c.c:1171:17
	ldr	r0, [sp, #44]
	ldr	r0, [r0, #100]
	movw	r1, #16128
	.loc	2 1171 44 is_stmt 0             @ ../../../../Library/StdDriver/src/usci_i2c.c:1171:44
	ands	r0, r1
	str	r0, [sp]                        @ 4-byte Spill
	movw	r1, #256
	.loc	2 1171 9                        @ ../../../../Library/StdDriver/src/usci_i2c.c:1171:9
	cmp	r0, r1
	beq	.LBB27_14
	b	.LBB27_10
.LBB27_10:                              @   in Loop: Header=BB27_1 Depth=1
	.loc	2 0 9                           @ ../../../../Library/StdDriver/src/usci_i2c.c:0:9
	ldr	r0, [sp]                        @ 4-byte Reload
	movw	r1, #512
	.loc	2 1171 9                        @ ../../../../Library/StdDriver/src/usci_i2c.c:1171:9
	cmp	r0, r1
	bne	.LBB27_11
	b	.LBB27_39
.LBB27_11:                              @   in Loop: Header=BB27_1 Depth=1
	.loc	2 0 9                           @ ../../../../Library/StdDriver/src/usci_i2c.c:0:9
	ldr	r0, [sp]                        @ 4-byte Reload
	movw	r1, #1024
	.loc	2 1171 9                        @ ../../../../Library/StdDriver/src/usci_i2c.c:1171:9
	cmp	r0, r1
	bne	.LBB27_12
	b	.LBB27_36
.LBB27_12:                              @   in Loop: Header=BB27_1 Depth=1
	.loc	2 0 9                           @ ../../../../Library/StdDriver/src/usci_i2c.c:0:9
	ldr	r0, [sp]                        @ 4-byte Reload
	movw	r1, #2048
	.loc	2 1171 9                        @ ../../../../Library/StdDriver/src/usci_i2c.c:1171:9
	cmp	r0, r1
	bne	.LBB27_13
	b	.LBB27_40
.LBB27_13:                              @   in Loop: Header=BB27_1 Depth=1
	.loc	2 0 9                           @ ../../../../Library/StdDriver/src/usci_i2c.c:0:9
	ldr	r0, [sp]                        @ 4-byte Reload
	movw	r1, #8192
	.loc	2 1171 9                        @ ../../../../Library/StdDriver/src/usci_i2c.c:1171:9
	cmp	r0, r1
	beq	.LBB27_20
	b	.LBB27_41
.LBB27_14:                              @   in Loop: Header=BB27_1 Depth=1
.Ltmp277:
	.loc	2 1174 17 is_stmt 1             @ ../../../../Library/StdDriver/src/usci_i2c.c:1174:17
	ldr	r1, [sp, #44]
	movw	r0, #256
	str	r0, [r1, #100]
	add	r0, sp, #8
.Ltmp278:
	.loc	2 1176 21                       @ ../../../../Library/StdDriver/src/usci_i2c.c:1176:21
	ldrb	r0, [r0]
.Ltmp279:
	.loc	2 1176 21 is_stmt 0             @ ../../../../Library/StdDriver/src/usci_i2c.c:1176:21
	cmp	r0, #18
	bne	.LBB27_16
	b	.LBB27_15
.LBB27_15:                              @   in Loop: Header=BB27_1 Depth=1
	.loc	2 0 21                          @ ../../../../Library/StdDriver/src/usci_i2c.c:0:21
	add	r0, sp, #40
.Ltmp280:
	.loc	2 1178 21 is_stmt 1             @ ../../../../Library/StdDriver/src/usci_i2c.c:1178:21
	ldrb	r0, [r0]
	lsls	r0, r0, #1
	ldr	r1, [sp, #44]
	str	r0, [r1, #48]
	add	r1, sp, #8
	movs	r0, #10
	.loc	2 1179 28                       @ ../../../../Library/StdDriver/src/usci_i2c.c:1179:28
	strb	r0, [r1]
	.loc	2 1180 17                       @ ../../../../Library/StdDriver/src/usci_i2c.c:1180:17
	b	.LBB27_19
.Ltmp281:
.LBB27_16:                              @   in Loop: Header=BB27_1 Depth=1
	.loc	2 0 17 is_stmt 0                @ ../../../../Library/StdDriver/src/usci_i2c.c:0:17
	add	r0, sp, #8
.Ltmp282:
	.loc	2 1181 26 is_stmt 1             @ ../../../../Library/StdDriver/src/usci_i2c.c:1181:26
	ldrb	r0, [r0]
.Ltmp283:
	.loc	2 1181 26 is_stmt 0             @ ../../../../Library/StdDriver/src/usci_i2c.c:1181:26
	cmp	r0, #15
	bne	.LBB27_18
	b	.LBB27_17
.LBB27_17:                              @   in Loop: Header=BB27_1 Depth=1
	.loc	2 0 26                          @ ../../../../Library/StdDriver/src/usci_i2c.c:0:26
	add	r0, sp, #40
.Ltmp284:
	.loc	2 1183 21 is_stmt 1             @ ../../../../Library/StdDriver/src/usci_i2c.c:1183:21
	ldrb	r0, [r0]
	lsls	r0, r0, #1
	adds	r0, r0, #1
	ldr	r1, [sp, #44]
	str	r0, [r1, #48]
	add	r1, sp, #8
	movs	r0, #12
	.loc	2 1184 28                       @ ../../../../Library/StdDriver/src/usci_i2c.c:1184:28
	strb	r0, [r1]
	.loc	2 1185 17                       @ ../../../../Library/StdDriver/src/usci_i2c.c:1185:17
	b	.LBB27_18
.Ltmp285:
.LBB27_18:                              @   in Loop: Header=BB27_1 Depth=1
	.loc	2 0 17 is_stmt 0                @ ../../../../Library/StdDriver/src/usci_i2c.c:0:17
	b	.LBB27_19
.LBB27_19:                              @   in Loop: Header=BB27_1 Depth=1
	add	r1, sp, #20
	movs	r0, #32
	.loc	2 1187 24 is_stmt 1             @ ../../../../Library/StdDriver/src/usci_i2c.c:1187:24
	strb	r0, [r1]
	.loc	2 1188 17                       @ ../../../../Library/StdDriver/src/usci_i2c.c:1188:17
	b	.LBB27_42
.LBB27_20:                              @   in Loop: Header=BB27_1 Depth=1
	.loc	2 1191 17                       @ ../../../../Library/StdDriver/src/usci_i2c.c:1191:17
	ldr	r1, [sp, #44]
	movw	r0, #8192
	str	r0, [r1, #100]
	add	r0, sp, #8
.Ltmp286:
	.loc	2 1193 21                       @ ../../../../Library/StdDriver/src/usci_i2c.c:1193:21
	ldrb	r0, [r0]
.Ltmp287:
	.loc	2 1193 21 is_stmt 0             @ ../../../../Library/StdDriver/src/usci_i2c.c:1193:21
	cmp	r0, #10
	bne	.LBB27_22
	b	.LBB27_21
.LBB27_21:                              @   in Loop: Header=BB27_1 Depth=1
	.loc	2 0 21                          @ ../../../../Library/StdDriver/src/usci_i2c.c:0:21
	add	r0, sp, #36
.Ltmp288:
	.loc	2 1195 21 is_stmt 1             @ ../../../../Library/StdDriver/src/usci_i2c.c:1195:21
	ldrb	r0, [r0]
	ldr	r1, [sp, #44]
	str	r0, [r1, #48]
	add	r1, sp, #20
	movs	r0, #32
	.loc	2 1196 28                       @ ../../../../Library/StdDriver/src/usci_i2c.c:1196:28
	strb	r0, [r1]
	add	r1, sp, #8
	movs	r0, #14
	.loc	2 1197 28                       @ ../../../../Library/StdDriver/src/usci_i2c.c:1197:28
	strb	r0, [r1]
	.loc	2 1198 17                       @ ../../../../Library/StdDriver/src/usci_i2c.c:1198:17
	b	.LBB27_35
.Ltmp289:
.LBB27_22:                              @   in Loop: Header=BB27_1 Depth=1
	.loc	2 0 17 is_stmt 0                @ ../../../../Library/StdDriver/src/usci_i2c.c:0:17
	add	r0, sp, #8
.Ltmp290:
	.loc	2 1199 26 is_stmt 1             @ ../../../../Library/StdDriver/src/usci_i2c.c:1199:26
	ldrb	r0, [r0]
.Ltmp291:
	.loc	2 1199 26 is_stmt 0             @ ../../../../Library/StdDriver/src/usci_i2c.c:1199:26
	cmp	r0, #14
	bne	.LBB27_24
	b	.LBB27_23
.LBB27_23:                              @   in Loop: Header=BB27_1 Depth=1
	.loc	2 0 26                          @ ../../../../Library/StdDriver/src/usci_i2c.c:0:26
	add	r1, sp, #20
	movs	r0, #40
.Ltmp292:
	.loc	2 1201 28 is_stmt 1             @ ../../../../Library/StdDriver/src/usci_i2c.c:1201:28
	strb	r0, [r1]
	add	r1, sp, #8
	movs	r0, #15
	.loc	2 1202 28                       @ ../../../../Library/StdDriver/src/usci_i2c.c:1202:28
	strb	r0, [r1]
	.loc	2 1203 17                       @ ../../../../Library/StdDriver/src/usci_i2c.c:1203:17
	b	.LBB27_34
.Ltmp293:
.LBB27_24:                              @   in Loop: Header=BB27_1 Depth=1
	.loc	2 0 17 is_stmt 0                @ ../../../../Library/StdDriver/src/usci_i2c.c:0:17
	add	r0, sp, #8
.Ltmp294:
	.loc	2 1204 26 is_stmt 1             @ ../../../../Library/StdDriver/src/usci_i2c.c:1204:26
	ldrb	r0, [r0]
.Ltmp295:
	.loc	2 1204 26 is_stmt 0             @ ../../../../Library/StdDriver/src/usci_i2c.c:1204:26
	cmp	r0, #12
	bne	.LBB27_29
	b	.LBB27_25
.LBB27_25:                              @   in Loop: Header=BB27_1 Depth=1
.Ltmp296:
	.loc	2 1207 25 is_stmt 1             @ ../../../../Library/StdDriver/src/usci_i2c.c:1207:25
	ldr	r0, [sp, #56]
.Ltmp297:
	.loc	2 1207 25 is_stmt 0             @ ../../../../Library/StdDriver/src/usci_i2c.c:1207:25
	cmp	r0, #1
	bne	.LBB27_27
	b	.LBB27_26
.LBB27_26:                              @   in Loop: Header=BB27_1 Depth=1
	.loc	2 0 25                          @ ../../../../Library/StdDriver/src/usci_i2c.c:0:25
	add	r1, sp, #20
	movs	r0, #32
.Ltmp298:
	.loc	2 1209 32 is_stmt 1             @ ../../../../Library/StdDriver/src/usci_i2c.c:1209:32
	strb	r0, [r1]
	.loc	2 1210 21                       @ ../../../../Library/StdDriver/src/usci_i2c.c:1210:21
	b	.LBB27_28
.Ltmp299:
.LBB27_27:                              @   in Loop: Header=BB27_1 Depth=1
	.loc	2 0 21 is_stmt 0                @ ../../../../Library/StdDriver/src/usci_i2c.c:0:21
	add	r1, sp, #20
	movs	r0, #34
.Ltmp300:
	.loc	2 1213 32 is_stmt 1             @ ../../../../Library/StdDriver/src/usci_i2c.c:1213:32
	strb	r0, [r1]
	b	.LBB27_28
.Ltmp301:
.LBB27_28:                              @   in Loop: Header=BB27_1 Depth=1
	.loc	2 0 32 is_stmt 0                @ ../../../../Library/StdDriver/src/usci_i2c.c:0:32
	add	r1, sp, #8
	movs	r0, #16
	.loc	2 1216 28 is_stmt 1             @ ../../../../Library/StdDriver/src/usci_i2c.c:1216:28
	strb	r0, [r1]
	.loc	2 1217 17                       @ ../../../../Library/StdDriver/src/usci_i2c.c:1217:17
	b	.LBB27_33
.Ltmp302:
.LBB27_29:                              @   in Loop: Header=BB27_1 Depth=1
	.loc	2 1220 51                       @ ../../../../Library/StdDriver/src/usci_i2c.c:1220:51
	ldr	r0, [sp, #44]
	ldr	r0, [r0, #52]
	.loc	2 1220 21 is_stmt 0             @ ../../../../Library/StdDriver/src/usci_i2c.c:1220:21
	ldr	r1, [sp, #32]
	.loc	2 1220 35                       @ ../../../../Library/StdDriver/src/usci_i2c.c:1220:35
	ldr	r2, [sp, #16]
	adds	r3, r2, #1
	str	r3, [sp, #16]
	.loc	2 1220 39                       @ ../../../../Library/StdDriver/src/usci_i2c.c:1220:39
	strb	r0, [r1, r2]
.Ltmp303:
	.loc	2 1222 25 is_stmt 1             @ ../../../../Library/StdDriver/src/usci_i2c.c:1222:25
	ldr	r0, [sp, #16]
	.loc	2 1222 36 is_stmt 0             @ ../../../../Library/StdDriver/src/usci_i2c.c:1222:36
	ldr	r1, [sp, #56]
	.loc	2 1222 44                       @ ../../../../Library/StdDriver/src/usci_i2c.c:1222:44
	subs	r1, r1, #1
.Ltmp304:
	.loc	2 1222 25                       @ ../../../../Library/StdDriver/src/usci_i2c.c:1222:25
	cmp	r0, r1
	bhs	.LBB27_31
	b	.LBB27_30
.LBB27_30:                              @   in Loop: Header=BB27_1 Depth=1
	.loc	2 0 25                          @ ../../../../Library/StdDriver/src/usci_i2c.c:0:25
	add	r1, sp, #20
	movs	r0, #34
.Ltmp305:
	.loc	2 1223 32 is_stmt 1             @ ../../../../Library/StdDriver/src/usci_i2c.c:1223:32
	strb	r0, [r1]
	.loc	2 1223 25 is_stmt 0             @ ../../../../Library/StdDriver/src/usci_i2c.c:1223:25
	b	.LBB27_32
.LBB27_31:                              @   in Loop: Header=BB27_1 Depth=1
	.loc	2 0 25                          @ ../../../../Library/StdDriver/src/usci_i2c.c:0:25
	add	r1, sp, #20
	movs	r0, #32
	.loc	2 1225 32 is_stmt 1             @ ../../../../Library/StdDriver/src/usci_i2c.c:1225:32
	strb	r0, [r1]
	b	.LBB27_32
.Ltmp306:
.LBB27_32:                              @   in Loop: Header=BB27_1 Depth=1
	.loc	2 0 32 is_stmt 0                @ ../../../../Library/StdDriver/src/usci_i2c.c:0:32
	b	.LBB27_33
.LBB27_33:                              @   in Loop: Header=BB27_1 Depth=1
	b	.LBB27_34
.LBB27_34:                              @   in Loop: Header=BB27_1 Depth=1
	b	.LBB27_35
.LBB27_35:                              @   in Loop: Header=BB27_1 Depth=1
	.loc	2 1228 17 is_stmt 1             @ ../../../../Library/StdDriver/src/usci_i2c.c:1228:17
	b	.LBB27_42
.LBB27_36:                              @   in Loop: Header=BB27_1 Depth=1
	.loc	2 1231 17                       @ ../../../../Library/StdDriver/src/usci_i2c.c:1231:17
	ldr	r1, [sp, #44]
	movw	r0, #1024
	str	r0, [r1, #100]
	add	r0, sp, #8
.Ltmp307:
	.loc	2 1233 21                       @ ../../../../Library/StdDriver/src/usci_i2c.c:1233:21
	ldrb	r0, [r0]
.Ltmp308:
	.loc	2 1233 21 is_stmt 0             @ ../../../../Library/StdDriver/src/usci_i2c.c:1233:21
	cmp	r0, #16
	bne	.LBB27_38
	b	.LBB27_37
.LBB27_37:                              @   in Loop: Header=BB27_1 Depth=1
.Ltmp309:
	.loc	2 1234 51 is_stmt 1             @ ../../../../Library/StdDriver/src/usci_i2c.c:1234:51
	ldr	r0, [sp, #44]
	ldr	r0, [r0, #52]
	.loc	2 1234 21 is_stmt 0             @ ../../../../Library/StdDriver/src/usci_i2c.c:1234:21
	ldr	r1, [sp, #32]
	.loc	2 1234 35                       @ ../../../../Library/StdDriver/src/usci_i2c.c:1234:35
	ldr	r2, [sp, #16]
	adds	r3, r2, #1
	str	r3, [sp, #16]
	.loc	2 1234 39                       @ ../../../../Library/StdDriver/src/usci_i2c.c:1234:39
	strb	r0, [r1, r2]
	.loc	2 1234 21                       @ ../../../../Library/StdDriver/src/usci_i2c.c:1234:21
	b	.LBB27_38
.Ltmp310:
.LBB27_38:                              @   in Loop: Header=BB27_1 Depth=1
	.loc	2 0 21                          @ ../../../../Library/StdDriver/src/usci_i2c.c:0:21
	add	r1, sp, #20
	movs	r0, #36
	.loc	2 1236 24 is_stmt 1             @ ../../../../Library/StdDriver/src/usci_i2c.c:1236:24
	strb	r0, [r1]
	.loc	2 1238 17                       @ ../../../../Library/StdDriver/src/usci_i2c.c:1238:17
	b	.LBB27_42
.LBB27_39:                              @   in Loop: Header=BB27_1 Depth=1
	.loc	2 1241 17                       @ ../../../../Library/StdDriver/src/usci_i2c.c:1241:17
	ldr	r1, [sp, #44]
	movw	r0, #512
	str	r0, [r1, #100]
	add	r1, sp, #20
	movs	r0, #32
	.loc	2 1242 24                       @ ../../../../Library/StdDriver/src/usci_i2c.c:1242:24
	strb	r0, [r1]
	add	r1, sp, #28
	movs	r0, #0
	.loc	2 1243 27                       @ ../../../../Library/StdDriver/src/usci_i2c.c:1243:27
	strb	r0, [r1]
	.loc	2 1244 17                       @ ../../../../Library/StdDriver/src/usci_i2c.c:1244:17
	b	.LBB27_42
.LBB27_40:                              @   in Loop: Header=BB27_1 Depth=1
	.loc	2 1246 13                       @ ../../../../Library/StdDriver/src/usci_i2c.c:1246:13
	b	.LBB27_41
.LBB27_41:                              @   in Loop: Header=BB27_1 Depth=1
	.loc	2 0 13 is_stmt 0                @ ../../../../Library/StdDriver/src/usci_i2c.c:0:13
	add	r1, sp, #20
	movs	r0, #36
	.loc	2 1248 24 is_stmt 1             @ ../../../../Library/StdDriver/src/usci_i2c.c:1248:24
	strb	r0, [r1]
	add	r1, sp, #24
	movs	r0, #1
	.loc	2 1249 23                       @ ../../../../Library/StdDriver/src/usci_i2c.c:1249:23
	strb	r0, [r1]
	.loc	2 1250 17                       @ ../../../../Library/StdDriver/src/usci_i2c.c:1250:17
	b	.LBB27_42
.Ltmp311:
.LBB27_42:                              @   in Loop: Header=BB27_1 Depth=1
	.loc	2 1253 9                        @ ../../../../Library/StdDriver/src/usci_i2c.c:1253:9
	ldr	r0, [sp, #44]
	ldr	r0, [r0, #92]
	movs	r1, #46
	bics	r0, r1
	add	r1, sp, #20
	ldrb	r1, [r1]
	orrs	r0, r1
	ldr	r1, [sp, #44]
	str	r0, [r1, #92]
.Ltmp312:
	.loc	2 1158 5                        @ ../../../../Library/StdDriver/src/usci_i2c.c:1158:5
	b	.LBB27_1
.LBB27_43:
	.loc	2 1256 12                       @ ../../../../Library/StdDriver/src/usci_i2c.c:1256:12
	ldr	r0, [sp, #16]
	.loc	2 1256 5 epilogue_begin is_stmt 0 @ ../../../../Library/StdDriver/src/usci_i2c.c:1256:5
	add	sp, #48
	pop	{r4, pc}
.Ltmp313:
	.p2align	2
@ %bb.44:
	.loc	2 0 5                           @ ../../../../Library/StdDriver/src/usci_i2c.c:0:5
__arm_cp.27_0:
	.long	g_UI2C_i32ErrCode
.Lcpi_end19:
	.size	__arm_cp.27_0, .Lcpi_end19-__arm_cp.27_0
__arm_cp.27_1:
	.long	SystemCoreClock
.Lcpi_end20:
	.size	__arm_cp.27_1, .Lcpi_end20-__arm_cp.27_1
.Lfunc_end27:
	.size	UI2C_ReadMultiBytesOneReg, .Lfunc_end27-UI2C_ReadMultiBytesOneReg
	.cfi_endproc
	.cantunwind
	.fnend
                                        @ -- End function
	.section	.text.UI2C_ReadByteTwoRegs,"ax",%progbits
	.hidden	UI2C_ReadByteTwoRegs            @ -- Begin function UI2C_ReadByteTwoRegs
	.globl	UI2C_ReadByteTwoRegs
	.p2align	1
	.type	UI2C_ReadByteTwoRegs,%function
	.code	16                              @ @UI2C_ReadByteTwoRegs
	.thumb_func
UI2C_ReadByteTwoRegs:
.Lfunc_begin28:
	.loc	2 1274 0 is_stmt 1              @ ../../../../Library/StdDriver/src/usci_i2c.c:1274:0
	.fnstart
	.cfi_startproc
@ %bb.0:
	.save	{r7, lr}
	push	{r7, lr}
	.cfi_def_cfa_offset 8
	.cfi_offset lr, -4
	.cfi_offset r7, -8
	.pad	#32
	sub	sp, #32
	.cfi_def_cfa_offset 40
	str	r2, [sp, #4]                    @ 4-byte Spill
	mov	r2, r1
	mov	r1, r0
	ldr	r0, [sp, #4]                    @ 4-byte Reload
                                        @ kill: def $r3 killed $r0
                                        @ kill: def $r3 killed $r2
	str	r1, [sp, #24]
	add	r1, sp, #20
	strb	r2, [r1]
	add	r2, sp, #16
	strh	r0, [r2]
.Ltmp314:
	.loc	2 1277 52 prologue_end          @ ../../../../Library/StdDriver/src/usci_i2c.c:1277:52
	ldr	r0, [sp, #24]
	.loc	2 1277 58 is_stmt 0             @ ../../../../Library/StdDriver/src/usci_i2c.c:1277:58
	ldrb	r1, [r1]
	.loc	2 1277 71                       @ ../../../../Library/StdDriver/src/usci_i2c.c:1277:71
	ldrh	r2, [r2]
	movs	r3, #1
	.loc	2 1277 25                       @ ../../../../Library/StdDriver/src/usci_i2c.c:1277:25
	str	r3, [sp]
	add	r3, sp, #12
	bl	UI2C_ReadMultiBytesTwoRegs
	.loc	2 1277 14                       @ ../../../../Library/StdDriver/src/usci_i2c.c:1277:14
	str	r0, [sp, #8]
.Ltmp315:
	.loc	2 1279 9 is_stmt 1              @ ../../../../Library/StdDriver/src/usci_i2c.c:1279:9
	ldr	r0, [sp, #8]
.Ltmp316:
	.loc	2 1279 9 is_stmt 0              @ ../../../../Library/StdDriver/src/usci_i2c.c:1279:9
	cmp	r0, #1
	bne	.LBB28_2
	b	.LBB28_1
.LBB28_1:
.Ltmp317:
	.loc	2 1281 16 is_stmt 1             @ ../../../../Library/StdDriver/src/usci_i2c.c:1281:16
	ldr	r0, [sp, #12]
	add	r1, sp, #28
	.loc	2 1281 9 is_stmt 0              @ ../../../../Library/StdDriver/src/usci_i2c.c:1281:9
	strb	r0, [r1]
	b	.LBB28_3
.Ltmp318:
.LBB28_2:
	.loc	2 0 9                           @ ../../../../Library/StdDriver/src/usci_i2c.c:0:9
	add	r1, sp, #28
	movs	r0, #0
.Ltmp319:
	.loc	2 1285 9 is_stmt 1              @ ../../../../Library/StdDriver/src/usci_i2c.c:1285:9
	strb	r0, [r1]
	b	.LBB28_3
.Ltmp320:
.LBB28_3:
	.loc	2 0 9 is_stmt 0                 @ ../../../../Library/StdDriver/src/usci_i2c.c:0:9
	add	r0, sp, #28
	.loc	2 1287 1 is_stmt 1              @ ../../../../Library/StdDriver/src/usci_i2c.c:1287:1
	ldrb	r0, [r0]
	.loc	2 1287 1 epilogue_begin is_stmt 0 @ ../../../../Library/StdDriver/src/usci_i2c.c:1287:1
	add	sp, #32
	pop	{r7, pc}
.Ltmp321:
.Lfunc_end28:
	.size	UI2C_ReadByteTwoRegs, .Lfunc_end28-UI2C_ReadByteTwoRegs
	.cfi_endproc
	.cantunwind
	.fnend
                                        @ -- End function
	.section	.text.UI2C_ReadMultiBytesTwoRegs,"ax",%progbits
	.hidden	UI2C_ReadMultiBytesTwoRegs      @ -- Begin function UI2C_ReadMultiBytesTwoRegs
	.globl	UI2C_ReadMultiBytesTwoRegs
	.p2align	2
	.type	UI2C_ReadMultiBytesTwoRegs,%function
	.code	16                              @ @UI2C_ReadMultiBytesTwoRegs
	.thumb_func
UI2C_ReadMultiBytesTwoRegs:
.Lfunc_begin29:
	.loc	2 1306 0 is_stmt 1              @ ../../../../Library/StdDriver/src/usci_i2c.c:1306:0
	.fnstart
	.cfi_startproc
@ %bb.0:
	.save	{r4, lr}
	push	{r4, lr}
	.cfi_def_cfa_offset 8
	.cfi_offset lr, -4
	.cfi_offset r4, -8
	.pad	#52
	sub	sp, #52
	.cfi_def_cfa_offset 60
	ldr	r4, [sp, #60]
                                        @ kill: def $r4 killed $r2
                                        @ kill: def $r4 killed $r1
	str	r0, [sp, #48]
	add	r0, sp, #44
	strb	r1, [r0]
	add	r0, sp, #40
	strh	r2, [r0]
	str	r3, [sp, #36]
	add	r0, sp, #32
	movs	r1, #1
.Ltmp322:
	.loc	2 1307 13 prologue_end          @ ../../../../Library/StdDriver/src/usci_i2c.c:1307:13
	strb	r1, [r0]
	add	r2, sp, #28
	movs	r0, #0
	.loc	2 1307 29 is_stmt 0             @ ../../../../Library/StdDriver/src/usci_i2c.c:1307:29
	strb	r0, [r2]
	add	r2, sp, #24
	.loc	2 1307 41                       @ ../../../../Library/StdDriver/src/usci_i2c.c:1307:41
	strb	r1, [r2]
	add	r1, sp, #20
	.loc	2 1307 54                       @ ../../../../Library/StdDriver/src/usci_i2c.c:1307:54
	strb	r0, [r1]
	.loc	2 1308 14 is_stmt 1             @ ../../../../Library/StdDriver/src/usci_i2c.c:1308:14
	str	r0, [sp, #16]
	.loc	2 1308 29 is_stmt 0             @ ../../../../Library/StdDriver/src/usci_i2c.c:1308:29
	str	r0, [sp, #12]
	add	r2, sp, #8
	movs	r1, #18
	.loc	2 1309 28 is_stmt 1             @ ../../../../Library/StdDriver/src/usci_i2c.c:1309:28
	strb	r1, [r2]
	.loc	2 1311 23                       @ ../../../../Library/StdDriver/src/usci_i2c.c:1311:23
	ldr	r1, __arm_cp.29_0
	str	r0, [r1]
	.loc	2 1313 5                        @ ../../../../Library/StdDriver/src/usci_i2c.c:1313:5
	ldr	r0, [sp, #48]
	ldr	r0, [r0, #92]
	movs	r1, #8
	orrs	r0, r1
	movs	r1, #32
	bics	r0, r1
	ldr	r1, [sp, #48]
	str	r0, [r1, #92]
	.loc	2 1315 5                        @ ../../../../Library/StdDriver/src/usci_i2c.c:1315:5
	b	.LBB29_1
.LBB29_1:                               @ =>This Loop Header: Depth=1
                                        @     Child Loop BB29_5 Depth 2
	.loc	2 0 5 is_stmt 0                 @ ../../../../Library/StdDriver/src/usci_i2c.c:0:5
	add	r0, sp, #32
	.loc	2 1315 12                       @ ../../../../Library/StdDriver/src/usci_i2c.c:1315:12
	ldrb	r1, [r0]
	movs	r0, #0
	.loc	2 1315 22                       @ ../../../../Library/StdDriver/src/usci_i2c.c:1315:22
	str	r0, [sp, #4]                    @ 4-byte Spill
	cbz	r1, .LBB29_3
	b	.LBB29_2
.LBB29_2:                               @   in Loop: Header=BB29_1 Depth=1
	.loc	2 0 22                          @ ../../../../Library/StdDriver/src/usci_i2c.c:0:22
	add	r0, sp, #28
	.loc	2 1315 26                       @ ../../../../Library/StdDriver/src/usci_i2c.c:1315:26
	ldrb	r0, [r0]
	.loc	2 1315 32                       @ ../../../../Library/StdDriver/src/usci_i2c.c:1315:32
	rsbs	r1, r0, #0
	adcs	r0, r1
	str	r0, [sp, #4]                    @ 4-byte Spill
	b	.LBB29_3
.LBB29_3:                               @   in Loop: Header=BB29_1 Depth=1
	.loc	2 0 0                           @ ../../../../Library/StdDriver/src/usci_i2c.c:0:0
	ldr	r0, [sp, #4]                    @ 4-byte Reload
	.loc	2 1315 5                        @ ../../../../Library/StdDriver/src/usci_i2c.c:1315:5
	lsls	r0, r0, #31
	cbnz	r0, .LBB29_4
	b	.LBB29_46
.LBB29_4:                               @   in Loop: Header=BB29_1 Depth=1
.Ltmp323:
	.loc	2 1317 27 is_stmt 1             @ ../../../../Library/StdDriver/src/usci_i2c.c:1317:27
	ldr	r0, __arm_cp.29_1
	ldr	r0, [r0]
	.loc	2 1317 25 is_stmt 0             @ ../../../../Library/StdDriver/src/usci_i2c.c:1317:25
	str	r0, [sp, #12]
	.loc	2 1319 9 is_stmt 1              @ ../../../../Library/StdDriver/src/usci_i2c.c:1319:9
	b	.LBB29_5
.LBB29_5:                               @   Parent Loop BB29_1 Depth=1
                                        @ =>  This Inner Loop Header: Depth=2
	.loc	2 1319 18 is_stmt 0             @ ../../../../Library/StdDriver/src/usci_i2c.c:1319:18
	ldr	r0, [sp, #48]
	ldr	r0, [r0, #100]
	.loc	2 1319 9                        @ ../../../../Library/StdDriver/src/usci_i2c.c:1319:9
	lsls	r0, r0, #18
	lsrs	r0, r0, #26
	cbnz	r0, .LBB29_9
	b	.LBB29_6
.LBB29_6:                               @   in Loop: Header=BB29_5 Depth=2
.Ltmp324:
	.loc	2 1321 17 is_stmt 1             @ ../../../../Library/StdDriver/src/usci_i2c.c:1321:17
	ldr	r0, [sp, #12]
	subs	r0, r0, #1
	str	r0, [sp, #12]
.Ltmp325:
	.loc	2 1321 17 is_stmt 0             @ ../../../../Library/StdDriver/src/usci_i2c.c:1321:17
	cbnz	r0, .LBB29_8
	b	.LBB29_7
.LBB29_7:                               @   in Loop: Header=BB29_1 Depth=1
.Ltmp326:
	.loc	2 1323 35 is_stmt 1             @ ../../../../Library/StdDriver/src/usci_i2c.c:1323:35
	ldr	r1, __arm_cp.29_0
	movs	r0, #1
	mvns	r0, r0
	str	r0, [r1]
	.loc	2 1324 17                       @ ../../../../Library/StdDriver/src/usci_i2c.c:1324:17
	b	.LBB29_9
.Ltmp327:
.LBB29_8:                               @   in Loop: Header=BB29_5 Depth=2
	.loc	2 1319 9                        @ ../../../../Library/StdDriver/src/usci_i2c.c:1319:9
	b	.LBB29_5
.LBB29_9:                               @   in Loop: Header=BB29_1 Depth=1
	.loc	2 1328 17                       @ ../../../../Library/StdDriver/src/usci_i2c.c:1328:17
	ldr	r0, [sp, #48]
	ldr	r0, [r0, #100]
	movw	r1, #16128
	.loc	2 1328 44 is_stmt 0             @ ../../../../Library/StdDriver/src/usci_i2c.c:1328:44
	ands	r0, r1
	str	r0, [sp]                        @ 4-byte Spill
	movw	r1, #256
	.loc	2 1328 9                        @ ../../../../Library/StdDriver/src/usci_i2c.c:1328:9
	cmp	r0, r1
	beq	.LBB29_14
	b	.LBB29_10
.LBB29_10:                              @   in Loop: Header=BB29_1 Depth=1
	.loc	2 0 9                           @ ../../../../Library/StdDriver/src/usci_i2c.c:0:9
	ldr	r0, [sp]                        @ 4-byte Reload
	movw	r1, #512
	.loc	2 1328 9                        @ ../../../../Library/StdDriver/src/usci_i2c.c:1328:9
	cmp	r0, r1
	bne	.LBB29_11
	b	.LBB29_42
.LBB29_11:                              @   in Loop: Header=BB29_1 Depth=1
	.loc	2 0 9                           @ ../../../../Library/StdDriver/src/usci_i2c.c:0:9
	ldr	r0, [sp]                        @ 4-byte Reload
	movw	r1, #1024
	.loc	2 1328 9                        @ ../../../../Library/StdDriver/src/usci_i2c.c:1328:9
	cmp	r0, r1
	bne	.LBB29_12
	b	.LBB29_39
.LBB29_12:                              @   in Loop: Header=BB29_1 Depth=1
	.loc	2 0 9                           @ ../../../../Library/StdDriver/src/usci_i2c.c:0:9
	ldr	r0, [sp]                        @ 4-byte Reload
	movw	r1, #2048
	.loc	2 1328 9                        @ ../../../../Library/StdDriver/src/usci_i2c.c:1328:9
	cmp	r0, r1
	bne	.LBB29_13
	b	.LBB29_43
.LBB29_13:                              @   in Loop: Header=BB29_1 Depth=1
	.loc	2 0 9                           @ ../../../../Library/StdDriver/src/usci_i2c.c:0:9
	ldr	r0, [sp]                        @ 4-byte Reload
	movw	r1, #8192
	.loc	2 1328 9                        @ ../../../../Library/StdDriver/src/usci_i2c.c:1328:9
	cmp	r0, r1
	beq	.LBB29_20
	b	.LBB29_44
.LBB29_14:                              @   in Loop: Header=BB29_1 Depth=1
.Ltmp328:
	.loc	2 1331 17 is_stmt 1             @ ../../../../Library/StdDriver/src/usci_i2c.c:1331:17
	ldr	r1, [sp, #48]
	movw	r0, #256
	str	r0, [r1, #100]
	add	r0, sp, #8
.Ltmp329:
	.loc	2 1333 21                       @ ../../../../Library/StdDriver/src/usci_i2c.c:1333:21
	ldrb	r0, [r0]
.Ltmp330:
	.loc	2 1333 21 is_stmt 0             @ ../../../../Library/StdDriver/src/usci_i2c.c:1333:21
	cmp	r0, #18
	bne	.LBB29_16
	b	.LBB29_15
.LBB29_15:                              @   in Loop: Header=BB29_1 Depth=1
	.loc	2 0 21                          @ ../../../../Library/StdDriver/src/usci_i2c.c:0:21
	add	r0, sp, #44
.Ltmp331:
	.loc	2 1335 21 is_stmt 1             @ ../../../../Library/StdDriver/src/usci_i2c.c:1335:21
	ldrb	r0, [r0]
	lsls	r0, r0, #1
	ldr	r1, [sp, #48]
	str	r0, [r1, #48]
	add	r1, sp, #8
	movs	r0, #10
	.loc	2 1336 28                       @ ../../../../Library/StdDriver/src/usci_i2c.c:1336:28
	strb	r0, [r1]
	.loc	2 1337 17                       @ ../../../../Library/StdDriver/src/usci_i2c.c:1337:17
	b	.LBB29_19
.Ltmp332:
.LBB29_16:                              @   in Loop: Header=BB29_1 Depth=1
	.loc	2 0 17 is_stmt 0                @ ../../../../Library/StdDriver/src/usci_i2c.c:0:17
	add	r0, sp, #8
.Ltmp333:
	.loc	2 1338 26 is_stmt 1             @ ../../../../Library/StdDriver/src/usci_i2c.c:1338:26
	ldrb	r0, [r0]
.Ltmp334:
	.loc	2 1338 26 is_stmt 0             @ ../../../../Library/StdDriver/src/usci_i2c.c:1338:26
	cmp	r0, #15
	bne	.LBB29_18
	b	.LBB29_17
.LBB29_17:                              @   in Loop: Header=BB29_1 Depth=1
	.loc	2 0 26                          @ ../../../../Library/StdDriver/src/usci_i2c.c:0:26
	add	r0, sp, #44
.Ltmp335:
	.loc	2 1340 21 is_stmt 1             @ ../../../../Library/StdDriver/src/usci_i2c.c:1340:21
	ldrb	r0, [r0]
	lsls	r0, r0, #1
	adds	r0, r0, #1
	ldr	r1, [sp, #48]
	str	r0, [r1, #48]
	add	r1, sp, #8
	movs	r0, #12
	.loc	2 1341 28                       @ ../../../../Library/StdDriver/src/usci_i2c.c:1341:28
	strb	r0, [r1]
	.loc	2 1342 17                       @ ../../../../Library/StdDriver/src/usci_i2c.c:1342:17
	b	.LBB29_18
.Ltmp336:
.LBB29_18:                              @   in Loop: Header=BB29_1 Depth=1
	.loc	2 0 17 is_stmt 0                @ ../../../../Library/StdDriver/src/usci_i2c.c:0:17
	b	.LBB29_19
.LBB29_19:                              @   in Loop: Header=BB29_1 Depth=1
	add	r1, sp, #20
	movs	r0, #32
	.loc	2 1344 24 is_stmt 1             @ ../../../../Library/StdDriver/src/usci_i2c.c:1344:24
	strb	r0, [r1]
	.loc	2 1345 17                       @ ../../../../Library/StdDriver/src/usci_i2c.c:1345:17
	b	.LBB29_45
.LBB29_20:                              @   in Loop: Header=BB29_1 Depth=1
	.loc	2 1348 17                       @ ../../../../Library/StdDriver/src/usci_i2c.c:1348:17
	ldr	r1, [sp, #48]
	movw	r0, #8192
	str	r0, [r1, #100]
	add	r0, sp, #8
.Ltmp337:
	.loc	2 1350 21                       @ ../../../../Library/StdDriver/src/usci_i2c.c:1350:21
	ldrb	r0, [r0]
.Ltmp338:
	.loc	2 1350 21 is_stmt 0             @ ../../../../Library/StdDriver/src/usci_i2c.c:1350:21
	cmp	r0, #10
	bne	.LBB29_22
	b	.LBB29_21
.LBB29_21:                              @   in Loop: Header=BB29_1 Depth=1
	.loc	2 0 21                          @ ../../../../Library/StdDriver/src/usci_i2c.c:0:21
	add	r0, sp, #40
.Ltmp339:
	.loc	2 1352 21 is_stmt 1             @ ../../../../Library/StdDriver/src/usci_i2c.c:1352:21
	ldrb	r0, [r0, #1]
	ldr	r1, [sp, #48]
	str	r0, [r1, #48]
	add	r1, sp, #8
	movs	r0, #14
	.loc	2 1353 28                       @ ../../../../Library/StdDriver/src/usci_i2c.c:1353:28
	strb	r0, [r1]
	.loc	2 1354 17                       @ ../../../../Library/StdDriver/src/usci_i2c.c:1354:17
	b	.LBB29_38
.Ltmp340:
.LBB29_22:                              @   in Loop: Header=BB29_1 Depth=1
	.loc	2 0 17 is_stmt 0                @ ../../../../Library/StdDriver/src/usci_i2c.c:0:17
	add	r0, sp, #8
.Ltmp341:
	.loc	2 1355 26 is_stmt 1             @ ../../../../Library/StdDriver/src/usci_i2c.c:1355:26
	ldrb	r0, [r0]
.Ltmp342:
	.loc	2 1355 26 is_stmt 0             @ ../../../../Library/StdDriver/src/usci_i2c.c:1355:26
	cmp	r0, #14
	bne	.LBB29_27
	b	.LBB29_23
.LBB29_23:                              @   in Loop: Header=BB29_1 Depth=1
	.loc	2 0 26                          @ ../../../../Library/StdDriver/src/usci_i2c.c:0:26
	add	r0, sp, #24
.Ltmp343:
	.loc	2 1357 25 is_stmt 1             @ ../../../../Library/StdDriver/src/usci_i2c.c:1357:25
	ldrb	r0, [r0]
.Ltmp344:
	.loc	2 1357 25 is_stmt 0             @ ../../../../Library/StdDriver/src/usci_i2c.c:1357:25
	cbz	r0, .LBB29_25
	b	.LBB29_24
.LBB29_24:                              @   in Loop: Header=BB29_1 Depth=1
	.loc	2 0 25                          @ ../../../../Library/StdDriver/src/usci_i2c.c:0:25
	add	r0, sp, #40
.Ltmp345:
	.loc	2 1359 25 is_stmt 1             @ ../../../../Library/StdDriver/src/usci_i2c.c:1359:25
	ldrb	r0, [r0]
	ldr	r1, [sp, #48]
	str	r0, [r1, #48]
	add	r1, sp, #24
	movs	r0, #0
	.loc	2 1360 32                       @ ../../../../Library/StdDriver/src/usci_i2c.c:1360:32
	strb	r0, [r1]
	.loc	2 1361 21                       @ ../../../../Library/StdDriver/src/usci_i2c.c:1361:21
	b	.LBB29_26
.Ltmp346:
.LBB29_25:                              @   in Loop: Header=BB29_1 Depth=1
	.loc	2 0 21 is_stmt 0                @ ../../../../Library/StdDriver/src/usci_i2c.c:0:21
	add	r1, sp, #20
	movs	r0, #40
.Ltmp347:
	.loc	2 1364 32 is_stmt 1             @ ../../../../Library/StdDriver/src/usci_i2c.c:1364:32
	strb	r0, [r1]
	add	r1, sp, #8
	movs	r0, #15
	.loc	2 1365 32                       @ ../../../../Library/StdDriver/src/usci_i2c.c:1365:32
	strb	r0, [r1]
	b	.LBB29_26
.Ltmp348:
.LBB29_26:                              @   in Loop: Header=BB29_1 Depth=1
	.loc	2 1367 17                       @ ../../../../Library/StdDriver/src/usci_i2c.c:1367:17
	b	.LBB29_37
.Ltmp349:
.LBB29_27:                              @   in Loop: Header=BB29_1 Depth=1
	.loc	2 0 17 is_stmt 0                @ ../../../../Library/StdDriver/src/usci_i2c.c:0:17
	add	r0, sp, #8
.Ltmp350:
	.loc	2 1368 26 is_stmt 1             @ ../../../../Library/StdDriver/src/usci_i2c.c:1368:26
	ldrb	r0, [r0]
.Ltmp351:
	.loc	2 1368 26 is_stmt 0             @ ../../../../Library/StdDriver/src/usci_i2c.c:1368:26
	cmp	r0, #12
	bne	.LBB29_32
	b	.LBB29_28
.LBB29_28:                              @   in Loop: Header=BB29_1 Depth=1
.Ltmp352:
	.loc	2 1370 25 is_stmt 1             @ ../../../../Library/StdDriver/src/usci_i2c.c:1370:25
	ldr	r0, [sp, #60]
.Ltmp353:
	.loc	2 1370 25 is_stmt 0             @ ../../../../Library/StdDriver/src/usci_i2c.c:1370:25
	cmp	r0, #1
	bne	.LBB29_30
	b	.LBB29_29
.LBB29_29:                              @   in Loop: Header=BB29_1 Depth=1
	.loc	2 0 25                          @ ../../../../Library/StdDriver/src/usci_i2c.c:0:25
	add	r1, sp, #20
	movs	r0, #32
.Ltmp354:
	.loc	2 1372 32 is_stmt 1             @ ../../../../Library/StdDriver/src/usci_i2c.c:1372:32
	strb	r0, [r1]
	.loc	2 1373 21                       @ ../../../../Library/StdDriver/src/usci_i2c.c:1373:21
	b	.LBB29_31
.Ltmp355:
.LBB29_30:                              @   in Loop: Header=BB29_1 Depth=1
	.loc	2 0 21 is_stmt 0                @ ../../../../Library/StdDriver/src/usci_i2c.c:0:21
	add	r1, sp, #20
	movs	r0, #34
.Ltmp356:
	.loc	2 1376 32 is_stmt 1             @ ../../../../Library/StdDriver/src/usci_i2c.c:1376:32
	strb	r0, [r1]
	b	.LBB29_31
.Ltmp357:
.LBB29_31:                              @   in Loop: Header=BB29_1 Depth=1
	.loc	2 0 32 is_stmt 0                @ ../../../../Library/StdDriver/src/usci_i2c.c:0:32
	add	r1, sp, #8
	movs	r0, #16
	.loc	2 1379 28 is_stmt 1             @ ../../../../Library/StdDriver/src/usci_i2c.c:1379:28
	strb	r0, [r1]
	.loc	2 1380 17                       @ ../../../../Library/StdDriver/src/usci_i2c.c:1380:17
	b	.LBB29_36
.Ltmp358:
.LBB29_32:                              @   in Loop: Header=BB29_1 Depth=1
	.loc	2 1383 51                       @ ../../../../Library/StdDriver/src/usci_i2c.c:1383:51
	ldr	r0, [sp, #48]
	ldr	r0, [r0, #52]
	.loc	2 1383 21 is_stmt 0             @ ../../../../Library/StdDriver/src/usci_i2c.c:1383:21
	ldr	r1, [sp, #36]
	.loc	2 1383 35                       @ ../../../../Library/StdDriver/src/usci_i2c.c:1383:35
	ldr	r2, [sp, #16]
	adds	r3, r2, #1
	str	r3, [sp, #16]
	.loc	2 1383 39                       @ ../../../../Library/StdDriver/src/usci_i2c.c:1383:39
	strb	r0, [r1, r2]
.Ltmp359:
	.loc	2 1385 25 is_stmt 1             @ ../../../../Library/StdDriver/src/usci_i2c.c:1385:25
	ldr	r0, [sp, #16]
	.loc	2 1385 36 is_stmt 0             @ ../../../../Library/StdDriver/src/usci_i2c.c:1385:36
	ldr	r1, [sp, #60]
	.loc	2 1385 44                       @ ../../../../Library/StdDriver/src/usci_i2c.c:1385:44
	subs	r1, r1, #1
.Ltmp360:
	.loc	2 1385 25                       @ ../../../../Library/StdDriver/src/usci_i2c.c:1385:25
	cmp	r0, r1
	bhs	.LBB29_34
	b	.LBB29_33
.LBB29_33:                              @   in Loop: Header=BB29_1 Depth=1
	.loc	2 0 25                          @ ../../../../Library/StdDriver/src/usci_i2c.c:0:25
	add	r1, sp, #20
	movs	r0, #34
.Ltmp361:
	.loc	2 1386 32 is_stmt 1             @ ../../../../Library/StdDriver/src/usci_i2c.c:1386:32
	strb	r0, [r1]
	.loc	2 1386 25 is_stmt 0             @ ../../../../Library/StdDriver/src/usci_i2c.c:1386:25
	b	.LBB29_35
.LBB29_34:                              @   in Loop: Header=BB29_1 Depth=1
	.loc	2 0 25                          @ ../../../../Library/StdDriver/src/usci_i2c.c:0:25
	add	r1, sp, #20
	movs	r0, #32
	.loc	2 1388 32 is_stmt 1             @ ../../../../Library/StdDriver/src/usci_i2c.c:1388:32
	strb	r0, [r1]
	b	.LBB29_35
.Ltmp362:
.LBB29_35:                              @   in Loop: Header=BB29_1 Depth=1
	.loc	2 0 32 is_stmt 0                @ ../../../../Library/StdDriver/src/usci_i2c.c:0:32
	b	.LBB29_36
.LBB29_36:                              @   in Loop: Header=BB29_1 Depth=1
	b	.LBB29_37
.LBB29_37:                              @   in Loop: Header=BB29_1 Depth=1
	b	.LBB29_38
.LBB29_38:                              @   in Loop: Header=BB29_1 Depth=1
	.loc	2 1391 17 is_stmt 1             @ ../../../../Library/StdDriver/src/usci_i2c.c:1391:17
	b	.LBB29_45
.LBB29_39:                              @   in Loop: Header=BB29_1 Depth=1
	.loc	2 1394 17                       @ ../../../../Library/StdDriver/src/usci_i2c.c:1394:17
	ldr	r1, [sp, #48]
	movw	r0, #1024
	str	r0, [r1, #100]
	add	r0, sp, #8
.Ltmp363:
	.loc	2 1396 21                       @ ../../../../Library/StdDriver/src/usci_i2c.c:1396:21
	ldrb	r0, [r0]
.Ltmp364:
	.loc	2 1396 21 is_stmt 0             @ ../../../../Library/StdDriver/src/usci_i2c.c:1396:21
	cmp	r0, #16
	bne	.LBB29_41
	b	.LBB29_40
.LBB29_40:                              @   in Loop: Header=BB29_1 Depth=1
.Ltmp365:
	.loc	2 1397 51 is_stmt 1             @ ../../../../Library/StdDriver/src/usci_i2c.c:1397:51
	ldr	r0, [sp, #48]
	ldr	r0, [r0, #52]
	.loc	2 1397 21 is_stmt 0             @ ../../../../Library/StdDriver/src/usci_i2c.c:1397:21
	ldr	r1, [sp, #36]
	.loc	2 1397 35                       @ ../../../../Library/StdDriver/src/usci_i2c.c:1397:35
	ldr	r2, [sp, #16]
	adds	r3, r2, #1
	str	r3, [sp, #16]
	.loc	2 1397 39                       @ ../../../../Library/StdDriver/src/usci_i2c.c:1397:39
	strb	r0, [r1, r2]
	.loc	2 1397 21                       @ ../../../../Library/StdDriver/src/usci_i2c.c:1397:21
	b	.LBB29_41
.Ltmp366:
.LBB29_41:                              @   in Loop: Header=BB29_1 Depth=1
	.loc	2 0 21                          @ ../../../../Library/StdDriver/src/usci_i2c.c:0:21
	add	r1, sp, #20
	movs	r0, #36
	.loc	2 1399 24 is_stmt 1             @ ../../../../Library/StdDriver/src/usci_i2c.c:1399:24
	strb	r0, [r1]
	.loc	2 1401 17                       @ ../../../../Library/StdDriver/src/usci_i2c.c:1401:17
	b	.LBB29_45
.LBB29_42:                              @   in Loop: Header=BB29_1 Depth=1
	.loc	2 1404 17                       @ ../../../../Library/StdDriver/src/usci_i2c.c:1404:17
	ldr	r1, [sp, #48]
	movw	r0, #512
	str	r0, [r1, #100]
	add	r1, sp, #20
	movs	r0, #32
	.loc	2 1405 24                       @ ../../../../Library/StdDriver/src/usci_i2c.c:1405:24
	strb	r0, [r1]
	add	r1, sp, #32
	movs	r0, #0
	.loc	2 1406 27                       @ ../../../../Library/StdDriver/src/usci_i2c.c:1406:27
	strb	r0, [r1]
	.loc	2 1407 17                       @ ../../../../Library/StdDriver/src/usci_i2c.c:1407:17
	b	.LBB29_45
.LBB29_43:                              @   in Loop: Header=BB29_1 Depth=1
	.loc	2 1409 13                       @ ../../../../Library/StdDriver/src/usci_i2c.c:1409:13
	b	.LBB29_44
.LBB29_44:                              @   in Loop: Header=BB29_1 Depth=1
	.loc	2 0 13 is_stmt 0                @ ../../../../Library/StdDriver/src/usci_i2c.c:0:13
	add	r1, sp, #20
	movs	r0, #36
	.loc	2 1411 24 is_stmt 1             @ ../../../../Library/StdDriver/src/usci_i2c.c:1411:24
	strb	r0, [r1]
	.loc	2 1412 17                       @ ../../../../Library/StdDriver/src/usci_i2c.c:1412:17
	b	.LBB29_45
.Ltmp367:
.LBB29_45:                              @   in Loop: Header=BB29_1 Depth=1
	.loc	2 1415 9                        @ ../../../../Library/StdDriver/src/usci_i2c.c:1415:9
	ldr	r0, [sp, #48]
	ldr	r0, [r0, #92]
	movs	r1, #46
	bics	r0, r1
	add	r1, sp, #20
	ldrb	r1, [r1]
	orrs	r0, r1
	ldr	r1, [sp, #48]
	str	r0, [r1, #92]
.Ltmp368:
	.loc	2 1315 5                        @ ../../../../Library/StdDriver/src/usci_i2c.c:1315:5
	b	.LBB29_1
.LBB29_46:
	.loc	2 1418 12                       @ ../../../../Library/StdDriver/src/usci_i2c.c:1418:12
	ldr	r0, [sp, #16]
	.loc	2 1418 5 epilogue_begin is_stmt 0 @ ../../../../Library/StdDriver/src/usci_i2c.c:1418:5
	add	sp, #52
	pop	{r4, pc}
.Ltmp369:
	.p2align	2
@ %bb.47:
	.loc	2 0 5                           @ ../../../../Library/StdDriver/src/usci_i2c.c:0:5
__arm_cp.29_0:
	.long	g_UI2C_i32ErrCode
.Lcpi_end21:
	.size	__arm_cp.29_0, .Lcpi_end21-__arm_cp.29_0
__arm_cp.29_1:
	.long	SystemCoreClock
.Lcpi_end22:
	.size	__arm_cp.29_1, .Lcpi_end22-__arm_cp.29_1
.Lfunc_end29:
	.size	UI2C_ReadMultiBytesTwoRegs, .Lfunc_end29-UI2C_ReadMultiBytesTwoRegs
	.cfi_endproc
	.cantunwind
	.fnend
                                        @ -- End function
	.hidden	g_UI2C_i32ErrCode               @ @g_UI2C_i32ErrCode
	.type	g_UI2C_i32ErrCode,%object
	.section	.bss.g_UI2C_i32ErrCode,"aw",%nobits
	.globl	g_UI2C_i32ErrCode
	.p2align	2, 0x0
g_UI2C_i32ErrCode:
	.long	0                               @ 0x0
	.size	g_UI2C_i32ErrCode, 4

	.section	".note.GNU-stack","",%progbits
	.eabi_attribute	30, 6	@ Tag_ABI_optimization_goals
	.ARM_attribute	16, 1	@ Tag_AV_eba